
out/demo.elf:     file format elf32-littlearm


Disassembly of section .text:

08000188 <memcpy>:
 8000188:	2a03      	cmp	r2, #3
 800018a:	e92d 0ff0 	stmdb	sp!, {r4, r5, r6, r7, r8, r9, sl, fp}
 800018e:	d809      	bhi.n	80001a4 <memcpy+0x1c>
 8000190:	b12a      	cbz	r2, 800019e <memcpy+0x16>
 8000192:	2300      	movs	r3, #0
 8000194:	5ccc      	ldrb	r4, [r1, r3]
 8000196:	54c4      	strb	r4, [r0, r3]
 8000198:	3301      	adds	r3, #1
 800019a:	4293      	cmp	r3, r2
 800019c:	d1fa      	bne.n	8000194 <memcpy+0xc>
 800019e:	e8bd 0ff0 	ldmia.w	sp!, {r4, r5, r6, r7, r8, r9, sl, fp}
 80001a2:	4770      	bx	lr
 80001a4:	0783      	lsls	r3, r0, #30
 80001a6:	4402      	add	r2, r0
 80001a8:	d00e      	beq.n	80001c8 <memcpy+0x40>
 80001aa:	1c44      	adds	r4, r0, #1
 80001ac:	1c4d      	adds	r5, r1, #1
 80001ae:	f815 7c01 	ldrb.w	r7, [r5, #-1]
 80001b2:	f004 0603 	and.w	r6, r4, #3
 80001b6:	4623      	mov	r3, r4
 80001b8:	3401      	adds	r4, #1
 80001ba:	4629      	mov	r1, r5
 80001bc:	3501      	adds	r5, #1
 80001be:	f804 7c02 	strb.w	r7, [r4, #-2]
 80001c2:	2e00      	cmp	r6, #0
 80001c4:	d1f3      	bne.n	80001ae <memcpy+0x26>
 80001c6:	e000      	b.n	80001ca <memcpy+0x42>
 80001c8:	4603      	mov	r3, r0
 80001ca:	f011 0403 	ands.w	r4, r1, #3
 80001ce:	d06d      	beq.n	80002ac <memcpy+0x124>
 80001d0:	1ad7      	subs	r7, r2, r3
 80001d2:	1b0d      	subs	r5, r1, r4
 80001d4:	2f03      	cmp	r7, #3
 80001d6:	682e      	ldr	r6, [r5, #0]
 80001d8:	dd19      	ble.n	800020e <memcpy+0x86>
 80001da:	f1c4 0c04 	rsb	ip, r4, #4
 80001de:	ea4f 08c4 	mov.w	r8, r4, lsl #3
 80001e2:	1d1c      	adds	r4, r3, #4
 80001e4:	ea4f 0ccc 	mov.w	ip, ip, lsl #3
 80001e8:	f855 7f04 	ldr.w	r7, [r5, #4]!
 80001ec:	ebc4 0902 	rsb	r9, r4, r2
 80001f0:	4623      	mov	r3, r4
 80001f2:	3104      	adds	r1, #4
 80001f4:	3404      	adds	r4, #4
 80001f6:	f1b9 0f03 	cmp.w	r9, #3
 80001fa:	fa26 fa08 	lsr.w	sl, r6, r8
 80001fe:	fa07 fb0c 	lsl.w	fp, r7, ip
 8000202:	463e      	mov	r6, r7
 8000204:	ea4b 070a 	orr.w	r7, fp, sl
 8000208:	f844 7c08 	str.w	r7, [r4, #-8]
 800020c:	dcec      	bgt.n	80001e8 <memcpy+0x60>
 800020e:	429a      	cmp	r2, r3
 8000210:	d9c5      	bls.n	800019e <memcpy+0x16>
 8000212:	3301      	adds	r3, #1
 8000214:	3101      	adds	r1, #1
 8000216:	3201      	adds	r2, #1
 8000218:	f811 4c01 	ldrb.w	r4, [r1, #-1]
 800021c:	3301      	adds	r3, #1
 800021e:	3101      	adds	r1, #1
 8000220:	4293      	cmp	r3, r2
 8000222:	f803 4c02 	strb.w	r4, [r3, #-2]
 8000226:	d1f7      	bne.n	8000218 <memcpy+0x90>
 8000228:	e7b9      	b.n	800019e <memcpy+0x16>
 800022a:	680c      	ldr	r4, [r1, #0]
 800022c:	3340      	adds	r3, #64	; 0x40
 800022e:	3140      	adds	r1, #64	; 0x40
 8000230:	f843 4c40 	str.w	r4, [r3, #-64]
 8000234:	f851 4c3c 	ldr.w	r4, [r1, #-60]
 8000238:	f843 4c3c 	str.w	r4, [r3, #-60]
 800023c:	f851 4c38 	ldr.w	r4, [r1, #-56]
 8000240:	f843 4c38 	str.w	r4, [r3, #-56]
 8000244:	f851 4c34 	ldr.w	r4, [r1, #-52]
 8000248:	f843 4c34 	str.w	r4, [r3, #-52]
 800024c:	f851 4c30 	ldr.w	r4, [r1, #-48]
 8000250:	f843 4c30 	str.w	r4, [r3, #-48]
 8000254:	f851 4c2c 	ldr.w	r4, [r1, #-44]
 8000258:	f843 4c2c 	str.w	r4, [r3, #-44]
 800025c:	f851 4c28 	ldr.w	r4, [r1, #-40]
 8000260:	f843 4c28 	str.w	r4, [r3, #-40]
 8000264:	f851 4c24 	ldr.w	r4, [r1, #-36]
 8000268:	f843 4c24 	str.w	r4, [r3, #-36]
 800026c:	f851 4c20 	ldr.w	r4, [r1, #-32]
 8000270:	f843 4c20 	str.w	r4, [r3, #-32]
 8000274:	f851 4c1c 	ldr.w	r4, [r1, #-28]
 8000278:	f843 4c1c 	str.w	r4, [r3, #-28]
 800027c:	f851 4c18 	ldr.w	r4, [r1, #-24]
 8000280:	f843 4c18 	str.w	r4, [r3, #-24]
 8000284:	f851 4c14 	ldr.w	r4, [r1, #-20]
 8000288:	f843 4c14 	str.w	r4, [r3, #-20]
 800028c:	f851 4c10 	ldr.w	r4, [r1, #-16]
 8000290:	f843 4c10 	str.w	r4, [r3, #-16]
 8000294:	f851 4c0c 	ldr.w	r4, [r1, #-12]
 8000298:	f843 4c0c 	str.w	r4, [r3, #-12]
 800029c:	f851 4c08 	ldr.w	r4, [r1, #-8]
 80002a0:	f843 4c08 	str.w	r4, [r3, #-8]
 80002a4:	f851 4c04 	ldr.w	r4, [r1, #-4]
 80002a8:	f843 4c04 	str.w	r4, [r3, #-4]
 80002ac:	1ad4      	subs	r4, r2, r3
 80002ae:	2c3f      	cmp	r4, #63	; 0x3f
 80002b0:	dcbb      	bgt.n	800022a <memcpy+0xa2>
 80002b2:	e011      	b.n	80002d8 <memcpy+0x150>
 80002b4:	680c      	ldr	r4, [r1, #0]
 80002b6:	3310      	adds	r3, #16
 80002b8:	3110      	adds	r1, #16
 80002ba:	f843 4c10 	str.w	r4, [r3, #-16]
 80002be:	f851 4c0c 	ldr.w	r4, [r1, #-12]
 80002c2:	f843 4c0c 	str.w	r4, [r3, #-12]
 80002c6:	f851 4c08 	ldr.w	r4, [r1, #-8]
 80002ca:	f843 4c08 	str.w	r4, [r3, #-8]
 80002ce:	f851 4c04 	ldr.w	r4, [r1, #-4]
 80002d2:	f843 4c04 	str.w	r4, [r3, #-4]
 80002d6:	1ad4      	subs	r4, r2, r3
 80002d8:	2c0f      	cmp	r4, #15
 80002da:	dceb      	bgt.n	80002b4 <memcpy+0x12c>
 80002dc:	2c03      	cmp	r4, #3
 80002de:	dd96      	ble.n	800020e <memcpy+0x86>
 80002e0:	1d1c      	adds	r4, r3, #4
 80002e2:	1d0d      	adds	r5, r1, #4
 80002e4:	f855 7c04 	ldr.w	r7, [r5, #-4]
 80002e8:	1b16      	subs	r6, r2, r4
 80002ea:	4623      	mov	r3, r4
 80002ec:	4629      	mov	r1, r5
 80002ee:	3404      	adds	r4, #4
 80002f0:	3504      	adds	r5, #4
 80002f2:	2e03      	cmp	r6, #3
 80002f4:	f844 7c08 	str.w	r7, [r4, #-8]
 80002f8:	dcf4      	bgt.n	80002e4 <memcpy+0x15c>
 80002fa:	e788      	b.n	800020e <memcpy+0x86>

080002fc <memset>:
 80002fc:	2a03      	cmp	r2, #3
 80002fe:	b2c9      	uxtb	r1, r1
 8000300:	b470      	push	{r4, r5, r6}
 8000302:	d808      	bhi.n	8000316 <memset+0x1a>
 8000304:	b12a      	cbz	r2, 8000312 <memset+0x16>
 8000306:	4603      	mov	r3, r0
 8000308:	1812      	adds	r2, r2, r0
 800030a:	f803 1b01 	strb.w	r1, [r3], #1
 800030e:	4293      	cmp	r3, r2
 8000310:	d1fb      	bne.n	800030a <memset+0xe>
 8000312:	bc70      	pop	{r4, r5, r6}
 8000314:	4770      	bx	lr
 8000316:	0783      	lsls	r3, r0, #30
 8000318:	4402      	add	r2, r0
 800031a:	d009      	beq.n	8000330 <memset+0x34>
 800031c:	1c44      	adds	r4, r0, #1
 800031e:	f004 0503 	and.w	r5, r4, #3
 8000322:	4623      	mov	r3, r4
 8000324:	f804 1c01 	strb.w	r1, [r4, #-1]
 8000328:	3401      	adds	r4, #1
 800032a:	2d00      	cmp	r5, #0
 800032c:	d1f7      	bne.n	800031e <memset+0x22>
 800032e:	e000      	b.n	8000332 <memset+0x36>
 8000330:	4603      	mov	r3, r0
 8000332:	1ad5      	subs	r5, r2, r3
 8000334:	eb01 2401 	add.w	r4, r1, r1, lsl #8
 8000338:	2d3f      	cmp	r5, #63	; 0x3f
 800033a:	eb04 4404 	add.w	r4, r4, r4, lsl #16
 800033e:	dd2c      	ble.n	800039a <memset+0x9e>
 8000340:	601c      	str	r4, [r3, #0]
 8000342:	3340      	adds	r3, #64	; 0x40
 8000344:	1ad5      	subs	r5, r2, r3
 8000346:	f843 4c3c 	str.w	r4, [r3, #-60]
 800034a:	2d3f      	cmp	r5, #63	; 0x3f
 800034c:	f843 4c38 	str.w	r4, [r3, #-56]
 8000350:	f843 4c34 	str.w	r4, [r3, #-52]
 8000354:	f843 4c30 	str.w	r4, [r3, #-48]
 8000358:	f843 4c2c 	str.w	r4, [r3, #-44]
 800035c:	f843 4c28 	str.w	r4, [r3, #-40]
 8000360:	f843 4c24 	str.w	r4, [r3, #-36]
 8000364:	f843 4c20 	str.w	r4, [r3, #-32]
 8000368:	f843 4c1c 	str.w	r4, [r3, #-28]
 800036c:	f843 4c18 	str.w	r4, [r3, #-24]
 8000370:	f843 4c14 	str.w	r4, [r3, #-20]
 8000374:	f843 4c10 	str.w	r4, [r3, #-16]
 8000378:	f843 4c0c 	str.w	r4, [r3, #-12]
 800037c:	f843 4c08 	str.w	r4, [r3, #-8]
 8000380:	f843 4c04 	str.w	r4, [r3, #-4]
 8000384:	dcdc      	bgt.n	8000340 <memset+0x44>
 8000386:	e008      	b.n	800039a <memset+0x9e>
 8000388:	601c      	str	r4, [r3, #0]
 800038a:	3310      	adds	r3, #16
 800038c:	1ad5      	subs	r5, r2, r3
 800038e:	f843 4c0c 	str.w	r4, [r3, #-12]
 8000392:	f843 4c08 	str.w	r4, [r3, #-8]
 8000396:	f843 4c04 	str.w	r4, [r3, #-4]
 800039a:	2d0f      	cmp	r5, #15
 800039c:	dcf4      	bgt.n	8000388 <memset+0x8c>
 800039e:	2d03      	cmp	r5, #3
 80003a0:	dd08      	ble.n	80003b4 <memset+0xb8>
 80003a2:	1d1d      	adds	r5, r3, #4
 80003a4:	1b56      	subs	r6, r2, r5
 80003a6:	f845 4c04 	str.w	r4, [r5, #-4]
 80003aa:	2e03      	cmp	r6, #3
 80003ac:	462b      	mov	r3, r5
 80003ae:	f105 0504 	add.w	r5, r5, #4
 80003b2:	dcf7      	bgt.n	80003a4 <memset+0xa8>
 80003b4:	429a      	cmp	r2, r3
 80003b6:	d9ac      	bls.n	8000312 <memset+0x16>
 80003b8:	3301      	adds	r3, #1
 80003ba:	3201      	adds	r2, #1
 80003bc:	f803 1c01 	strb.w	r1, [r3, #-1]
 80003c0:	3301      	adds	r3, #1
 80003c2:	4293      	cmp	r3, r2
 80003c4:	d1fa      	bne.n	80003bc <memset+0xc0>
 80003c6:	e7a4      	b.n	8000312 <memset+0x16>

080003c8 <strcpy>:
 80003c8:	ea80 0201 	eor.w	r2, r0, r1
 80003cc:	4684      	mov	ip, r0
 80003ce:	f012 0f03 	tst.w	r2, #3
 80003d2:	d14f      	bne.n	8000474 <strcpy+0xac>
 80003d4:	f011 0f03 	tst.w	r1, #3
 80003d8:	d132      	bne.n	8000440 <strcpy+0x78>
 80003da:	f84d 4d04 	str.w	r4, [sp, #-4]!
 80003de:	f011 0f04 	tst.w	r1, #4
 80003e2:	f851 3b04 	ldr.w	r3, [r1], #4
 80003e6:	d00b      	beq.n	8000400 <strcpy+0x38>
 80003e8:	f1a3 3201 	sub.w	r2, r3, #16843009	; 0x1010101
 80003ec:	439a      	bics	r2, r3
 80003ee:	f012 3f80 	tst.w	r2, #2155905152	; 0x80808080
 80003f2:	bf04      	itt	eq
 80003f4:	f84c 3b04 	streq.w	r3, [ip], #4
 80003f8:	f851 3b04 	ldreq.w	r3, [r1], #4
 80003fc:	d116      	bne.n	800042c <strcpy+0x64>
 80003fe:	bf00      	nop
 8000400:	f851 4b04 	ldr.w	r4, [r1], #4
 8000404:	f1a3 3201 	sub.w	r2, r3, #16843009	; 0x1010101
 8000408:	439a      	bics	r2, r3
 800040a:	f012 3f80 	tst.w	r2, #2155905152	; 0x80808080
 800040e:	f1a4 3201 	sub.w	r2, r4, #16843009	; 0x1010101
 8000412:	d10b      	bne.n	800042c <strcpy+0x64>
 8000414:	f84c 3b04 	str.w	r3, [ip], #4
 8000418:	43a2      	bics	r2, r4
 800041a:	f012 3f80 	tst.w	r2, #2155905152	; 0x80808080
 800041e:	bf04      	itt	eq
 8000420:	f851 3b04 	ldreq.w	r3, [r1], #4
 8000424:	f84c 4b04 	streq.w	r4, [ip], #4
 8000428:	d0ea      	beq.n	8000400 <strcpy+0x38>
 800042a:	4623      	mov	r3, r4
 800042c:	f80c 3b01 	strb.w	r3, [ip], #1
 8000430:	f013 0fff 	tst.w	r3, #255	; 0xff
 8000434:	ea4f 2333 	mov.w	r3, r3, ror #8
 8000438:	d1f8      	bne.n	800042c <strcpy+0x64>
 800043a:	f85d 4b04 	ldr.w	r4, [sp], #4
 800043e:	4770      	bx	lr
 8000440:	f011 0f01 	tst.w	r1, #1
 8000444:	d006      	beq.n	8000454 <strcpy+0x8c>
 8000446:	f811 2b01 	ldrb.w	r2, [r1], #1
 800044a:	f80c 2b01 	strb.w	r2, [ip], #1
 800044e:	2a00      	cmp	r2, #0
 8000450:	bf08      	it	eq
 8000452:	4770      	bxeq	lr
 8000454:	f011 0f02 	tst.w	r1, #2
 8000458:	d0bf      	beq.n	80003da <strcpy+0x12>
 800045a:	f831 2b02 	ldrh.w	r2, [r1], #2
 800045e:	f012 0fff 	tst.w	r2, #255	; 0xff
 8000462:	bf16      	itet	ne
 8000464:	f82c 2b02 	strhne.w	r2, [ip], #2
 8000468:	f88c 2000 	strbeq.w	r2, [ip]
 800046c:	f412 4f7f 	tstne.w	r2, #65280	; 0xff00
 8000470:	d1b3      	bne.n	80003da <strcpy+0x12>
 8000472:	4770      	bx	lr
 8000474:	f811 2b01 	ldrb.w	r2, [r1], #1
 8000478:	f80c 2b01 	strb.w	r2, [ip], #1
 800047c:	2a00      	cmp	r2, #0
 800047e:	d1f9      	bne.n	8000474 <strcpy+0xac>
 8000480:	4770      	bx	lr
 8000482:	bf00      	nop

08000484 <strlen>:
 8000484:	f020 0103 	bic.w	r1, r0, #3
 8000488:	f010 0003 	ands.w	r0, r0, #3
 800048c:	f1c0 0000 	rsb	r0, r0, #0
 8000490:	f851 3b04 	ldr.w	r3, [r1], #4
 8000494:	f100 0c04 	add.w	ip, r0, #4
 8000498:	ea4f 0ccc 	mov.w	ip, ip, lsl #3
 800049c:	f06f 0200 	mvn.w	r2, #0
 80004a0:	bf1c      	itt	ne
 80004a2:	fa22 f20c 	lsrne.w	r2, r2, ip
 80004a6:	4313      	orrne	r3, r2
 80004a8:	f04f 0c01 	mov.w	ip, #1
 80004ac:	ea4c 2c0c 	orr.w	ip, ip, ip, lsl #8
 80004b0:	ea4c 4c0c 	orr.w	ip, ip, ip, lsl #16
 80004b4:	eba3 020c 	sub.w	r2, r3, ip
 80004b8:	ea22 0203 	bic.w	r2, r2, r3
 80004bc:	ea12 12cc 	ands.w	r2, r2, ip, lsl #7
 80004c0:	bf04      	itt	eq
 80004c2:	f851 3b04 	ldreq.w	r3, [r1], #4
 80004c6:	3004      	addeq	r0, #4
 80004c8:	d0f4      	beq.n	80004b4 <strlen+0x30>
 80004ca:	f013 0fff 	tst.w	r3, #255	; 0xff
 80004ce:	bf1f      	itttt	ne
 80004d0:	3001      	addne	r0, #1
 80004d2:	f413 4f7f 	tstne.w	r3, #65280	; 0xff00
 80004d6:	3001      	addne	r0, #1
 80004d8:	f413 0f7f 	tstne.w	r3, #16711680	; 0xff0000
 80004dc:	bf18      	it	ne
 80004de:	3001      	addne	r0, #1
 80004e0:	4770      	bx	lr
 80004e2:	bf00      	nop

080004e4 <Reset_Handler>:
  .weak  Reset_Handler
  .type  Reset_Handler, %function
Reset_Handler:  

/* Copy the data segment initializers from flash to SRAM */  
  movs  r1, #0
 80004e4:	2100      	movs	r1, #0
  b  LoopCopyDataInit
 80004e6:	f000 b804 	b.w	80004f2 <LoopCopyDataInit>

080004ea <CopyDataInit>:

CopyDataInit:
  ldr  r3, =_sidata
 80004ea:	4b0c      	ldr	r3, [pc, #48]	; (800051c <LoopFillZerobss+0x12>)
  ldr  r3, [r3, r1]
 80004ec:	585b      	ldr	r3, [r3, r1]
  str  r3, [r0, r1]
 80004ee:	5043      	str	r3, [r0, r1]
  adds  r1, r1, #4
 80004f0:	3104      	adds	r1, #4

080004f2 <LoopCopyDataInit>:
    
LoopCopyDataInit:
  ldr  r0, =_sdata
 80004f2:	480b      	ldr	r0, [pc, #44]	; (8000520 <LoopFillZerobss+0x16>)
  ldr  r3, =_edata
 80004f4:	4b0b      	ldr	r3, [pc, #44]	; (8000524 <LoopFillZerobss+0x1a>)
  adds  r2, r0, r1
 80004f6:	1842      	adds	r2, r0, r1
  cmp  r2, r3
 80004f8:	429a      	cmp	r2, r3
  bcc  CopyDataInit
 80004fa:	f4ff aff6 	bcc.w	80004ea <CopyDataInit>
  ldr  r2, =_sbss
 80004fe:	4a0a      	ldr	r2, [pc, #40]	; (8000528 <LoopFillZerobss+0x1e>)
  b  LoopFillZerobss
 8000500:	f000 b803 	b.w	800050a <LoopFillZerobss>

08000504 <FillZerobss>:
/* Zero fill the bss segment. */  
FillZerobss:
  movs  r3, #0
 8000504:	2300      	movs	r3, #0
  str  r3, [r2], #4
 8000506:	f842 3b04 	str.w	r3, [r2], #4

0800050a <LoopFillZerobss>:
    
LoopFillZerobss:
  ldr  r3, = _ebss
 800050a:	4b08      	ldr	r3, [pc, #32]	; (800052c <LoopFillZerobss+0x22>)
  cmp  r2, r3
 800050c:	429a      	cmp	r2, r3
  bcc  FillZerobss
 800050e:	f4ff aff9 	bcc.w	8000504 <FillZerobss>

/* Call the clock system intitialization function.*/
  bl  SystemInit   
 8000512:	f002 fdaf 	bl	8003074 <SystemInit>
/* Call the application's entry point.*/
  bl  main
 8000516:	f001 fa0b 	bl	8001930 <main>
  bx  lr    
 800051a:	4770      	bx	lr
/* Copy the data segment initializers from flash to SRAM */  
  movs  r1, #0
  b  LoopCopyDataInit

CopyDataInit:
  ldr  r3, =_sidata
 800051c:	08003194 	.word	0x08003194
  ldr  r3, [r3, r1]
  str  r3, [r0, r1]
  adds  r1, r1, #4
    
LoopCopyDataInit:
  ldr  r0, =_sdata
 8000520:	20000000 	.word	0x20000000
  ldr  r3, =_edata
 8000524:	20000000 	.word	0x20000000
  adds  r2, r0, r1
  cmp  r2, r3
  bcc  CopyDataInit
  ldr  r2, =_sbss
 8000528:	20000000 	.word	0x20000000
FillZerobss:
  movs  r3, #0
  str  r3, [r2], #4
    
LoopFillZerobss:
  ldr  r3, = _ebss
 800052c:	20000588 	.word	0x20000588

08000530 <ADC_IRQHandler>:
 * @retval None       
*/
    .section  .text.Default_Handler,"ax",%progbits
Default_Handler:
Infinite_Loop:
  b  Infinite_Loop
 8000530:	f7ff bffe 	b.w	8000530 <ADC_IRQHandler>

08000534 <disk_initialize>:
/* Inidialize a Drive                                                    */

DSTATUS disk_initialize (
        BYTE drv                                /* Physical drive nmuber (0..) */
)
{
 8000534:	b508      	push	{r3, lr}
        SD_Error  Status;

//	printf("disk_initialize %d\n", drv);

 	/* Supports only single drive */
        if (drv)
 8000536:	b928      	cbnz	r0, 8000544 <disk_initialize+0x10>
        {
                return STA_NOINIT;
        }
/*-------------------------- SD Init ----------------------------- */
  Status = SD_Init();
 8000538:	f002 f8ee 	bl	8002718 <SD_Init>
//	printf("disk_initialize %d\n", drv);

 	/* Supports only single drive */
        if (drv)
        {
                return STA_NOINIT;
 800053c:	3000      	adds	r0, #0
 800053e:	bf18      	it	ne
 8000540:	2001      	movne	r0, #1
 8000542:	bd08      	pop	{r3, pc}
 8000544:	2001      	movs	r0, #1
        {

                return RES_OK;
        }

}
 8000546:	bd08      	pop	{r3, pc}

08000548 <disk_status>:
/* Return Disk Status                                                    */

DSTATUS disk_status (
        BYTE drv                /* Physical drive nmuber (0..) */
)
{
 8000548:	b508      	push	{r3, lr}
	DSTATUS stat = 0;
	
	if (SD_Detect() != SD_PRESENT)
 800054a:	f001 fd9f 	bl	800208c <SD_Detect>

	// STA_NOTINIT - Subsystem not initailized
	// STA_PROTECTED - Write protected, MMC/SD switch if available
	
	return(stat);
}
 800054e:	2801      	cmp	r0, #1
 8000550:	bf14      	ite	ne
 8000552:	2002      	movne	r0, #2
 8000554:	2000      	moveq	r0, #0
 8000556:	bd08      	pop	{r3, pc}

08000558 <disk_read>:
        BYTE drv,               /* Physical drive nmuber (0..) */
        BYTE *buff,             /* Data buffer to store read data */
        DWORD sector,   				/* Sector address (LBA) */
        BYTE count              /* Number of sectors to read (1..255) */
)
{
 8000558:	b5f0      	push	{r4, r5, r6, r7, lr}
 800055a:	f5ad 7d01 	sub.w	sp, sp, #516	; 0x204
 800055e:	4607      	mov	r7, r0
 8000560:	460c      	mov	r4, r1
 8000562:	4616      	mov	r6, r2
 8000564:	461d      	mov	r5, r3
	SD_Error Status;

//	printf("disk_read %d %p %10d %d\n",drv,buff,sector,count);

	if (SD_Detect() != SD_PRESENT)
 8000566:	f001 fd91 	bl	800208c <SD_Detect>
 800056a:	2801      	cmp	r0, #1
 800056c:	d131      	bne.n	80005d2 <disk_read+0x7a>
		return(RES_NOTRDY);

	if ((DWORD)buff & 3) // DMA Alignment failure, do single up to aligned buffer
 800056e:	07a3      	lsls	r3, r4, #30
 8000570:	d018      	beq.n	80005a4 <disk_read+0x4c>


/*-----------------------------------------------------------------------*/
/* Read Sector(s)                                                        */

DRESULT disk_read (
 8000572:	19ad      	adds	r5, r5, r6
//	printf("disk_read %d %p %10d %d\n",drv,buff,sector,count);

	if (SD_Detect() != SD_PRESENT)
		return(RES_NOTRDY);

	if ((DWORD)buff & 3) // DMA Alignment failure, do single up to aligned buffer
 8000574:	4632      	mov	r2, r6
	{
		DRESULT res = RES_OK;
		DWORD scratch[BLOCK_SIZE / 4]; // Alignment assured, you'll need a sufficiently big stack

		while(count--)
 8000576:	b2ed      	uxtb	r5, r5
 8000578:	e00f      	b.n	800059a <disk_read+0x42>
		{
			res = disk_read(drv, (void *)scratch, sector++, 1);
 800057a:	4638      	mov	r0, r7
 800057c:	4669      	mov	r1, sp
 800057e:	2301      	movs	r3, #1
 8000580:	1c56      	adds	r6, r2, #1
 8000582:	f7ff ffe9 	bl	8000558 <disk_read>

			if (res != RES_OK)
 8000586:	bb28      	cbnz	r0, 80005d4 <disk_read+0x7c>
				break;

			memcpy(buff, scratch, BLOCK_SIZE);
 8000588:	4620      	mov	r0, r4
 800058a:	f44f 7200 	mov.w	r2, #512	; 0x200
 800058e:	4669      	mov	r1, sp
 8000590:	f7ff fdfa 	bl	8000188 <memcpy>

			buff += BLOCK_SIZE;
 8000594:	f504 7400 	add.w	r4, r4, #512	; 0x200
		DRESULT res = RES_OK;
		DWORD scratch[BLOCK_SIZE / 4]; // Alignment assured, you'll need a sufficiently big stack

		while(count--)
		{
			res = disk_read(drv, (void *)scratch, sector++, 1);
 8000598:	4632      	mov	r2, r6
	if ((DWORD)buff & 3) // DMA Alignment failure, do single up to aligned buffer
	{
		DRESULT res = RES_OK;
		DWORD scratch[BLOCK_SIZE / 4]; // Alignment assured, you'll need a sufficiently big stack

		while(count--)
 800059a:	b2d3      	uxtb	r3, r2
 800059c:	429d      	cmp	r5, r3
 800059e:	d1ec      	bne.n	800057a <disk_read+0x22>
 80005a0:	2000      	movs	r0, #0
 80005a2:	e017      	b.n	80005d4 <disk_read+0x7c>
		}

		return(res);
	}

  Status = SD_ReadMultiBlocksFIXED(buff, sector, BLOCK_SIZE, count); // 4GB Compliant
 80005a4:	4620      	mov	r0, r4
 80005a6:	4631      	mov	r1, r6
 80005a8:	f44f 7200 	mov.w	r2, #512	; 0x200
 80005ac:	462b      	mov	r3, r5
 80005ae:	f002 f8f5 	bl	800279c <SD_ReadMultiBlocksFIXED>

	if (Status == SD_OK)
 80005b2:	b108      	cbz	r0, 80005b8 <disk_read+0x60>
			return(RES_ERROR);
		else
			return(RES_OK);
	}
	else
		return(RES_ERROR);
 80005b4:	2001      	movs	r0, #1
 80005b6:	e00d      	b.n	80005d4 <disk_read+0x7c>

	if (Status == SD_OK)
	{
		SDTransferState State;

		Status = SD_WaitReadOperation(); // Check if the Transfer is finished
 80005b8:	f002 fa4a 	bl	8002a50 <SD_WaitReadOperation>
 80005bc:	4604      	mov	r4, r0

		while((State = SD_GetStatus()) == SD_TRANSFER_BUSY); // BUSY, OK (DONE), ERROR (FAIL)
 80005be:	f002 fabd 	bl	8002b3c <SD_GetStatus>
 80005c2:	2801      	cmp	r0, #1
 80005c4:	d0fb      	beq.n	80005be <disk_read+0x66>

		if ((State == SD_TRANSFER_ERROR) || (Status != SD_OK))
 80005c6:	2802      	cmp	r0, #2
 80005c8:	d0f4      	beq.n	80005b4 <disk_read+0x5c>
	SD_Error Status;

//	printf("disk_read %d %p %10d %d\n",drv,buff,sector,count);

	if (SD_Detect() != SD_PRESENT)
		return(RES_NOTRDY);
 80005ca:	1c20      	adds	r0, r4, #0
 80005cc:	bf18      	it	ne
 80005ce:	2001      	movne	r0, #1
 80005d0:	e000      	b.n	80005d4 <disk_read+0x7c>
 80005d2:	2003      	movs	r0, #3
		else
			return(RES_OK);
	}
	else
		return(RES_ERROR);
}
 80005d4:	f50d 7d01 	add.w	sp, sp, #516	; 0x204
 80005d8:	bdf0      	pop	{r4, r5, r6, r7, pc}

080005da <disk_write>:
        BYTE drv,                       /* Physical drive nmuber (0..) */
        const BYTE *buff,       /* Data to be written */
        DWORD sector,           /* Sector address (LBA) */
        BYTE count                      /* Number of sectors to write (1..255) */
)
{
 80005da:	e92d 41f0 	stmdb	sp!, {r4, r5, r6, r7, r8, lr}
 80005de:	f5ad 7d00 	sub.w	sp, sp, #512	; 0x200
 80005e2:	4607      	mov	r7, r0
 80005e4:	460c      	mov	r4, r1
 80005e6:	4615      	mov	r5, r2
 80005e8:	461e      	mov	r6, r3
	SD_Error Status;

//	printf("disk_write %d %p %10d %d\n",drv,buff,sector,count);

	if (SD_Detect() != SD_PRESENT)
 80005ea:	f001 fd4f 	bl	800208c <SD_Detect>
 80005ee:	2801      	cmp	r0, #1
 80005f0:	d132      	bne.n	8000658 <disk_write+0x7e>
		return(RES_NOTRDY);

	if ((DWORD)buff & 3) // DMA Alignment failure, do single up to aligned buffer
 80005f2:	07a2      	lsls	r2, r4, #30
 80005f4:	d019      	beq.n	800062a <disk_write+0x50>

/*-----------------------------------------------------------------------*/
/* Write Sector(s)                                                       */

#if _READONLY == 0
DRESULT disk_write (
 80005f6:	1976      	adds	r6, r6, r5
	if ((DWORD)buff & 3) // DMA Alignment failure, do single up to aligned buffer
	{
		DRESULT res = RES_OK;
		DWORD scratch[BLOCK_SIZE / 4]; // Alignment assured, you'll need a sufficiently big stack

		while(count--)
 80005f8:	b2f6      	uxtb	r6, r6
 80005fa:	e011      	b.n	8000620 <disk_write+0x46>
		{
			memcpy(scratch, buff, BLOCK_SIZE);
 80005fc:	4621      	mov	r1, r4
 80005fe:	f44f 7200 	mov.w	r2, #512	; 0x200
 8000602:	4668      	mov	r0, sp
 8000604:	f7ff fdc0 	bl	8000188 <memcpy>

			res = disk_write(drv, (void *)scratch, sector++, 1);
 8000608:	4638      	mov	r0, r7
 800060a:	4669      	mov	r1, sp
 800060c:	462a      	mov	r2, r5
 800060e:	2301      	movs	r3, #1
 8000610:	f105 0801 	add.w	r8, r5, #1
 8000614:	f7ff ffe1 	bl	80005da <disk_write>

			if (res != RES_OK)
 8000618:	b9f8      	cbnz	r0, 800065a <disk_write+0x80>
				break;

			buff += BLOCK_SIZE;
 800061a:	f504 7400 	add.w	r4, r4, #512	; 0x200

		while(count--)
		{
			memcpy(scratch, buff, BLOCK_SIZE);

			res = disk_write(drv, (void *)scratch, sector++, 1);
 800061e:	4645      	mov	r5, r8
	if ((DWORD)buff & 3) // DMA Alignment failure, do single up to aligned buffer
	{
		DRESULT res = RES_OK;
		DWORD scratch[BLOCK_SIZE / 4]; // Alignment assured, you'll need a sufficiently big stack

		while(count--)
 8000620:	b2eb      	uxtb	r3, r5
 8000622:	429e      	cmp	r6, r3
 8000624:	d1ea      	bne.n	80005fc <disk_write+0x22>
 8000626:	2000      	movs	r0, #0
 8000628:	e017      	b.n	800065a <disk_write+0x80>
		}

		return(res);
	}

  Status = SD_WriteMultiBlocksFIXED((uint8_t *)buff, sector, BLOCK_SIZE, count); // 4GB Compliant
 800062a:	4620      	mov	r0, r4
 800062c:	4629      	mov	r1, r5
 800062e:	f44f 7200 	mov.w	r2, #512	; 0x200
 8000632:	4633      	mov	r3, r6
 8000634:	f002 f920 	bl	8002878 <SD_WriteMultiBlocksFIXED>

	if (Status == SD_OK)
 8000638:	b108      	cbz	r0, 800063e <disk_write+0x64>
			return(RES_ERROR);
		else
			return(RES_OK);
	}
	else
		return(RES_ERROR);
 800063a:	2001      	movs	r0, #1
 800063c:	e00d      	b.n	800065a <disk_write+0x80>

	if (Status == SD_OK)
	{
		SDTransferState State;

		Status = SD_WaitWriteOperation(); // Check if the Transfer is finished
 800063e:	f002 f9c7 	bl	80029d0 <SD_WaitWriteOperation>
 8000642:	4604      	mov	r4, r0

		while((State = SD_GetStatus()) == SD_TRANSFER_BUSY); // BUSY, OK (DONE), ERROR (FAIL)
 8000644:	f002 fa7a 	bl	8002b3c <SD_GetStatus>
 8000648:	2801      	cmp	r0, #1
 800064a:	d0fb      	beq.n	8000644 <disk_write+0x6a>

		if ((State == SD_TRANSFER_ERROR) || (Status != SD_OK))
 800064c:	2802      	cmp	r0, #2
 800064e:	d0f4      	beq.n	800063a <disk_write+0x60>
	SD_Error Status;

//	printf("disk_write %d %p %10d %d\n",drv,buff,sector,count);

	if (SD_Detect() != SD_PRESENT)
		return(RES_NOTRDY);
 8000650:	1c20      	adds	r0, r4, #0
 8000652:	bf18      	it	ne
 8000654:	2001      	movne	r0, #1
 8000656:	e000      	b.n	800065a <disk_write+0x80>
 8000658:	2003      	movs	r0, #3
		else
			return(RES_OK);
	}
	else
		return(RES_ERROR);
}
 800065a:	f50d 7d00 	add.w	sp, sp, #512	; 0x200
 800065e:	e8bd 81f0 	ldmia.w	sp!, {r4, r5, r6, r7, r8, pc}

08000662 <disk_ioctl>:
        BYTE ctrl,              /* Control code */
        void *buff              /* Buffer to send/receive control data */
)
{
        return RES_OK;
}
 8000662:	2000      	movs	r0, #0
 8000664:	4770      	bx	lr

08000666 <get_fattime>:
/*-----------------------------------------------------------------------*/
/* Get current time                                                      */
/*-----------------------------------------------------------------------*/
DWORD get_fattime(void){
        return 0;
}
 8000666:	2000      	movs	r0, #0
 8000668:	4770      	bx	lr

0800066a <mem_cpy>:
/* String functions                                                      */
/*-----------------------------------------------------------------------*/

/* Copy memory to memory */
static
void mem_cpy (void* dst, const void* src, UINT cnt) {
 800066a:	b510      	push	{r4, lr}
		*(int*)d = *(int*)s;
		d += sizeof(int); s += sizeof(int);
		cnt -= sizeof(int);
	}
#endif
	while (cnt--)
 800066c:	2300      	movs	r3, #0
 800066e:	e002      	b.n	8000676 <mem_cpy+0xc>
		*d++ = *s++;
 8000670:	5ccc      	ldrb	r4, [r1, r3]
 8000672:	54c4      	strb	r4, [r0, r3]
 8000674:	3301      	adds	r3, #1
		*(int*)d = *(int*)s;
		d += sizeof(int); s += sizeof(int);
		cnt -= sizeof(int);
	}
#endif
	while (cnt--)
 8000676:	4293      	cmp	r3, r2
 8000678:	d1fa      	bne.n	8000670 <mem_cpy+0x6>
		*d++ = *s++;
}
 800067a:	bd10      	pop	{r4, pc}

0800067c <get_fileinfo>:
	BYTE nt, *dir;
	TCHAR *p, c;


	p = fno->fname;
	if (dj->sect) {
 800067c:	6903      	ldr	r3, [r0, #16]
static
void get_fileinfo (		/* No return code */
	DIR *dj,			/* Pointer to the directory object */
	FILINFO *fno	 	/* Pointer to the file information to be filled */
)
{
 800067e:	b530      	push	{r4, r5, lr}
	UINT i;
	BYTE nt, *dir;
	TCHAR *p, c;


	p = fno->fname;
 8000680:	f101 0209 	add.w	r2, r1, #9
	if (dj->sect) {
 8000684:	2b00      	cmp	r3, #0
 8000686:	d037      	beq.n	80006f8 <get_fileinfo+0x7c>
		dir = dj->dir;
 8000688:	6943      	ldr	r3, [r0, #20]
		nt = dir[DIR_NTres];		/* NT flag */
		for (i = 0; i < 8; i++) {	/* Copy name body */
 800068a:	2500      	movs	r5, #0
 800068c:	4610      	mov	r0, r2
			c = dir[i];
 800068e:	5d5c      	ldrb	r4, [r3, r5]
			if (c == ' ') break;
 8000690:	2c20      	cmp	r4, #32
 8000692:	4602      	mov	r2, r0
 8000694:	d008      	beq.n	80006a8 <get_fileinfo+0x2c>
			if (c == NDDE) c = (TCHAR)DDE;
 8000696:	2c05      	cmp	r4, #5
 8000698:	bf08      	it	eq
 800069a:	24e5      	moveq	r4, #229	; 0xe5
			if (IsDBCS1(c) && i < 7 && IsDBCS2(dir[i+1]))
				c = (c << 8) | dir[++i];
			c = ff_convert(c, 1);
			if (!c) c = '?';
#endif
			*p++ = c;
 800069c:	f800 4b01 	strb.w	r4, [r0], #1

	p = fno->fname;
	if (dj->sect) {
		dir = dj->dir;
		nt = dir[DIR_NTres];		/* NT flag */
		for (i = 0; i < 8; i++) {	/* Copy name body */
 80006a0:	3501      	adds	r5, #1
 80006a2:	2d08      	cmp	r5, #8
			if (IsDBCS1(c) && i < 7 && IsDBCS2(dir[i+1]))
				c = (c << 8) | dir[++i];
			c = ff_convert(c, 1);
			if (!c) c = '?';
#endif
			*p++ = c;
 80006a4:	4602      	mov	r2, r0

	p = fno->fname;
	if (dj->sect) {
		dir = dj->dir;
		nt = dir[DIR_NTres];		/* NT flag */
		for (i = 0; i < 8; i++) {	/* Copy name body */
 80006a6:	d1f2      	bne.n	800068e <get_fileinfo+0x12>
			c = ff_convert(c, 1);
			if (!c) c = '?';
#endif
			*p++ = c;
		}
		if (dir[8] != ' ') {		/* Copy name extension */
 80006a8:	7a1c      	ldrb	r4, [r3, #8]
 80006aa:	2c20      	cmp	r4, #32
 80006ac:	d00d      	beq.n	80006ca <get_fileinfo+0x4e>
			*p++ = '.';
 80006ae:	222e      	movs	r2, #46	; 0x2e
 80006b0:	f800 2b01 	strb.w	r2, [r0], #1
			for (i = 8; i < 11; i++) {
 80006b4:	2408      	movs	r4, #8
				c = dir[i];
 80006b6:	5d1d      	ldrb	r5, [r3, r4]
				if (c == ' ') break;
 80006b8:	2d20      	cmp	r5, #32
 80006ba:	4602      	mov	r2, r0
 80006bc:	d005      	beq.n	80006ca <get_fileinfo+0x4e>
				if (IsDBCS1(c) && i < 10 && IsDBCS2(dir[i+1]))
					c = (c << 8) | dir[++i];
				c = ff_convert(c, 1);
				if (!c) c = '?';
#endif
				*p++ = c;
 80006be:	f800 5b01 	strb.w	r5, [r0], #1
#endif
			*p++ = c;
		}
		if (dir[8] != ' ') {		/* Copy name extension */
			*p++ = '.';
			for (i = 8; i < 11; i++) {
 80006c2:	3401      	adds	r4, #1
 80006c4:	2c0b      	cmp	r4, #11
				if (IsDBCS1(c) && i < 10 && IsDBCS2(dir[i+1]))
					c = (c << 8) | dir[++i];
				c = ff_convert(c, 1);
				if (!c) c = '?';
#endif
				*p++ = c;
 80006c6:	4602      	mov	r2, r0
#endif
			*p++ = c;
		}
		if (dir[8] != ' ') {		/* Copy name extension */
			*p++ = '.';
			for (i = 8; i < 11; i++) {
 80006c8:	d1f5      	bne.n	80006b6 <get_fileinfo+0x3a>
				if (!c) c = '?';
#endif
				*p++ = c;
			}
		}
		fno->fattrib = dir[DIR_Attr];				/* Attribute */
 80006ca:	7ad8      	ldrb	r0, [r3, #11]
 80006cc:	7208      	strb	r0, [r1, #8]
		fno->fsize = LD_DWORD(dir+DIR_FileSize);	/* Size */
 80006ce:	7f98      	ldrb	r0, [r3, #30]
 80006d0:	7fdc      	ldrb	r4, [r3, #31]
 80006d2:	0400      	lsls	r0, r0, #16
 80006d4:	ea40 6004 	orr.w	r0, r0, r4, lsl #24
 80006d8:	7f1c      	ldrb	r4, [r3, #28]
 80006da:	4320      	orrs	r0, r4
 80006dc:	7f5c      	ldrb	r4, [r3, #29]
 80006de:	ea40 2004 	orr.w	r0, r0, r4, lsl #8
 80006e2:	6008      	str	r0, [r1, #0]
		fno->fdate = LD_WORD(dir+DIR_WrtDate);		/* Date */
 80006e4:	7e5c      	ldrb	r4, [r3, #25]
 80006e6:	7e18      	ldrb	r0, [r3, #24]
 80006e8:	ea40 2004 	orr.w	r0, r0, r4, lsl #8
 80006ec:	8088      	strh	r0, [r1, #4]
		fno->ftime = LD_WORD(dir+DIR_WrtTime);		/* Time */
 80006ee:	7dd8      	ldrb	r0, [r3, #23]
 80006f0:	7d9b      	ldrb	r3, [r3, #22]
 80006f2:	ea43 2300 	orr.w	r3, r3, r0, lsl #8
 80006f6:	80cb      	strh	r3, [r1, #6]
	}
	*p = 0;		/* Terminate SFN str by a \0 */
 80006f8:	2300      	movs	r3, #0
 80006fa:	7013      	strb	r3, [r2, #0]
 80006fc:	bd30      	pop	{r4, r5, pc}

080006fe <move_window>:
static
FRESULT move_window (
	FATFS *fs,		/* File system object */
	DWORD sector	/* Sector number to make appearance in the fs->win[] */
)					/* Move to zero only writes back dirty window */
{
 80006fe:	e92d 41f0 	stmdb	sp!, {r4, r5, r6, r7, r8, lr}
	DWORD wsect;


	wsect = fs->winsect;
 8000702:	6ac5      	ldr	r5, [r0, #44]	; 0x2c
	if (wsect != sector) {	/* Changed current window */
 8000704:	428d      	cmp	r5, r1
static
FRESULT move_window (
	FATFS *fs,		/* File system object */
	DWORD sector	/* Sector number to make appearance in the fs->win[] */
)					/* Move to zero only writes back dirty window */
{
 8000706:	4604      	mov	r4, r0
 8000708:	460e      	mov	r6, r1
	DWORD wsect;


	wsect = fs->winsect;
	if (wsect != sector) {	/* Changed current window */
 800070a:	d102      	bne.n	8000712 <move_window+0x14>
				return FR_DISK_ERR;
			fs->winsect = sector;
		}
	}

	return FR_OK;
 800070c:	2000      	movs	r0, #0
 800070e:	e8bd 81f0 	ldmia.w	sp!, {r4, r5, r6, r7, r8, pc}


	wsect = fs->winsect;
	if (wsect != sector) {	/* Changed current window */
#if !_FS_READONLY
		if (fs->wflag) {	/* Write back dirty window if needed */
 8000712:	7903      	ldrb	r3, [r0, #4]
 8000714:	b913      	cbnz	r3, 800071c <move_window+0x1e>
					disk_write(fs->drv, fs->win, wsect, 1);
				}
			}
		}
#endif
		if (sector) {
 8000716:	2e00      	cmp	r6, #0
 8000718:	d0f8      	beq.n	800070c <move_window+0xe>
 800071a:	e020      	b.n	800075e <move_window+0x60>

	wsect = fs->winsect;
	if (wsect != sector) {	/* Changed current window */
#if !_FS_READONLY
		if (fs->wflag) {	/* Write back dirty window if needed */
			if (disk_write(fs->drv, fs->win, wsect, 1) != RES_OK)
 800071c:	f100 0830 	add.w	r8, r0, #48	; 0x30
 8000720:	4641      	mov	r1, r8
 8000722:	7840      	ldrb	r0, [r0, #1]
 8000724:	462a      	mov	r2, r5
 8000726:	2301      	movs	r3, #1
 8000728:	f7ff ff57 	bl	80005da <disk_write>
 800072c:	b110      	cbz	r0, 8000734 <move_window+0x36>
				return FR_DISK_ERR;
 800072e:	2001      	movs	r0, #1
 8000730:	e8bd 81f0 	ldmia.w	sp!, {r4, r5, r6, r7, r8, pc}
			fs->wflag = 0;
			if (wsect < (fs->fatbase + fs->fsize)) {	/* In FAT area */
 8000734:	69e2      	ldr	r2, [r4, #28]
 8000736:	6a23      	ldr	r3, [r4, #32]
	if (wsect != sector) {	/* Changed current window */
#if !_FS_READONLY
		if (fs->wflag) {	/* Write back dirty window if needed */
			if (disk_write(fs->drv, fs->win, wsect, 1) != RES_OK)
				return FR_DISK_ERR;
			fs->wflag = 0;
 8000738:	7120      	strb	r0, [r4, #4]
			if (wsect < (fs->fatbase + fs->fsize)) {	/* In FAT area */
 800073a:	18d3      	adds	r3, r2, r3
 800073c:	429d      	cmp	r5, r3
 800073e:	d2ea      	bcs.n	8000716 <move_window+0x18>
				BYTE nf;
				for (nf = fs->n_fats; nf > 1; nf--) {	/* Reflect the change to all FAT copies */
 8000740:	78e7      	ldrb	r7, [r4, #3]
 8000742:	e009      	b.n	8000758 <move_window+0x5a>
					wsect += fs->fsize;
 8000744:	69e3      	ldr	r3, [r4, #28]
					disk_write(fs->drv, fs->win, wsect, 1);
 8000746:	7860      	ldrb	r0, [r4, #1]
				return FR_DISK_ERR;
			fs->wflag = 0;
			if (wsect < (fs->fatbase + fs->fsize)) {	/* In FAT area */
				BYTE nf;
				for (nf = fs->n_fats; nf > 1; nf--) {	/* Reflect the change to all FAT copies */
					wsect += fs->fsize;
 8000748:	18ed      	adds	r5, r5, r3
					disk_write(fs->drv, fs->win, wsect, 1);
 800074a:	4641      	mov	r1, r8
 800074c:	462a      	mov	r2, r5
 800074e:	2301      	movs	r3, #1
 8000750:	f7ff ff43 	bl	80005da <disk_write>
			if (disk_write(fs->drv, fs->win, wsect, 1) != RES_OK)
				return FR_DISK_ERR;
			fs->wflag = 0;
			if (wsect < (fs->fatbase + fs->fsize)) {	/* In FAT area */
				BYTE nf;
				for (nf = fs->n_fats; nf > 1; nf--) {	/* Reflect the change to all FAT copies */
 8000754:	3f01      	subs	r7, #1
 8000756:	b2ff      	uxtb	r7, r7
 8000758:	2f01      	cmp	r7, #1
 800075a:	d8f3      	bhi.n	8000744 <move_window+0x46>
 800075c:	e7db      	b.n	8000716 <move_window+0x18>
				}
			}
		}
#endif
		if (sector) {
			if (disk_read(fs->drv, fs->win, sector, 1) != RES_OK)
 800075e:	7860      	ldrb	r0, [r4, #1]
 8000760:	f104 0130 	add.w	r1, r4, #48	; 0x30
 8000764:	4632      	mov	r2, r6
 8000766:	2301      	movs	r3, #1
 8000768:	f7ff fef6 	bl	8000558 <disk_read>
 800076c:	2800      	cmp	r0, #0
 800076e:	d1de      	bne.n	800072e <move_window+0x30>
				return FR_DISK_ERR;
			fs->winsect = sector;
 8000770:	62e6      	str	r6, [r4, #44]	; 0x2c
		}
	}

	return FR_OK;
}
 8000772:	e8bd 81f0 	ldmia.w	sp!, {r4, r5, r6, r7, r8, pc}

08000776 <sync>:
#if !_FS_READONLY
static
FRESULT sync (	/* FR_OK: successful, FR_DISK_ERR: failed */
	FATFS *fs	/* File system object */
)
{
 8000776:	b510      	push	{r4, lr}
	FRESULT res;


	res = move_window(fs, 0);
 8000778:	2100      	movs	r1, #0
#if !_FS_READONLY
static
FRESULT sync (	/* FR_OK: successful, FR_DISK_ERR: failed */
	FATFS *fs	/* File system object */
)
{
 800077a:	4604      	mov	r4, r0
	FRESULT res;


	res = move_window(fs, 0);
 800077c:	f7ff ffbf 	bl	80006fe <move_window>
 8000780:	4603      	mov	r3, r0
	if (res == FR_OK) {
 8000782:	2800      	cmp	r0, #0
 8000784:	d151      	bne.n	800082a <sync+0xb4>
		/* Update FSInfo sector if needed */
		if (fs->fs_type == FS_FAT32 && fs->fsi_flag) {
 8000786:	7823      	ldrb	r3, [r4, #0]
 8000788:	2b03      	cmp	r3, #3
 800078a:	d146      	bne.n	800081a <sync+0xa4>
 800078c:	7963      	ldrb	r3, [r4, #5]
 800078e:	2b00      	cmp	r3, #0
 8000790:	d043      	beq.n	800081a <sync+0xa4>
			fs->winsect = 0;
 8000792:	62e0      	str	r0, [r4, #44]	; 0x2c
			/* Create FSInfo structure */
			mem_set(fs->win, 0, 512);
 8000794:	f104 0130 	add.w	r1, r4, #48	; 0x30
static
void mem_set (void* dst, int val, UINT cnt) {
	BYTE *d = (BYTE*)dst;

	while (cnt--)
		*d++ = (BYTE)val;
 8000798:	4603      	mov	r3, r0
 800079a:	540b      	strb	r3, [r1, r0]
 800079c:	3001      	adds	r0, #1
/* Fill memory */
static
void mem_set (void* dst, int val, UINT cnt) {
	BYTE *d = (BYTE*)dst;

	while (cnt--)
 800079e:	f5b0 7f00 	cmp.w	r0, #512	; 0x200
 80007a2:	d1fa      	bne.n	800079a <sync+0x24>
		/* Update FSInfo sector if needed */
		if (fs->fs_type == FS_FAT32 && fs->fsi_flag) {
			fs->winsect = 0;
			/* Create FSInfo structure */
			mem_set(fs->win, 0, 512);
			ST_WORD(fs->win+BS_55AA, 0xAA55);
 80007a4:	2355      	movs	r3, #85	; 0x55
 80007a6:	f884 322e 	strb.w	r3, [r4, #558]	; 0x22e
 80007aa:	23aa      	movs	r3, #170	; 0xaa
 80007ac:	f884 322f 	strb.w	r3, [r4, #559]	; 0x22f
			ST_DWORD(fs->win+FSI_LeadSig, 0x41615252);
 80007b0:	2352      	movs	r3, #82	; 0x52
 80007b2:	f884 3030 	strb.w	r3, [r4, #48]	; 0x30
 80007b6:	f884 3031 	strb.w	r3, [r4, #49]	; 0x31
 80007ba:	2361      	movs	r3, #97	; 0x61
 80007bc:	f884 3032 	strb.w	r3, [r4, #50]	; 0x32
			ST_DWORD(fs->win+FSI_StrucSig, 0x61417272);
 80007c0:	f884 3217 	strb.w	r3, [r4, #535]	; 0x217
			ST_DWORD(fs->win+FSI_Free_Count, fs->free_clust);
 80007c4:	6923      	ldr	r3, [r4, #16]
		if (fs->fs_type == FS_FAT32 && fs->fsi_flag) {
			fs->winsect = 0;
			/* Create FSInfo structure */
			mem_set(fs->win, 0, 512);
			ST_WORD(fs->win+BS_55AA, 0xAA55);
			ST_DWORD(fs->win+FSI_LeadSig, 0x41615252);
 80007c6:	2241      	movs	r2, #65	; 0x41
 80007c8:	f884 2033 	strb.w	r2, [r4, #51]	; 0x33
			ST_DWORD(fs->win+FSI_StrucSig, 0x61417272);
 80007cc:	f884 2216 	strb.w	r2, [r4, #534]	; 0x216
			ST_DWORD(fs->win+FSI_Free_Count, fs->free_clust);
 80007d0:	f3c3 2207 	ubfx	r2, r3, #8, #8
 80007d4:	f884 3218 	strb.w	r3, [r4, #536]	; 0x218
 80007d8:	f884 2219 	strb.w	r2, [r4, #537]	; 0x219
 80007dc:	0c1a      	lsrs	r2, r3, #16
 80007de:	0e1b      	lsrs	r3, r3, #24
 80007e0:	f884 321b 	strb.w	r3, [r4, #539]	; 0x21b
			ST_DWORD(fs->win+FSI_Nxt_Free, fs->last_clust);
 80007e4:	68e3      	ldr	r3, [r4, #12]
			/* Create FSInfo structure */
			mem_set(fs->win, 0, 512);
			ST_WORD(fs->win+BS_55AA, 0xAA55);
			ST_DWORD(fs->win+FSI_LeadSig, 0x41615252);
			ST_DWORD(fs->win+FSI_StrucSig, 0x61417272);
			ST_DWORD(fs->win+FSI_Free_Count, fs->free_clust);
 80007e6:	f884 221a 	strb.w	r2, [r4, #538]	; 0x21a
			ST_DWORD(fs->win+FSI_Nxt_Free, fs->last_clust);
 80007ea:	f3c3 2207 	ubfx	r2, r3, #8, #8
			fs->winsect = 0;
			/* Create FSInfo structure */
			mem_set(fs->win, 0, 512);
			ST_WORD(fs->win+BS_55AA, 0xAA55);
			ST_DWORD(fs->win+FSI_LeadSig, 0x41615252);
			ST_DWORD(fs->win+FSI_StrucSig, 0x61417272);
 80007ee:	2072      	movs	r0, #114	; 0x72
			ST_DWORD(fs->win+FSI_Free_Count, fs->free_clust);
			ST_DWORD(fs->win+FSI_Nxt_Free, fs->last_clust);
 80007f0:	f884 321c 	strb.w	r3, [r4, #540]	; 0x21c
 80007f4:	f884 221d 	strb.w	r2, [r4, #541]	; 0x21d
 80007f8:	0c1a      	lsrs	r2, r3, #16
 80007fa:	0e1b      	lsrs	r3, r3, #24
			fs->winsect = 0;
			/* Create FSInfo structure */
			mem_set(fs->win, 0, 512);
			ST_WORD(fs->win+BS_55AA, 0xAA55);
			ST_DWORD(fs->win+FSI_LeadSig, 0x41615252);
			ST_DWORD(fs->win+FSI_StrucSig, 0x61417272);
 80007fc:	f884 0214 	strb.w	r0, [r4, #532]	; 0x214
 8000800:	f884 0215 	strb.w	r0, [r4, #533]	; 0x215
			ST_DWORD(fs->win+FSI_Free_Count, fs->free_clust);
			ST_DWORD(fs->win+FSI_Nxt_Free, fs->last_clust);
 8000804:	f884 221e 	strb.w	r2, [r4, #542]	; 0x21e
 8000808:	f884 321f 	strb.w	r3, [r4, #543]	; 0x21f
			/* Write it into the FSInfo sector */
			disk_write(fs->drv, fs->win, fs->fsi_sector, 1);
 800080c:	7860      	ldrb	r0, [r4, #1]
 800080e:	6962      	ldr	r2, [r4, #20]
 8000810:	2301      	movs	r3, #1
 8000812:	f7ff fee2 	bl	80005da <disk_write>
			fs->fsi_flag = 0;
 8000816:	2300      	movs	r3, #0
 8000818:	7163      	strb	r3, [r4, #5]
		}
		/* Make sure that no pending write process in the physical drive */
		if (disk_ioctl(fs->drv, CTRL_SYNC, 0) != RES_OK)
 800081a:	2100      	movs	r1, #0
 800081c:	7860      	ldrb	r0, [r4, #1]
 800081e:	460a      	mov	r2, r1
 8000820:	f7ff ff1f 	bl	8000662 <disk_ioctl>
 8000824:	1c03      	adds	r3, r0, #0
 8000826:	bf18      	it	ne
 8000828:	2301      	movne	r3, #1
			res = FR_DISK_ERR;
	}

	return res;
}
 800082a:	4618      	mov	r0, r3
 800082c:	bd10      	pop	{r4, pc}

0800082e <validate>:
static
FRESULT validate (	/* FR_OK(0): The object is valid, !=0: Invalid */
	FATFS *fs,		/* Pointer to the file system object */
	WORD id			/* Member id of the target object to be checked */
)
{
 800082e:	b508      	push	{r3, lr}
	if (!fs || !fs->fs_type || fs->id != id)
 8000830:	b168      	cbz	r0, 800084e <validate+0x20>
 8000832:	7803      	ldrb	r3, [r0, #0]
 8000834:	b15b      	cbz	r3, 800084e <validate+0x20>
 8000836:	88c3      	ldrh	r3, [r0, #6]
 8000838:	428b      	cmp	r3, r1
 800083a:	d108      	bne.n	800084e <validate+0x20>
		return FR_INVALID_OBJECT;

	ENTER_FF(fs);		/* Lock file system */

	if (disk_status(fs->drv) & STA_NOINIT)
 800083c:	7840      	ldrb	r0, [r0, #1]
 800083e:	f7ff fe83 	bl	8000548 <disk_status>
 8000842:	f010 0f01 	tst.w	r0, #1
		return FR_NOT_READY;
 8000846:	bf0c      	ite	eq
 8000848:	2000      	moveq	r0, #0
 800084a:	2003      	movne	r0, #3
 800084c:	bd08      	pop	{r3, pc}
	FATFS *fs,		/* Pointer to the file system object */
	WORD id			/* Member id of the target object to be checked */
)
{
	if (!fs || !fs->fs_type || fs->id != id)
		return FR_INVALID_OBJECT;
 800084e:	2009      	movs	r0, #9

	if (disk_status(fs->drv) & STA_NOINIT)
		return FR_NOT_READY;

	return FR_OK;
}
 8000850:	bd08      	pop	{r3, pc}
	...

08000854 <check_fs>:
static
BYTE check_fs (	/* 0:FAT-VBR, 1:Valid BR but not FAT, 2:Not a BR, 3:Disk error */
	FATFS *fs,	/* File system object */
	DWORD sect	/* Sector# (lba) to check if it is an FAT boot record or not */
)
{
 8000854:	b510      	push	{r4, lr}
 8000856:	4604      	mov	r4, r0
 8000858:	460a      	mov	r2, r1
	if (disk_read(fs->drv, fs->win, sect, 1) != RES_OK)	/* Load boot record */
 800085a:	7840      	ldrb	r0, [r0, #1]
 800085c:	f104 0130 	add.w	r1, r4, #48	; 0x30
 8000860:	2301      	movs	r3, #1
 8000862:	f7ff fe79 	bl	8000558 <disk_read>
 8000866:	bb80      	cbnz	r0, 80008ca <check_fs+0x76>
		return 3;
	if (LD_WORD(&fs->win[BS_55AA]) != 0xAA55)		/* Check record signature (always placed at offset 510 even if the sector size is >512) */
 8000868:	f894 322e 	ldrb.w	r3, [r4, #558]	; 0x22e
 800086c:	f894 222f 	ldrb.w	r2, [r4, #559]	; 0x22f
 8000870:	ea43 2202 	orr.w	r2, r3, r2, lsl #8
 8000874:	4b17      	ldr	r3, [pc, #92]	; (80008d4 <check_fs+0x80>)
 8000876:	b212      	sxth	r2, r2
 8000878:	429a      	cmp	r2, r3
 800087a:	d128      	bne.n	80008ce <check_fs+0x7a>
		return 2;

	if ((LD_DWORD(&fs->win[BS_FilSysType]) & 0xFFFFFF) == 0x544146)	/* Check "FAT" string */
 800087c:	f894 2068 	ldrb.w	r2, [r4, #104]	; 0x68
 8000880:	f894 3069 	ldrb.w	r3, [r4, #105]	; 0x69
 8000884:	0412      	lsls	r2, r2, #16
 8000886:	ea42 6203 	orr.w	r2, r2, r3, lsl #24
 800088a:	f894 3066 	ldrb.w	r3, [r4, #102]	; 0x66
 800088e:	431a      	orrs	r2, r3
 8000890:	f894 3067 	ldrb.w	r3, [r4, #103]	; 0x67
 8000894:	ea42 2203 	orr.w	r2, r2, r3, lsl #8
 8000898:	4b0f      	ldr	r3, [pc, #60]	; (80008d8 <check_fs+0x84>)
 800089a:	f022 427f 	bic.w	r2, r2, #4278190080	; 0xff000000
 800089e:	429a      	cmp	r2, r3
 80008a0:	d016      	beq.n	80008d0 <check_fs+0x7c>
		return 0;
	if ((LD_DWORD(&fs->win[BS_FilSysType32]) & 0xFFFFFF) == 0x544146)
 80008a2:	f894 0084 	ldrb.w	r0, [r4, #132]	; 0x84
 80008a6:	f894 2085 	ldrb.w	r2, [r4, #133]	; 0x85
 80008aa:	0400      	lsls	r0, r0, #16
 80008ac:	ea40 6002 	orr.w	r0, r0, r2, lsl #24
 80008b0:	f894 2082 	ldrb.w	r2, [r4, #130]	; 0x82
 80008b4:	4310      	orrs	r0, r2
 80008b6:	f894 2083 	ldrb.w	r2, [r4, #131]	; 0x83
 80008ba:	ea40 2002 	orr.w	r0, r0, r2, lsl #8
 80008be:	f020 407f 	bic.w	r0, r0, #4278190080	; 0xff000000
		return 0;
 80008c2:	1ac0      	subs	r0, r0, r3
 80008c4:	bf18      	it	ne
 80008c6:	2001      	movne	r0, #1
 80008c8:	bd10      	pop	{r4, pc}
	FATFS *fs,	/* File system object */
	DWORD sect	/* Sector# (lba) to check if it is an FAT boot record or not */
)
{
	if (disk_read(fs->drv, fs->win, sect, 1) != RES_OK)	/* Load boot record */
		return 3;
 80008ca:	2003      	movs	r0, #3
 80008cc:	bd10      	pop	{r4, pc}
	if (LD_WORD(&fs->win[BS_55AA]) != 0xAA55)		/* Check record signature (always placed at offset 510 even if the sector size is >512) */
		return 2;
 80008ce:	2002      	movs	r0, #2
		return 0;
	if ((LD_DWORD(&fs->win[BS_FilSysType32]) & 0xFFFFFF) == 0x544146)
		return 0;

	return 1;
}
 80008d0:	bd10      	pop	{r4, pc}
 80008d2:	bf00      	nop
 80008d4:	ffffaa55 	.word	0xffffaa55
 80008d8:	00544146 	.word	0x00544146

080008dc <chk_mounted>:
FRESULT chk_mounted (	/* FR_OK(0): successful, !=0: any error occurred */
	const TCHAR **path,	/* Pointer to pointer to the path name (drive number) */
	FATFS **rfs,		/* Pointer to pointer to the found file system object */
	BYTE chk_wp			/* !=0: Check media write protection for write access */
)
{
 80008dc:	e92d 41f0 	stmdb	sp!, {r4, r5, r6, r7, r8, lr}
	BYTE fmt, b, pi, *tbl;
	UINT vol;
	DSTATUS stat;
	DWORD bsect, fasize, tsect, sysect, nclst, szbfat;
	WORD nrsv;
	const TCHAR *p = *path;
 80008e0:	6803      	ldr	r3, [r0, #0]
FRESULT chk_mounted (	/* FR_OK(0): successful, !=0: any error occurred */
	const TCHAR **path,	/* Pointer to pointer to the path name (drive number) */
	FATFS **rfs,		/* Pointer to pointer to the found file system object */
	BYTE chk_wp			/* !=0: Check media write protection for write access */
)
{
 80008e2:	4615      	mov	r5, r2
	WORD nrsv;
	const TCHAR *p = *path;
	FATFS *fs;

	/* Get logical drive number from the path name */
	vol = p[0] - '0';					/* Is there a drive number? */
 80008e4:	781a      	ldrb	r2, [r3, #0]
 80008e6:	3a30      	subs	r2, #48	; 0x30
	if (vol <= 9 && p[1] == ':') {		/* Found a drive number, get and strip it */
 80008e8:	2a09      	cmp	r2, #9
 80008ea:	d904      	bls.n	80008f6 <chk_mounted+0x1a>
	}

	/* Check if the file system object is valid or not */
	if (vol >= _VOLUMES) 				/* Is the drive number valid? */
		return FR_INVALID_DRIVE;
	*rfs = fs = FatFs[vol];				/* Return pointer to the corresponding file system object */
 80008ec:	4bb8      	ldr	r3, [pc, #736]	; (8000bd0 <chk_mounted+0x2f4>)
 80008ee:	681c      	ldr	r4, [r3, #0]
 80008f0:	600c      	str	r4, [r1, #0]
	if (!fs) return FR_NOT_ENABLED;		/* Is the file system object available? */
 80008f2:	b94c      	cbnz	r4, 8000908 <chk_mounted+0x2c>
 80008f4:	e159      	b.n	8000baa <chk_mounted+0x2ce>
	const TCHAR *p = *path;
	FATFS *fs;

	/* Get logical drive number from the path name */
	vol = p[0] - '0';					/* Is there a drive number? */
	if (vol <= 9 && p[1] == ':') {		/* Found a drive number, get and strip it */
 80008f6:	785c      	ldrb	r4, [r3, #1]
 80008f8:	2c3a      	cmp	r4, #58	; 0x3a
 80008fa:	d1f7      	bne.n	80008ec <chk_mounted+0x10>
		p += 2; *path = p;				/* Return pointer to the path name */
 80008fc:	3302      	adds	r3, #2
 80008fe:	6003      	str	r3, [r0, #0]
		vol = 0;						/* Use drive 0 */
#endif
	}

	/* Check if the file system object is valid or not */
	if (vol >= _VOLUMES) 				/* Is the drive number valid? */
 8000900:	2a00      	cmp	r2, #0
 8000902:	f040 8155 	bne.w	8000bb0 <chk_mounted+0x2d4>
 8000906:	e7f1      	b.n	80008ec <chk_mounted+0x10>
	*rfs = fs = FatFs[vol];				/* Return pointer to the corresponding file system object */
	if (!fs) return FR_NOT_ENABLED;		/* Is the file system object available? */

	ENTER_FF(fs);						/* Lock file system */

	if (fs->fs_type) {					/* If the logical drive has been mounted */
 8000908:	7823      	ldrb	r3, [r4, #0]
 800090a:	b183      	cbz	r3, 800092e <chk_mounted+0x52>
		stat = disk_status(fs->drv);
 800090c:	7860      	ldrb	r0, [r4, #1]
 800090e:	f7ff fe1b 	bl	8000548 <disk_status>
		if (!(stat & STA_NOINIT)) {		/* and the physical drive is kept initialized (has not been changed), */
 8000912:	07c1      	lsls	r1, r0, #31
 8000914:	d40b      	bmi.n	800092e <chk_mounted+0x52>
			if (!_FS_READONLY && chk_wp && (stat & STA_PROTECT))	/* Check write protection if needed */
 8000916:	2d00      	cmp	r5, #0
 8000918:	f000 814d 	beq.w	8000bb6 <chk_mounted+0x2da>
 800091c:	f000 0004 	and.w	r0, r0, #4
 8000920:	b2c0      	uxtb	r0, r0
				return FR_WRITE_PROTECTED;
 8000922:	2800      	cmp	r0, #0
 8000924:	bf14      	ite	ne
 8000926:	200a      	movne	r0, #10
 8000928:	2000      	moveq	r0, #0
 800092a:	e8bd 81f0 	ldmia.w	sp!, {r4, r5, r6, r7, r8, pc}
	}

	/* The file system object is not valid. */
	/* Following code attempts to mount the volume. (analyze BPB and initialize the fs object) */

	fs->fs_type = 0;					/* Clear the file system object */
 800092e:	2000      	movs	r0, #0
 8000930:	7020      	strb	r0, [r4, #0]
	fs->drv = LD2PD(vol);				/* Bind the logical drive and a physical drive */
 8000932:	7060      	strb	r0, [r4, #1]
	stat = disk_initialize(fs->drv);	/* Initialize low level disk I/O layer */
 8000934:	f7ff fdfe 	bl	8000534 <disk_initialize>
	if (stat & STA_NOINIT)				/* Check if the initialization succeeded */
 8000938:	07c2      	lsls	r2, r0, #31
 800093a:	f100 813f 	bmi.w	8000bbc <chk_mounted+0x2e0>
		return FR_NOT_READY;			/* Failed to initialize due to no media or hard error */
	if (!_FS_READONLY && chk_wp && (stat & STA_PROTECT))	/* Check disk write protection if needed */
 800093e:	b12d      	cbz	r5, 800094c <chk_mounted+0x70>
 8000940:	f000 0004 	and.w	r0, r0, #4
 8000944:	b2c0      	uxtb	r0, r0
 8000946:	2800      	cmp	r0, #0
 8000948:	f040 813b 	bne.w	8000bc2 <chk_mounted+0x2e6>
#if _MAX_SS != 512						/* Get disk sector size (variable sector size cfg only) */
	if (disk_ioctl(fs->drv, GET_SECTOR_SIZE, &fs->ssize) != RES_OK)
		return FR_DISK_ERR;
#endif
	/* Search FAT partition on the drive. Supports only generic partitionings, FDISK and SFD. */
	fmt = check_fs(fs, bsect = 0);		/* Load sector 0 and check if it is an FAT-VBR (in SFD) */
 800094c:	2100      	movs	r1, #0
 800094e:	4620      	mov	r0, r4
 8000950:	f7ff ff80 	bl	8000854 <check_fs>
	if (LD2PT(vol) && !fmt) fmt = 1;	/* Force non-SFD if the volume is forced partition */
	if (fmt == 1) {						/* Not an FAT-VBR, the physical drive can be partitioned */
 8000954:	2801      	cmp	r0, #1
 8000956:	d118      	bne.n	800098a <chk_mounted+0xae>
		/* Check the partition listed in the partition table */
		pi = LD2PT(vol);
		if (pi) pi--;
		tbl = &fs->win[MBR_Table + pi * SZ_PTE];/* Partition table */
		if (tbl[4]) {						/* Is the partition existing? */
 8000958:	f894 31f2 	ldrb.w	r3, [r4, #498]	; 0x1f2
 800095c:	b913      	cbnz	r3, 8000964 <chk_mounted+0x88>
			bsect = LD_DWORD(&tbl[8]);		/* Partition offset in LBA */
			fmt = check_fs(fs, bsect);		/* Check the partition */
		}
	}
	if (fmt == 3) return FR_DISK_ERR;
	if (fmt) return FR_NO_FILESYSTEM;		/* No FAT volume is found */
 800095e:	200d      	movs	r0, #13
 8000960:	e8bd 81f0 	ldmia.w	sp!, {r4, r5, r6, r7, r8, pc}
		/* Check the partition listed in the partition table */
		pi = LD2PT(vol);
		if (pi) pi--;
		tbl = &fs->win[MBR_Table + pi * SZ_PTE];/* Partition table */
		if (tbl[4]) {						/* Is the partition existing? */
			bsect = LD_DWORD(&tbl[8]);		/* Partition offset in LBA */
 8000964:	f894 61f8 	ldrb.w	r6, [r4, #504]	; 0x1f8
 8000968:	f894 31f9 	ldrb.w	r3, [r4, #505]	; 0x1f9
 800096c:	0436      	lsls	r6, r6, #16
 800096e:	ea46 6603 	orr.w	r6, r6, r3, lsl #24
 8000972:	f894 31f6 	ldrb.w	r3, [r4, #502]	; 0x1f6
 8000976:	431e      	orrs	r6, r3
 8000978:	f894 31f7 	ldrb.w	r3, [r4, #503]	; 0x1f7
 800097c:	ea46 2603 	orr.w	r6, r6, r3, lsl #8
			fmt = check_fs(fs, bsect);		/* Check the partition */
 8000980:	4620      	mov	r0, r4
 8000982:	4631      	mov	r1, r6
 8000984:	f7ff ff66 	bl	8000854 <check_fs>
 8000988:	e000      	b.n	800098c <chk_mounted+0xb0>
#if _MAX_SS != 512						/* Get disk sector size (variable sector size cfg only) */
	if (disk_ioctl(fs->drv, GET_SECTOR_SIZE, &fs->ssize) != RES_OK)
		return FR_DISK_ERR;
#endif
	/* Search FAT partition on the drive. Supports only generic partitionings, FDISK and SFD. */
	fmt = check_fs(fs, bsect = 0);		/* Load sector 0 and check if it is an FAT-VBR (in SFD) */
 800098a:	2600      	movs	r6, #0
		if (tbl[4]) {						/* Is the partition existing? */
			bsect = LD_DWORD(&tbl[8]);		/* Partition offset in LBA */
			fmt = check_fs(fs, bsect);		/* Check the partition */
		}
	}
	if (fmt == 3) return FR_DISK_ERR;
 800098c:	2803      	cmp	r0, #3
 800098e:	f000 811b 	beq.w	8000bc8 <chk_mounted+0x2ec>
	if (fmt) return FR_NO_FILESYSTEM;		/* No FAT volume is found */
 8000992:	2800      	cmp	r0, #0
 8000994:	d1e3      	bne.n	800095e <chk_mounted+0x82>

	/* An FAT volume is found. Following code initializes the file system object */

	if (LD_WORD(fs->win+BPB_BytsPerSec) != SS(fs))		/* (BPB_BytsPerSec must be equal to the physical sector size) */
 8000996:	f894 203c 	ldrb.w	r2, [r4, #60]	; 0x3c
 800099a:	f894 303b 	ldrb.w	r3, [r4, #59]	; 0x3b
 800099e:	ea43 2302 	orr.w	r3, r3, r2, lsl #8
 80009a2:	f5b3 7f00 	cmp.w	r3, #512	; 0x200
 80009a6:	d1da      	bne.n	800095e <chk_mounted+0x82>
		return FR_NO_FILESYSTEM;

	fasize = LD_WORD(fs->win+BPB_FATSz16);				/* Number of sectors per FAT */
 80009a8:	f894 1047 	ldrb.w	r1, [r4, #71]	; 0x47
 80009ac:	f894 3046 	ldrb.w	r3, [r4, #70]	; 0x46
	if (!fasize) fasize = LD_DWORD(fs->win+BPB_FATSz32);
 80009b0:	ea53 2101 	orrs.w	r1, r3, r1, lsl #8
 80009b4:	d10d      	bne.n	80009d2 <chk_mounted+0xf6>
 80009b6:	f894 1056 	ldrb.w	r1, [r4, #86]	; 0x56
 80009ba:	f894 3057 	ldrb.w	r3, [r4, #87]	; 0x57
 80009be:	0409      	lsls	r1, r1, #16
 80009c0:	ea41 6103 	orr.w	r1, r1, r3, lsl #24
 80009c4:	f894 3054 	ldrb.w	r3, [r4, #84]	; 0x54
 80009c8:	4319      	orrs	r1, r3
 80009ca:	f894 3055 	ldrb.w	r3, [r4, #85]	; 0x55
 80009ce:	ea41 2103 	orr.w	r1, r1, r3, lsl #8
	fs->fsize = fasize;

	fs->n_fats = b = fs->win[BPB_NumFATs];				/* Number of FAT copies */
 80009d2:	f894 5040 	ldrb.w	r5, [r4, #64]	; 0x40
	if (LD_WORD(fs->win+BPB_BytsPerSec) != SS(fs))		/* (BPB_BytsPerSec must be equal to the physical sector size) */
		return FR_NO_FILESYSTEM;

	fasize = LD_WORD(fs->win+BPB_FATSz16);				/* Number of sectors per FAT */
	if (!fasize) fasize = LD_DWORD(fs->win+BPB_FATSz32);
	fs->fsize = fasize;
 80009d6:	61e1      	str	r1, [r4, #28]

	fs->n_fats = b = fs->win[BPB_NumFATs];				/* Number of FAT copies */
	if (b != 1 && b != 2) return FR_NO_FILESYSTEM;		/* (Must be 1 or 2) */
 80009d8:	1e6b      	subs	r3, r5, #1
 80009da:	2b01      	cmp	r3, #1

	fasize = LD_WORD(fs->win+BPB_FATSz16);				/* Number of sectors per FAT */
	if (!fasize) fasize = LD_DWORD(fs->win+BPB_FATSz32);
	fs->fsize = fasize;

	fs->n_fats = b = fs->win[BPB_NumFATs];				/* Number of FAT copies */
 80009dc:	70e5      	strb	r5, [r4, #3]
	if (b != 1 && b != 2) return FR_NO_FILESYSTEM;		/* (Must be 1 or 2) */
 80009de:	d8be      	bhi.n	800095e <chk_mounted+0x82>
	fasize *= b;										/* Number of sectors for FAT area */

	fs->csize = b = fs->win[BPB_SecPerClus];			/* Number of sectors per cluster */
 80009e0:	f894 203d 	ldrb.w	r2, [r4, #61]	; 0x3d
 80009e4:	70a2      	strb	r2, [r4, #2]
	if (!b || (b & (b - 1))) return FR_NO_FILESYSTEM;	/* (Must be power of 2) */
 80009e6:	2a00      	cmp	r2, #0
 80009e8:	d0b9      	beq.n	800095e <chk_mounted+0x82>
 80009ea:	1e53      	subs	r3, r2, #1
 80009ec:	4213      	tst	r3, r2
 80009ee:	d1b6      	bne.n	800095e <chk_mounted+0x82>

	fs->n_rootdir = LD_WORD(fs->win+BPB_RootEntCnt);	/* Number of root directory entries */
 80009f0:	f894 0042 	ldrb.w	r0, [r4, #66]	; 0x42
 80009f4:	f894 3041 	ldrb.w	r3, [r4, #65]	; 0x41
 80009f8:	ea43 2300 	orr.w	r3, r3, r0, lsl #8
 80009fc:	b298      	uxth	r0, r3
	if (fs->n_rootdir % (SS(fs) / SZ_DIR)) return FR_NO_FILESYSTEM;	/* (BPB_RootEntCnt must be sector aligned) */
 80009fe:	071b      	lsls	r3, r3, #28
	fasize *= b;										/* Number of sectors for FAT area */

	fs->csize = b = fs->win[BPB_SecPerClus];			/* Number of sectors per cluster */
	if (!b || (b & (b - 1))) return FR_NO_FILESYSTEM;	/* (Must be power of 2) */

	fs->n_rootdir = LD_WORD(fs->win+BPB_RootEntCnt);	/* Number of root directory entries */
 8000a00:	8120      	strh	r0, [r4, #8]
	if (fs->n_rootdir % (SS(fs) / SZ_DIR)) return FR_NO_FILESYSTEM;	/* (BPB_RootEntCnt must be sector aligned) */
 8000a02:	d1ac      	bne.n	800095e <chk_mounted+0x82>

	tsect = LD_WORD(fs->win+BPB_TotSec16);				/* Number of sectors on the volume */
 8000a04:	f894 7044 	ldrb.w	r7, [r4, #68]	; 0x44
 8000a08:	f894 3043 	ldrb.w	r3, [r4, #67]	; 0x43
	if (!tsect) tsect = LD_DWORD(fs->win+BPB_TotSec32);
 8000a0c:	ea53 2307 	orrs.w	r3, r3, r7, lsl #8
 8000a10:	d10d      	bne.n	8000a2e <chk_mounted+0x152>
 8000a12:	f894 3052 	ldrb.w	r3, [r4, #82]	; 0x52
 8000a16:	f894 7053 	ldrb.w	r7, [r4, #83]	; 0x53
 8000a1a:	041b      	lsls	r3, r3, #16
 8000a1c:	ea43 6307 	orr.w	r3, r3, r7, lsl #24
 8000a20:	f894 7050 	ldrb.w	r7, [r4, #80]	; 0x50
 8000a24:	433b      	orrs	r3, r7
 8000a26:	f894 7051 	ldrb.w	r7, [r4, #81]	; 0x51
 8000a2a:	ea43 2307 	orr.w	r3, r3, r7, lsl #8

	nrsv = LD_WORD(fs->win+BPB_RsvdSecCnt);				/* Number of reserved sectors */
 8000a2e:	f894 803f 	ldrb.w	r8, [r4, #63]	; 0x3f
 8000a32:	f894 703e 	ldrb.w	r7, [r4, #62]	; 0x3e
	if (!nrsv) return FR_NO_FILESYSTEM;					/* (BPB_RsvdSecCnt must not be 0) */
 8000a36:	ea57 2808 	orrs.w	r8, r7, r8, lsl #8
 8000a3a:	d090      	beq.n	800095e <chk_mounted+0x82>
	if (!fasize) fasize = LD_DWORD(fs->win+BPB_FATSz32);
	fs->fsize = fasize;

	fs->n_fats = b = fs->win[BPB_NumFATs];				/* Number of FAT copies */
	if (b != 1 && b != 2) return FR_NO_FILESYSTEM;		/* (Must be 1 or 2) */
	fasize *= b;										/* Number of sectors for FAT area */
 8000a3c:	fb05 fc01 	mul.w	ip, r5, r1

	nrsv = LD_WORD(fs->win+BPB_RsvdSecCnt);				/* Number of reserved sectors */
	if (!nrsv) return FR_NO_FILESYSTEM;					/* (BPB_RsvdSecCnt must not be 0) */

	/* Determine the FAT sub type */
	sysect = nrsv + fasize + fs->n_rootdir / (SS(fs) / SZ_DIR);	/* RSV+FAT+DIR */
 8000a40:	eb08 1710 	add.w	r7, r8, r0, lsr #4
 8000a44:	4467      	add	r7, ip
	if (tsect < sysect) return FR_NO_FILESYSTEM;		/* (Invalid volume size) */
 8000a46:	42bb      	cmp	r3, r7
 8000a48:	d389      	bcc.n	800095e <chk_mounted+0x82>
	nclst = (tsect - sysect) / fs->csize;				/* Number of clusters */
 8000a4a:	1bdb      	subs	r3, r3, r7
 8000a4c:	fbb3 f3f2 	udiv	r3, r3, r2
	if (!nclst) return FR_NO_FILESYSTEM;				/* (Invalid volume size) */
 8000a50:	2b00      	cmp	r3, #0
 8000a52:	d084      	beq.n	800095e <chk_mounted+0x82>
	fmt = FS_FAT12;
	if (nclst >= MIN_FAT16) fmt = FS_FAT16;
 8000a54:	f640 72f5 	movw	r2, #4085	; 0xff5
 8000a58:	4293      	cmp	r3, r2
 8000a5a:	d906      	bls.n	8000a6a <chk_mounted+0x18e>
 8000a5c:	f64f 75f5 	movw	r5, #65525	; 0xfff5
 8000a60:	42ab      	cmp	r3, r5
 8000a62:	bf8c      	ite	hi
 8000a64:	2503      	movhi	r5, #3
 8000a66:	2502      	movls	r5, #2
 8000a68:	e000      	b.n	8000a6c <chk_mounted+0x190>
	/* Determine the FAT sub type */
	sysect = nrsv + fasize + fs->n_rootdir / (SS(fs) / SZ_DIR);	/* RSV+FAT+DIR */
	if (tsect < sysect) return FR_NO_FILESYSTEM;		/* (Invalid volume size) */
	nclst = (tsect - sysect) / fs->csize;				/* Number of clusters */
	if (!nclst) return FR_NO_FILESYSTEM;				/* (Invalid volume size) */
	fmt = FS_FAT12;
 8000a6a:	2501      	movs	r5, #1
	if (nclst >= MIN_FAT16) fmt = FS_FAT16;
	if (nclst >= MIN_FAT32) fmt = FS_FAT32;

	/* Boundaries and Limits */
	fs->n_fatent = nclst + 2;							/* Number of FAT entries */
 8000a6c:	3302      	adds	r3, #2
	fs->database = bsect + sysect;						/* Data start sector */
 8000a6e:	19bf      	adds	r7, r7, r6
	fs->fatbase = bsect + nrsv; 						/* FAT start sector */
 8000a70:	eb06 0208 	add.w	r2, r6, r8
	if (fmt == FS_FAT32) {
 8000a74:	2d03      	cmp	r5, #3
	fmt = FS_FAT12;
	if (nclst >= MIN_FAT16) fmt = FS_FAT16;
	if (nclst >= MIN_FAT32) fmt = FS_FAT32;

	/* Boundaries and Limits */
	fs->n_fatent = nclst + 2;							/* Number of FAT entries */
 8000a76:	61a3      	str	r3, [r4, #24]
	fs->database = bsect + sysect;						/* Data start sector */
 8000a78:	62a7      	str	r7, [r4, #40]	; 0x28
	fs->fatbase = bsect + nrsv; 						/* FAT start sector */
 8000a7a:	6222      	str	r2, [r4, #32]
	if (fmt == FS_FAT32) {
 8000a7c:	d113      	bne.n	8000aa6 <chk_mounted+0x1ca>
		if (fs->n_rootdir) return FR_NO_FILESYSTEM;		/* (BPB_RootEntCnt must be 0) */
 8000a7e:	2800      	cmp	r0, #0
 8000a80:	f47f af6d 	bne.w	800095e <chk_mounted+0x82>
		fs->dirbase = LD_DWORD(fs->win+BPB_RootClus);	/* Root directory start cluster */
 8000a84:	f894 205e 	ldrb.w	r2, [r4, #94]	; 0x5e
 8000a88:	f894 005f 	ldrb.w	r0, [r4, #95]	; 0x5f
 8000a8c:	0412      	lsls	r2, r2, #16
 8000a8e:	ea42 6200 	orr.w	r2, r2, r0, lsl #24
 8000a92:	f894 005c 	ldrb.w	r0, [r4, #92]	; 0x5c
 8000a96:	4302      	orrs	r2, r0
 8000a98:	f894 005d 	ldrb.w	r0, [r4, #93]	; 0x5d
 8000a9c:	ea42 2200 	orr.w	r2, r2, r0, lsl #8
 8000aa0:	6262      	str	r2, [r4, #36]	; 0x24
		szbfat = fs->n_fatent * 4;						/* (Required FAT size) */
 8000aa2:	009b      	lsls	r3, r3, #2
 8000aa4:	e00e      	b.n	8000ac4 <chk_mounted+0x1e8>
	} else {
		if (!fs->n_rootdir)	return FR_NO_FILESYSTEM;	/* (BPB_RootEntCnt must not be 0) */
 8000aa6:	2800      	cmp	r0, #0
 8000aa8:	f43f af59 	beq.w	800095e <chk_mounted+0x82>
		fs->dirbase = fs->fatbase + fasize;				/* Root directory start sector */
 8000aac:	4462      	add	r2, ip
		szbfat = (fmt == FS_FAT16) ?					/* (Required FAT size) */
			fs->n_fatent * 2 : fs->n_fatent * 3 / 2 + (fs->n_fatent & 1);
 8000aae:	2d02      	cmp	r5, #2
		if (fs->n_rootdir) return FR_NO_FILESYSTEM;		/* (BPB_RootEntCnt must be 0) */
		fs->dirbase = LD_DWORD(fs->win+BPB_RootClus);	/* Root directory start cluster */
		szbfat = fs->n_fatent * 4;						/* (Required FAT size) */
	} else {
		if (!fs->n_rootdir)	return FR_NO_FILESYSTEM;	/* (BPB_RootEntCnt must not be 0) */
		fs->dirbase = fs->fatbase + fasize;				/* Root directory start sector */
 8000ab0:	6262      	str	r2, [r4, #36]	; 0x24
		szbfat = (fmt == FS_FAT16) ?					/* (Required FAT size) */
			fs->n_fatent * 2 : fs->n_fatent * 3 / 2 + (fs->n_fatent & 1);
 8000ab2:	d101      	bne.n	8000ab8 <chk_mounted+0x1dc>
 8000ab4:	005b      	lsls	r3, r3, #1
 8000ab6:	e005      	b.n	8000ac4 <chk_mounted+0x1e8>
 8000ab8:	2203      	movs	r2, #3
 8000aba:	435a      	muls	r2, r3
 8000abc:	f003 0301 	and.w	r3, r3, #1
 8000ac0:	eb03 0352 	add.w	r3, r3, r2, lsr #1
	}
	if (fs->fsize < (szbfat + (SS(fs) - 1)) / SS(fs))	/* (BPB_FATSz must not be less than required) */
 8000ac4:	f203 13ff 	addw	r3, r3, #511	; 0x1ff
 8000ac8:	ebb1 2f53 	cmp.w	r1, r3, lsr #9
 8000acc:	f4ff af47 	bcc.w	800095e <chk_mounted+0x82>
		return FR_NO_FILESYSTEM;

#if !_FS_READONLY
	/* Initialize cluster allocation information */
	fs->free_clust = 0xFFFFFFFF;
 8000ad0:	f04f 33ff 	mov.w	r3, #4294967295
 8000ad4:	6123      	str	r3, [r4, #16]
	fs->last_clust = 0;
 8000ad6:	2300      	movs	r3, #0

	/* Get fsinfo if available */
	if (fmt == FS_FAT32) {
 8000ad8:	2d03      	cmp	r5, #3
		return FR_NO_FILESYSTEM;

#if !_FS_READONLY
	/* Initialize cluster allocation information */
	fs->free_clust = 0xFFFFFFFF;
	fs->last_clust = 0;
 8000ada:	60e3      	str	r3, [r4, #12]

	/* Get fsinfo if available */
	if (fmt == FS_FAT32) {
 8000adc:	d15a      	bne.n	8000b94 <chk_mounted+0x2b8>
	 	fs->fsi_flag = 0;
 8000ade:	7163      	strb	r3, [r4, #5]
		fs->fsi_sector = bsect + LD_WORD(fs->win+BPB_FSInfo);
 8000ae0:	f894 2061 	ldrb.w	r2, [r4, #97]	; 0x61
 8000ae4:	f894 3060 	ldrb.w	r3, [r4, #96]	; 0x60
		if (disk_read(fs->drv, fs->win, fs->fsi_sector, 1) == RES_OK &&
 8000ae8:	7860      	ldrb	r0, [r4, #1]
	fs->last_clust = 0;

	/* Get fsinfo if available */
	if (fmt == FS_FAT32) {
	 	fs->fsi_flag = 0;
		fs->fsi_sector = bsect + LD_WORD(fs->win+BPB_FSInfo);
 8000aea:	ea43 2202 	orr.w	r2, r3, r2, lsl #8
 8000aee:	18b2      	adds	r2, r6, r2
 8000af0:	6162      	str	r2, [r4, #20]
		if (disk_read(fs->drv, fs->win, fs->fsi_sector, 1) == RES_OK &&
 8000af2:	f104 0130 	add.w	r1, r4, #48	; 0x30
 8000af6:	2301      	movs	r3, #1
 8000af8:	f7ff fd2e 	bl	8000558 <disk_read>
 8000afc:	2800      	cmp	r0, #0
 8000afe:	d149      	bne.n	8000b94 <chk_mounted+0x2b8>
			LD_WORD(fs->win+BS_55AA) == 0xAA55 &&
 8000b00:	f894 322e 	ldrb.w	r3, [r4, #558]	; 0x22e
 8000b04:	f894 222f 	ldrb.w	r2, [r4, #559]	; 0x22f
 8000b08:	ea43 2202 	orr.w	r2, r3, r2, lsl #8

	/* Get fsinfo if available */
	if (fmt == FS_FAT32) {
	 	fs->fsi_flag = 0;
		fs->fsi_sector = bsect + LD_WORD(fs->win+BPB_FSInfo);
		if (disk_read(fs->drv, fs->win, fs->fsi_sector, 1) == RES_OK &&
 8000b0c:	4b31      	ldr	r3, [pc, #196]	; (8000bd4 <chk_mounted+0x2f8>)
 8000b0e:	b212      	sxth	r2, r2
 8000b10:	429a      	cmp	r2, r3
 8000b12:	d13f      	bne.n	8000b94 <chk_mounted+0x2b8>
			LD_WORD(fs->win+BS_55AA) == 0xAA55 &&
			LD_DWORD(fs->win+FSI_LeadSig) == 0x41615252 &&
 8000b14:	f894 2032 	ldrb.w	r2, [r4, #50]	; 0x32
 8000b18:	f894 3033 	ldrb.w	r3, [r4, #51]	; 0x33
 8000b1c:	0412      	lsls	r2, r2, #16
 8000b1e:	ea42 6203 	orr.w	r2, r2, r3, lsl #24
 8000b22:	f894 3030 	ldrb.w	r3, [r4, #48]	; 0x30
 8000b26:	431a      	orrs	r2, r3
 8000b28:	f894 3031 	ldrb.w	r3, [r4, #49]	; 0x31
 8000b2c:	ea42 2203 	orr.w	r2, r2, r3, lsl #8
	/* Get fsinfo if available */
	if (fmt == FS_FAT32) {
	 	fs->fsi_flag = 0;
		fs->fsi_sector = bsect + LD_WORD(fs->win+BPB_FSInfo);
		if (disk_read(fs->drv, fs->win, fs->fsi_sector, 1) == RES_OK &&
			LD_WORD(fs->win+BS_55AA) == 0xAA55 &&
 8000b30:	4b29      	ldr	r3, [pc, #164]	; (8000bd8 <chk_mounted+0x2fc>)
 8000b32:	429a      	cmp	r2, r3
 8000b34:	d12e      	bne.n	8000b94 <chk_mounted+0x2b8>
			LD_DWORD(fs->win+FSI_LeadSig) == 0x41615252 &&
			LD_DWORD(fs->win+FSI_StrucSig) == 0x61417272) {
 8000b36:	f894 2216 	ldrb.w	r2, [r4, #534]	; 0x216
 8000b3a:	f894 3217 	ldrb.w	r3, [r4, #535]	; 0x217
 8000b3e:	0412      	lsls	r2, r2, #16
 8000b40:	ea42 6203 	orr.w	r2, r2, r3, lsl #24
 8000b44:	f894 3214 	ldrb.w	r3, [r4, #532]	; 0x214
 8000b48:	431a      	orrs	r2, r3
 8000b4a:	f894 3215 	ldrb.w	r3, [r4, #533]	; 0x215
 8000b4e:	ea42 2203 	orr.w	r2, r2, r3, lsl #8
	if (fmt == FS_FAT32) {
	 	fs->fsi_flag = 0;
		fs->fsi_sector = bsect + LD_WORD(fs->win+BPB_FSInfo);
		if (disk_read(fs->drv, fs->win, fs->fsi_sector, 1) == RES_OK &&
			LD_WORD(fs->win+BS_55AA) == 0xAA55 &&
			LD_DWORD(fs->win+FSI_LeadSig) == 0x41615252 &&
 8000b52:	4b22      	ldr	r3, [pc, #136]	; (8000bdc <chk_mounted+0x300>)
 8000b54:	429a      	cmp	r2, r3
 8000b56:	d11d      	bne.n	8000b94 <chk_mounted+0x2b8>
			LD_DWORD(fs->win+FSI_StrucSig) == 0x61417272) {
				fs->last_clust = LD_DWORD(fs->win+FSI_Nxt_Free);
 8000b58:	f894 321e 	ldrb.w	r3, [r4, #542]	; 0x21e
 8000b5c:	f894 221f 	ldrb.w	r2, [r4, #543]	; 0x21f
 8000b60:	041b      	lsls	r3, r3, #16
 8000b62:	ea43 6302 	orr.w	r3, r3, r2, lsl #24
 8000b66:	f894 221c 	ldrb.w	r2, [r4, #540]	; 0x21c
 8000b6a:	4313      	orrs	r3, r2
 8000b6c:	f894 221d 	ldrb.w	r2, [r4, #541]	; 0x21d
 8000b70:	ea43 2302 	orr.w	r3, r3, r2, lsl #8
 8000b74:	60e3      	str	r3, [r4, #12]
				fs->free_clust = LD_DWORD(fs->win+FSI_Free_Count);
 8000b76:	f894 321a 	ldrb.w	r3, [r4, #538]	; 0x21a
 8000b7a:	f894 221b 	ldrb.w	r2, [r4, #539]	; 0x21b
 8000b7e:	041b      	lsls	r3, r3, #16
 8000b80:	ea43 6302 	orr.w	r3, r3, r2, lsl #24
 8000b84:	f894 2218 	ldrb.w	r2, [r4, #536]	; 0x218
 8000b88:	4313      	orrs	r3, r2
 8000b8a:	f894 2219 	ldrb.w	r2, [r4, #537]	; 0x219
 8000b8e:	ea43 2302 	orr.w	r3, r3, r2, lsl #8
 8000b92:	6123      	str	r3, [r4, #16]
		}
	}
#endif
	fs->fs_type = fmt;		/* FAT sub-type */
	fs->id = ++Fsid;		/* File system mount ID */
 8000b94:	4a12      	ldr	r2, [pc, #72]	; (8000be0 <chk_mounted+0x304>)
				fs->last_clust = LD_DWORD(fs->win+FSI_Nxt_Free);
				fs->free_clust = LD_DWORD(fs->win+FSI_Free_Count);
		}
	}
#endif
	fs->fs_type = fmt;		/* FAT sub-type */
 8000b96:	7025      	strb	r5, [r4, #0]
	fs->id = ++Fsid;		/* File system mount ID */
 8000b98:	8813      	ldrh	r3, [r2, #0]
	fs->winsect = 0;		/* Invalidate sector cache */
 8000b9a:	2000      	movs	r0, #0
				fs->free_clust = LD_DWORD(fs->win+FSI_Free_Count);
		}
	}
#endif
	fs->fs_type = fmt;		/* FAT sub-type */
	fs->id = ++Fsid;		/* File system mount ID */
 8000b9c:	3301      	adds	r3, #1
 8000b9e:	8013      	strh	r3, [r2, #0]
 8000ba0:	80e3      	strh	r3, [r4, #6]
	fs->winsect = 0;		/* Invalidate sector cache */
 8000ba2:	62e0      	str	r0, [r4, #44]	; 0x2c
	fs->wflag = 0;
 8000ba4:	7120      	strb	r0, [r4, #4]
#endif
#if _FS_SHARE				/* Clear file lock semaphores */
	clear_lock(fs);
#endif

	return FR_OK;
 8000ba6:	e8bd 81f0 	ldmia.w	sp!, {r4, r5, r6, r7, r8, pc}

	/* Check if the file system object is valid or not */
	if (vol >= _VOLUMES) 				/* Is the drive number valid? */
		return FR_INVALID_DRIVE;
	*rfs = fs = FatFs[vol];				/* Return pointer to the corresponding file system object */
	if (!fs) return FR_NOT_ENABLED;		/* Is the file system object available? */
 8000baa:	200c      	movs	r0, #12
 8000bac:	e8bd 81f0 	ldmia.w	sp!, {r4, r5, r6, r7, r8, pc}
#endif
	}

	/* Check if the file system object is valid or not */
	if (vol >= _VOLUMES) 				/* Is the drive number valid? */
		return FR_INVALID_DRIVE;
 8000bb0:	200b      	movs	r0, #11
 8000bb2:	e8bd 81f0 	ldmia.w	sp!, {r4, r5, r6, r7, r8, pc}
	if (fs->fs_type) {					/* If the logical drive has been mounted */
		stat = disk_status(fs->drv);
		if (!(stat & STA_NOINIT)) {		/* and the physical drive is kept initialized (has not been changed), */
			if (!_FS_READONLY && chk_wp && (stat & STA_PROTECT))	/* Check write protection if needed */
				return FR_WRITE_PROTECTED;
			return FR_OK;				/* The file system object is valid */
 8000bb6:	4628      	mov	r0, r5
 8000bb8:	e8bd 81f0 	ldmia.w	sp!, {r4, r5, r6, r7, r8, pc}

	fs->fs_type = 0;					/* Clear the file system object */
	fs->drv = LD2PD(vol);				/* Bind the logical drive and a physical drive */
	stat = disk_initialize(fs->drv);	/* Initialize low level disk I/O layer */
	if (stat & STA_NOINIT)				/* Check if the initialization succeeded */
		return FR_NOT_READY;			/* Failed to initialize due to no media or hard error */
 8000bbc:	2003      	movs	r0, #3
 8000bbe:	e8bd 81f0 	ldmia.w	sp!, {r4, r5, r6, r7, r8, pc}
	if (!_FS_READONLY && chk_wp && (stat & STA_PROTECT))	/* Check disk write protection if needed */
		return FR_WRITE_PROTECTED;
 8000bc2:	200a      	movs	r0, #10
 8000bc4:	e8bd 81f0 	ldmia.w	sp!, {r4, r5, r6, r7, r8, pc}
		if (tbl[4]) {						/* Is the partition existing? */
			bsect = LD_DWORD(&tbl[8]);		/* Partition offset in LBA */
			fmt = check_fs(fs, bsect);		/* Check the partition */
		}
	}
	if (fmt == 3) return FR_DISK_ERR;
 8000bc8:	2001      	movs	r0, #1
#if _FS_SHARE				/* Clear file lock semaphores */
	clear_lock(fs);
#endif

	return FR_OK;
}
 8000bca:	e8bd 81f0 	ldmia.w	sp!, {r4, r5, r6, r7, r8, pc}
 8000bce:	bf00      	nop
 8000bd0:	20000004 	.word	0x20000004
 8000bd4:	ffffaa55 	.word	0xffffaa55
 8000bd8:	41615252 	.word	0x41615252
 8000bdc:	61417272 	.word	0x61417272
 8000be0:	20000000 	.word	0x20000000

08000be4 <clust2sect>:
	FATFS *fs,		/* File system object */
	DWORD clst		/* Cluster# to be converted */
)
{
	clst -= 2;
	if (clst >= (fs->n_fatent - 2)) return 0;		/* Invalid cluster# */
 8000be4:	6983      	ldr	r3, [r0, #24]
DWORD clust2sect (	/* !=0: Sector number, 0: Failed - invalid cluster# */
	FATFS *fs,		/* File system object */
	DWORD clst		/* Cluster# to be converted */
)
{
	clst -= 2;
 8000be6:	3902      	subs	r1, #2
	if (clst >= (fs->n_fatent - 2)) return 0;		/* Invalid cluster# */
 8000be8:	3b02      	subs	r3, #2
 8000bea:	4299      	cmp	r1, r3
 8000bec:	d204      	bcs.n	8000bf8 <clust2sect+0x14>
	return clst * fs->csize + fs->database;
 8000bee:	7882      	ldrb	r2, [r0, #2]
 8000bf0:	6a83      	ldr	r3, [r0, #40]	; 0x28
 8000bf2:	fb02 3001 	mla	r0, r2, r1, r3
 8000bf6:	4770      	bx	lr
	FATFS *fs,		/* File system object */
	DWORD clst		/* Cluster# to be converted */
)
{
	clst -= 2;
	if (clst >= (fs->n_fatent - 2)) return 0;		/* Invalid cluster# */
 8000bf8:	2000      	movs	r0, #0
	return clst * fs->csize + fs->database;
}
 8000bfa:	4770      	bx	lr

08000bfc <get_fat>:
{
	UINT wc, bc;
	BYTE *p;


	if (clst < 2 || clst >= fs->n_fatent)	/* Chack range */
 8000bfc:	2901      	cmp	r1, #1

DWORD get_fat (	/* 0xFFFFFFFF:Disk error, 1:Internal error, Else:Cluster status */
	FATFS *fs,	/* File system object */
	DWORD clst	/* Cluster# to get the link information */
)
{
 8000bfe:	b5f8      	push	{r3, r4, r5, r6, r7, lr}
 8000c00:	4604      	mov	r4, r0
 8000c02:	460d      	mov	r5, r1
	UINT wc, bc;
	BYTE *p;


	if (clst < 2 || clst >= fs->n_fatent)	/* Chack range */
 8000c04:	d95c      	bls.n	8000cc0 <get_fat+0xc4>
 8000c06:	6983      	ldr	r3, [r0, #24]
 8000c08:	4299      	cmp	r1, r3
 8000c0a:	d259      	bcs.n	8000cc0 <get_fat+0xc4>
		return 1;

	switch (fs->fs_type) {
 8000c0c:	7803      	ldrb	r3, [r0, #0]
 8000c0e:	2b02      	cmp	r3, #2
 8000c10:	d028      	beq.n	8000c64 <get_fat+0x68>
 8000c12:	2b03      	cmp	r3, #3
 8000c14:	d037      	beq.n	8000c86 <get_fat+0x8a>
 8000c16:	2b01      	cmp	r3, #1
 8000c18:	d14f      	bne.n	8000cba <get_fat+0xbe>
	case FS_FAT12 :
		bc = (UINT)clst; bc += bc / 2;
 8000c1a:	eb01 0651 	add.w	r6, r1, r1, lsr #1
		if (move_window(fs, fs->fatbase + (bc / SS(fs)))) break;
 8000c1e:	6a01      	ldr	r1, [r0, #32]
 8000c20:	eb01 2156 	add.w	r1, r1, r6, lsr #9
 8000c24:	f7ff fd6b 	bl	80006fe <move_window>
 8000c28:	b100      	cbz	r0, 8000c2c <get_fat+0x30>
 8000c2a:	e046      	b.n	8000cba <get_fat+0xbe>
		wc = fs->win[bc % SS(fs)]; bc++;
 8000c2c:	05f3      	lsls	r3, r6, #23
		if (move_window(fs, fs->fatbase + (bc / SS(fs)))) break;
 8000c2e:	6a21      	ldr	r1, [r4, #32]

	switch (fs->fs_type) {
	case FS_FAT12 :
		bc = (UINT)clst; bc += bc / 2;
		if (move_window(fs, fs->fatbase + (bc / SS(fs)))) break;
		wc = fs->win[bc % SS(fs)]; bc++;
 8000c30:	eb04 53d3 	add.w	r3, r4, r3, lsr #23
 8000c34:	3601      	adds	r6, #1
		if (move_window(fs, fs->fatbase + (bc / SS(fs)))) break;
 8000c36:	4620      	mov	r0, r4
 8000c38:	eb01 2156 	add.w	r1, r1, r6, lsr #9

	switch (fs->fs_type) {
	case FS_FAT12 :
		bc = (UINT)clst; bc += bc / 2;
		if (move_window(fs, fs->fatbase + (bc / SS(fs)))) break;
		wc = fs->win[bc % SS(fs)]; bc++;
 8000c3c:	f893 7030 	ldrb.w	r7, [r3, #48]	; 0x30
		if (move_window(fs, fs->fatbase + (bc / SS(fs)))) break;
 8000c40:	f7ff fd5d 	bl	80006fe <move_window>
 8000c44:	2800      	cmp	r0, #0
 8000c46:	d138      	bne.n	8000cba <get_fat+0xbe>
		wc |= fs->win[bc % SS(fs)] << 8;
 8000c48:	05f6      	lsls	r6, r6, #23
 8000c4a:	eb04 54d6 	add.w	r4, r4, r6, lsr #23
		return (clst & 1) ? (wc >> 4) : (wc & 0xFFF);
 8000c4e:	07eb      	lsls	r3, r5, #31
	case FS_FAT12 :
		bc = (UINT)clst; bc += bc / 2;
		if (move_window(fs, fs->fatbase + (bc / SS(fs)))) break;
		wc = fs->win[bc % SS(fs)]; bc++;
		if (move_window(fs, fs->fatbase + (bc / SS(fs)))) break;
		wc |= fs->win[bc % SS(fs)] << 8;
 8000c50:	f894 0030 	ldrb.w	r0, [r4, #48]	; 0x30
 8000c54:	ea47 2000 	orr.w	r0, r7, r0, lsl #8
		return (clst & 1) ? (wc >> 4) : (wc & 0xFFF);
 8000c58:	d501      	bpl.n	8000c5e <get_fat+0x62>
 8000c5a:	0900      	lsrs	r0, r0, #4
 8000c5c:	bdf8      	pop	{r3, r4, r5, r6, r7, pc}
 8000c5e:	0500      	lsls	r0, r0, #20
 8000c60:	0d00      	lsrs	r0, r0, #20
 8000c62:	bdf8      	pop	{r3, r4, r5, r6, r7, pc}

	case FS_FAT16 :
		if (move_window(fs, fs->fatbase + (clst / (SS(fs) / 2)))) break;
 8000c64:	6a01      	ldr	r1, [r0, #32]
 8000c66:	eb01 2115 	add.w	r1, r1, r5, lsr #8
 8000c6a:	f7ff fd48 	bl	80006fe <move_window>
 8000c6e:	bb20      	cbnz	r0, 8000cba <get_fat+0xbe>
		p = &fs->win[clst * 2 % SS(fs)];
 8000c70:	062d      	lsls	r5, r5, #24
 8000c72:	0ded      	lsrs	r5, r5, #23
		return LD_WORD(p);
 8000c74:	1963      	adds	r3, r4, r5
 8000c76:	1964      	adds	r4, r4, r5
 8000c78:	f893 3030 	ldrb.w	r3, [r3, #48]	; 0x30
 8000c7c:	f894 0031 	ldrb.w	r0, [r4, #49]	; 0x31
 8000c80:	ea43 2000 	orr.w	r0, r3, r0, lsl #8
 8000c84:	bdf8      	pop	{r3, r4, r5, r6, r7, pc}

	case FS_FAT32 :
		if (move_window(fs, fs->fatbase + (clst / (SS(fs) / 4)))) break;
 8000c86:	6a01      	ldr	r1, [r0, #32]
 8000c88:	eb01 11d5 	add.w	r1, r1, r5, lsr #7
 8000c8c:	f7ff fd37 	bl	80006fe <move_window>
 8000c90:	b998      	cbnz	r0, 8000cba <get_fat+0xbe>
		p = &fs->win[clst * 4 % SS(fs)];
 8000c92:	066d      	lsls	r5, r5, #25
 8000c94:	0ded      	lsrs	r5, r5, #23
 8000c96:	f105 0330 	add.w	r3, r5, #48	; 0x30
 8000c9a:	18e3      	adds	r3, r4, r3
		return LD_DWORD(p) & 0x0FFFFFFF;
 8000c9c:	1964      	adds	r4, r4, r5
 8000c9e:	78d8      	ldrb	r0, [r3, #3]
 8000ca0:	789a      	ldrb	r2, [r3, #2]
 8000ca2:	785b      	ldrb	r3, [r3, #1]
 8000ca4:	0600      	lsls	r0, r0, #24
 8000ca6:	ea40 4002 	orr.w	r0, r0, r2, lsl #16
 8000caa:	ea40 2003 	orr.w	r0, r0, r3, lsl #8
 8000cae:	f894 3030 	ldrb.w	r3, [r4, #48]	; 0x30
 8000cb2:	4318      	orrs	r0, r3
 8000cb4:	f020 4070 	bic.w	r0, r0, #4026531840	; 0xf0000000
 8000cb8:	bdf8      	pop	{r3, r4, r5, r6, r7, pc}
	}

	return 0xFFFFFFFF;	/* An error occurred at the disk I/O layer */
 8000cba:	f04f 30ff 	mov.w	r0, #4294967295
 8000cbe:	bdf8      	pop	{r3, r4, r5, r6, r7, pc}
	UINT wc, bc;
	BYTE *p;


	if (clst < 2 || clst >= fs->n_fatent)	/* Chack range */
		return 1;
 8000cc0:	2001      	movs	r0, #1
		p = &fs->win[clst * 4 % SS(fs)];
		return LD_DWORD(p) & 0x0FFFFFFF;
	}

	return 0xFFFFFFFF;	/* An error occurred at the disk I/O layer */
}
 8000cc2:	bdf8      	pop	{r3, r4, r5, r6, r7, pc}

08000cc4 <dir_sdi>:
static
FRESULT dir_sdi (
	DIR *dj,		/* Pointer to directory object */
	WORD idx		/* Directory index number */
)
{
 8000cc4:	b570      	push	{r4, r5, r6, lr}
 8000cc6:	4604      	mov	r4, r0
 8000cc8:	460d      	mov	r5, r1
	DWORD clst;
	WORD ic;


	dj->index = idx;
 8000cca:	80e1      	strh	r1, [r4, #6]
	clst = dj->sclust;
 8000ccc:	6881      	ldr	r1, [r0, #8]
	if (clst == 1 || clst >= dj->fs->n_fatent)	/* Check start cluster range */
 8000cce:	2901      	cmp	r1, #1
 8000cd0:	d101      	bne.n	8000cd6 <dir_sdi+0x12>
		return FR_INT_ERR;
 8000cd2:	2002      	movs	r0, #2
 8000cd4:	bd70      	pop	{r4, r5, r6, pc}
	WORD ic;


	dj->index = idx;
	clst = dj->sclust;
	if (clst == 1 || clst >= dj->fs->n_fatent)	/* Check start cluster range */
 8000cd6:	6803      	ldr	r3, [r0, #0]
 8000cd8:	699a      	ldr	r2, [r3, #24]
 8000cda:	4291      	cmp	r1, r2
 8000cdc:	d2f9      	bcs.n	8000cd2 <dir_sdi+0xe>
		return FR_INT_ERR;
	if (!clst && dj->fs->fs_type == FS_FAT32)	/* Replace cluster# 0 with root cluster# if in FAT32 */
 8000cde:	b971      	cbnz	r1, 8000cfe <dir_sdi+0x3a>
 8000ce0:	781a      	ldrb	r2, [r3, #0]
 8000ce2:	2a03      	cmp	r2, #3
 8000ce4:	d101      	bne.n	8000cea <dir_sdi+0x26>
		clst = dj->fs->dirbase;
 8000ce6:	6a59      	ldr	r1, [r3, #36]	; 0x24

	if (clst == 0) {	/* Static table (root-dir in FAT12/16) */
 8000ce8:	b949      	cbnz	r1, 8000cfe <dir_sdi+0x3a>
		dj->clust = clst;
 8000cea:	2200      	movs	r2, #0
 8000cec:	60e2      	str	r2, [r4, #12]
		if (idx >= dj->fs->n_rootdir)		/* Index is out of range */
 8000cee:	891a      	ldrh	r2, [r3, #8]
 8000cf0:	42aa      	cmp	r2, r5
 8000cf2:	d9ee      	bls.n	8000cd2 <dir_sdi+0xe>
			return FR_INT_ERR;
		dj->sect = dj->fs->dirbase + idx / (SS(dj->fs) / SZ_DIR);	/* Sector# */
 8000cf4:	6a5b      	ldr	r3, [r3, #36]	; 0x24
 8000cf6:	eb03 1315 	add.w	r3, r3, r5, lsr #4
 8000cfa:	6123      	str	r3, [r4, #16]
 8000cfc:	e019      	b.n	8000d32 <dir_sdi+0x6e>
	}
	else {				/* Dynamic table (sub-dirs or root-dir in FAT32) */
		ic = SS(dj->fs) / SZ_DIR * dj->fs->csize;	/* Entries per cluster */
 8000cfe:	789e      	ldrb	r6, [r3, #2]
 8000d00:	0136      	lsls	r6, r6, #4
		while (idx >= ic) {	/* Follow cluster chain */
 8000d02:	e00d      	b.n	8000d20 <dir_sdi+0x5c>
			clst = get_fat(dj->fs, clst);				/* Get next cluster */
 8000d04:	6820      	ldr	r0, [r4, #0]
 8000d06:	f7ff ff79 	bl	8000bfc <get_fat>
			if (clst == 0xFFFFFFFF) return FR_DISK_ERR;	/* Disk error */
 8000d0a:	1c42      	adds	r2, r0, #1
		dj->sect = dj->fs->dirbase + idx / (SS(dj->fs) / SZ_DIR);	/* Sector# */
	}
	else {				/* Dynamic table (sub-dirs or root-dir in FAT32) */
		ic = SS(dj->fs) / SZ_DIR * dj->fs->csize;	/* Entries per cluster */
		while (idx >= ic) {	/* Follow cluster chain */
			clst = get_fat(dj->fs, clst);				/* Get next cluster */
 8000d0c:	4601      	mov	r1, r0
			if (clst == 0xFFFFFFFF) return FR_DISK_ERR;	/* Disk error */
 8000d0e:	d019      	beq.n	8000d44 <dir_sdi+0x80>
			if (clst < 2 || clst >= dj->fs->n_fatent)	/* Reached to end of table or int error */
 8000d10:	2801      	cmp	r0, #1
 8000d12:	d9de      	bls.n	8000cd2 <dir_sdi+0xe>
 8000d14:	6823      	ldr	r3, [r4, #0]
 8000d16:	699b      	ldr	r3, [r3, #24]
 8000d18:	4298      	cmp	r0, r3
 8000d1a:	d2da      	bcs.n	8000cd2 <dir_sdi+0xe>
				return FR_INT_ERR;
			idx -= ic;
 8000d1c:	1bad      	subs	r5, r5, r6
 8000d1e:	b2ad      	uxth	r5, r5
			return FR_INT_ERR;
		dj->sect = dj->fs->dirbase + idx / (SS(dj->fs) / SZ_DIR);	/* Sector# */
	}
	else {				/* Dynamic table (sub-dirs or root-dir in FAT32) */
		ic = SS(dj->fs) / SZ_DIR * dj->fs->csize;	/* Entries per cluster */
		while (idx >= ic) {	/* Follow cluster chain */
 8000d20:	42b5      	cmp	r5, r6
 8000d22:	d2ef      	bcs.n	8000d04 <dir_sdi+0x40>
			if (clst == 0xFFFFFFFF) return FR_DISK_ERR;	/* Disk error */
			if (clst < 2 || clst >= dj->fs->n_fatent)	/* Reached to end of table or int error */
				return FR_INT_ERR;
			idx -= ic;
		}
		dj->clust = clst;
 8000d24:	60e1      	str	r1, [r4, #12]
		dj->sect = clust2sect(dj->fs, clst) + idx / (SS(dj->fs) / SZ_DIR);	/* Sector# */
 8000d26:	6820      	ldr	r0, [r4, #0]
 8000d28:	f7ff ff5c 	bl	8000be4 <clust2sect>
 8000d2c:	eb00 1015 	add.w	r0, r0, r5, lsr #4
 8000d30:	6120      	str	r0, [r4, #16]
	}

	dj->dir = dj->fs->win + (idx % (SS(dj->fs) / SZ_DIR)) * SZ_DIR;	/* Ptr to the entry in the sector */
 8000d32:	f005 050f 	and.w	r5, r5, #15
 8000d36:	016d      	lsls	r5, r5, #5
 8000d38:	6823      	ldr	r3, [r4, #0]
 8000d3a:	3530      	adds	r5, #48	; 0x30
 8000d3c:	195b      	adds	r3, r3, r5
 8000d3e:	6163      	str	r3, [r4, #20]

	return FR_OK;	/* Seek succeeded */
 8000d40:	2000      	movs	r0, #0
 8000d42:	bd70      	pop	{r4, r5, r6, pc}
	}
	else {				/* Dynamic table (sub-dirs or root-dir in FAT32) */
		ic = SS(dj->fs) / SZ_DIR * dj->fs->csize;	/* Entries per cluster */
		while (idx >= ic) {	/* Follow cluster chain */
			clst = get_fat(dj->fs, clst);				/* Get next cluster */
			if (clst == 0xFFFFFFFF) return FR_DISK_ERR;	/* Disk error */
 8000d44:	2001      	movs	r0, #1
	}

	dj->dir = dj->fs->win + (idx % (SS(dj->fs) / SZ_DIR)) * SZ_DIR;	/* Ptr to the entry in the sector */

	return FR_OK;	/* Seek succeeded */
}
 8000d46:	bd70      	pop	{r4, r5, r6, pc}

08000d48 <put_fat>:
	UINT bc;
	BYTE *p;
	FRESULT res;


	if (clst < 2 || clst >= fs->n_fatent) {	/* Check range */
 8000d48:	2901      	cmp	r1, #1
FRESULT put_fat (
	FATFS *fs,	/* File system object */
	DWORD clst,	/* Cluster# to be changed in range of 2 to fs->n_fatent - 1 */
	DWORD val	/* New value to mark the cluster */
)
{
 8000d4a:	b5f8      	push	{r3, r4, r5, r6, r7, lr}
 8000d4c:	4604      	mov	r4, r0
 8000d4e:	460d      	mov	r5, r1
 8000d50:	4616      	mov	r6, r2
	UINT bc;
	BYTE *p;
	FRESULT res;


	if (clst < 2 || clst >= fs->n_fatent) {	/* Check range */
 8000d52:	d96f      	bls.n	8000e34 <put_fat+0xec>
 8000d54:	6983      	ldr	r3, [r0, #24]
 8000d56:	4299      	cmp	r1, r3
 8000d58:	d26c      	bcs.n	8000e34 <put_fat+0xec>
		res = FR_INT_ERR;

	} else {
		switch (fs->fs_type) {
 8000d5a:	7803      	ldrb	r3, [r0, #0]
 8000d5c:	2b02      	cmp	r3, #2
 8000d5e:	d039      	beq.n	8000dd4 <put_fat+0x8c>
 8000d60:	2b03      	cmp	r3, #3
 8000d62:	d048      	beq.n	8000df6 <put_fat+0xae>
 8000d64:	2b01      	cmp	r3, #1
 8000d66:	d161      	bne.n	8000e2c <put_fat+0xe4>
		case FS_FAT12 :
			bc = clst; bc += bc / 2;
 8000d68:	eb01 0751 	add.w	r7, r1, r1, lsr #1
			res = move_window(fs, fs->fatbase + (bc / SS(fs)));
 8000d6c:	6a01      	ldr	r1, [r0, #32]
 8000d6e:	eb01 2157 	add.w	r1, r1, r7, lsr #9
 8000d72:	f7ff fcc4 	bl	80006fe <move_window>
			if (res != FR_OK) break;
 8000d76:	2800      	cmp	r0, #0
 8000d78:	d159      	bne.n	8000e2e <put_fat+0xe6>
			p = &fs->win[bc % SS(fs)];
 8000d7a:	05fa      	lsls	r2, r7, #23
 8000d7c:	0dd2      	lsrs	r2, r2, #23
			*p = (clst & 1) ? ((*p & 0x0F) | ((BYTE)val << 4)) : (BYTE)val;
 8000d7e:	f015 0501 	ands.w	r5, r5, #1
 8000d82:	b2f3      	uxtb	r3, r6
 8000d84:	d006      	beq.n	8000d94 <put_fat+0x4c>
 8000d86:	18a1      	adds	r1, r4, r2
 8000d88:	f891 1030 	ldrb.w	r1, [r1, #48]	; 0x30
 8000d8c:	f001 010f 	and.w	r1, r1, #15
 8000d90:	ea41 1303 	orr.w	r3, r1, r3, lsl #4
 8000d94:	18a2      	adds	r2, r4, r2
			bc++;
			fs->wflag = 1;
			res = move_window(fs, fs->fatbase + (bc / SS(fs)));
 8000d96:	6a21      	ldr	r1, [r4, #32]
		case FS_FAT12 :
			bc = clst; bc += bc / 2;
			res = move_window(fs, fs->fatbase + (bc / SS(fs)));
			if (res != FR_OK) break;
			p = &fs->win[bc % SS(fs)];
			*p = (clst & 1) ? ((*p & 0x0F) | ((BYTE)val << 4)) : (BYTE)val;
 8000d98:	f882 3030 	strb.w	r3, [r2, #48]	; 0x30
			bc++;
 8000d9c:	3701      	adds	r7, #1
			fs->wflag = 1;
 8000d9e:	2301      	movs	r3, #1
 8000da0:	7123      	strb	r3, [r4, #4]
			res = move_window(fs, fs->fatbase + (bc / SS(fs)));
 8000da2:	4620      	mov	r0, r4
 8000da4:	eb01 2157 	add.w	r1, r1, r7, lsr #9
 8000da8:	f7ff fca9 	bl	80006fe <move_window>
			if (res != FR_OK) break;
 8000dac:	2800      	cmp	r0, #0
 8000dae:	d13e      	bne.n	8000e2e <put_fat+0xe6>
			p = &fs->win[bc % SS(fs)];
 8000db0:	05ff      	lsls	r7, r7, #23
 8000db2:	0dff      	lsrs	r7, r7, #23
			*p = (clst & 1) ? (BYTE)(val >> 4) : ((*p & 0xF0) | ((BYTE)(val >> 8) & 0x0F));
 8000db4:	b115      	cbz	r5, 8000dbc <put_fat+0x74>
 8000db6:	f3c6 1607 	ubfx	r6, r6, #4, #8
 8000dba:	e007      	b.n	8000dcc <put_fat+0x84>
 8000dbc:	19e3      	adds	r3, r4, r7
 8000dbe:	f3c6 2603 	ubfx	r6, r6, #8, #4
 8000dc2:	f893 3030 	ldrb.w	r3, [r3, #48]	; 0x30
 8000dc6:	f023 030f 	bic.w	r3, r3, #15
 8000dca:	431e      	orrs	r6, r3
 8000dcc:	19e7      	adds	r7, r4, r7
 8000dce:	f887 6030 	strb.w	r6, [r7, #48]	; 0x30
 8000dd2:	e02c      	b.n	8000e2e <put_fat+0xe6>
			break;

		case FS_FAT16 :
			res = move_window(fs, fs->fatbase + (clst / (SS(fs) / 2)));
 8000dd4:	6a01      	ldr	r1, [r0, #32]
 8000dd6:	eb01 2115 	add.w	r1, r1, r5, lsr #8
 8000dda:	f7ff fc90 	bl	80006fe <move_window>
			if (res != FR_OK) break;
 8000dde:	bb30      	cbnz	r0, 8000e2e <put_fat+0xe6>
			p = &fs->win[clst * 2 % SS(fs)];
 8000de0:	062d      	lsls	r5, r5, #24
 8000de2:	0ded      	lsrs	r5, r5, #23
			ST_WORD(p, (WORD)val);
 8000de4:	1963      	adds	r3, r4, r5
 8000de6:	461d      	mov	r5, r3
 8000de8:	f883 6030 	strb.w	r6, [r3, #48]	; 0x30
 8000dec:	f3c6 2607 	ubfx	r6, r6, #8, #8
 8000df0:	f883 6031 	strb.w	r6, [r3, #49]	; 0x31
 8000df4:	e01b      	b.n	8000e2e <put_fat+0xe6>
			break;

		case FS_FAT32 :
			res = move_window(fs, fs->fatbase + (clst / (SS(fs) / 4)));
 8000df6:	6a01      	ldr	r1, [r0, #32]
 8000df8:	eb01 11d5 	add.w	r1, r1, r5, lsr #7
 8000dfc:	f7ff fc7f 	bl	80006fe <move_window>
			if (res != FR_OK) break;
 8000e00:	b9a8      	cbnz	r0, 8000e2e <put_fat+0xe6>
			p = &fs->win[clst * 4 % SS(fs)];
 8000e02:	066d      	lsls	r5, r5, #25
 8000e04:	0ded      	lsrs	r5, r5, #23
 8000e06:	f105 0330 	add.w	r3, r5, #48	; 0x30
 8000e0a:	18e3      	adds	r3, r4, r3
			val |= LD_DWORD(p) & 0xF0000000;
 8000e0c:	1965      	adds	r5, r4, r5
 8000e0e:	78da      	ldrb	r2, [r3, #3]
 8000e10:	0612      	lsls	r2, r2, #24
 8000e12:	f002 4270 	and.w	r2, r2, #4026531840	; 0xf0000000
 8000e16:	4316      	orrs	r6, r2
			ST_DWORD(p, val);
 8000e18:	f3c6 2207 	ubfx	r2, r6, #8, #8
 8000e1c:	f885 6030 	strb.w	r6, [r5, #48]	; 0x30
 8000e20:	705a      	strb	r2, [r3, #1]
 8000e22:	0c32      	lsrs	r2, r6, #16
 8000e24:	0e36      	lsrs	r6, r6, #24
 8000e26:	709a      	strb	r2, [r3, #2]
 8000e28:	70de      	strb	r6, [r3, #3]
 8000e2a:	e000      	b.n	8000e2e <put_fat+0xe6>
			break;

		default :
			res = FR_INT_ERR;
 8000e2c:	2002      	movs	r0, #2
		}
		fs->wflag = 1;
 8000e2e:	2301      	movs	r3, #1
 8000e30:	7123      	strb	r3, [r4, #4]
 8000e32:	bdf8      	pop	{r3, r4, r5, r6, r7, pc}
	BYTE *p;
	FRESULT res;


	if (clst < 2 || clst >= fs->n_fatent) {	/* Check range */
		res = FR_INT_ERR;
 8000e34:	2002      	movs	r0, #2
		}
		fs->wflag = 1;
	}

	return res;
}
 8000e36:	bdf8      	pop	{r3, r4, r5, r6, r7, pc}

08000e38 <create_chain>:
static
DWORD create_chain (	/* 0:No free cluster, 1:Internal error, 0xFFFFFFFF:Disk error, >=2:New cluster# */
	FATFS *fs,			/* File system object */
	DWORD clst			/* Cluster# to stretch. 0 means create a new chain. */
)
{
 8000e38:	b5f8      	push	{r3, r4, r5, r6, r7, lr}
 8000e3a:	4605      	mov	r5, r0
	DWORD cs, ncl, scl;
	FRESULT res;


	if (clst == 0) {		/* Create a new chain */
 8000e3c:	460f      	mov	r7, r1
 8000e3e:	b931      	cbnz	r1, 8000e4e <create_chain+0x16>
		scl = fs->last_clust;			/* Get suggested start point */
 8000e40:	68c6      	ldr	r6, [r0, #12]
		if (!scl || scl >= fs->n_fatent) scl = 1;
 8000e42:	b176      	cbz	r6, 8000e62 <create_chain+0x2a>
 8000e44:	6983      	ldr	r3, [r0, #24]
 8000e46:	429e      	cmp	r6, r3
 8000e48:	bf28      	it	cs
 8000e4a:	2601      	movcs	r6, #1
 8000e4c:	e00a      	b.n	8000e64 <create_chain+0x2c>
	}
	else {					/* Stretch the current chain */
		cs = get_fat(fs, clst);			/* Check the cluster status */
 8000e4e:	f7ff fed5 	bl	8000bfc <get_fat>
		if (cs < 2) return 1;			/* It is an invalid cluster */
 8000e52:	2801      	cmp	r0, #1
 8000e54:	d800      	bhi.n	8000e58 <create_chain+0x20>
 8000e56:	e03b      	b.n	8000ed0 <create_chain+0x98>
		if (cs < fs->n_fatent) return cs;	/* It is already followed by next cluster */
 8000e58:	69ab      	ldr	r3, [r5, #24]
 8000e5a:	4298      	cmp	r0, r3
 8000e5c:	d339      	bcc.n	8000ed2 <create_chain+0x9a>
 8000e5e:	463e      	mov	r6, r7
 8000e60:	e000      	b.n	8000e64 <create_chain+0x2c>
	FRESULT res;


	if (clst == 0) {		/* Create a new chain */
		scl = fs->last_clust;			/* Get suggested start point */
		if (!scl || scl >= fs->n_fatent) scl = 1;
 8000e62:	2601      	movs	r6, #1
 8000e64:	4634      	mov	r4, r6
	}

	ncl = scl;				/* Start cluster */
	for (;;) {
		ncl++;							/* Next cluster */
		if (ncl >= fs->n_fatent) {		/* Wrap around */
 8000e66:	69ab      	ldr	r3, [r5, #24]
		scl = clst;
	}

	ncl = scl;				/* Start cluster */
	for (;;) {
		ncl++;							/* Next cluster */
 8000e68:	3401      	adds	r4, #1
		if (ncl >= fs->n_fatent) {		/* Wrap around */
 8000e6a:	429c      	cmp	r4, r3
 8000e6c:	d304      	bcc.n	8000e78 <create_chain+0x40>
			ncl = 2;
			if (ncl > scl) return 0;	/* No free cluster */
 8000e6e:	2e01      	cmp	r6, #1
 8000e70:	d801      	bhi.n	8000e76 <create_chain+0x3e>
 8000e72:	2000      	movs	r0, #0
 8000e74:	bdf8      	pop	{r3, r4, r5, r6, r7, pc}

	ncl = scl;				/* Start cluster */
	for (;;) {
		ncl++;							/* Next cluster */
		if (ncl >= fs->n_fatent) {		/* Wrap around */
			ncl = 2;
 8000e76:	2402      	movs	r4, #2
			if (ncl > scl) return 0;	/* No free cluster */
		}
		cs = get_fat(fs, ncl);			/* Get the cluster status */
 8000e78:	4628      	mov	r0, r5
 8000e7a:	4621      	mov	r1, r4
 8000e7c:	f7ff febe 	bl	8000bfc <get_fat>
		if (cs == 0) break;				/* Found a free cluster */
 8000e80:	b148      	cbz	r0, 8000e96 <create_chain+0x5e>
		if (cs == 0xFFFFFFFF || cs == 1)/* An error occurred */
 8000e82:	1c43      	adds	r3, r0, #1
 8000e84:	d102      	bne.n	8000e8c <create_chain+0x54>
		if (fs->free_clust != 0xFFFFFFFF) {
			fs->free_clust--;
			fs->fsi_flag = 1;
		}
	} else {
		ncl = (res == FR_DISK_ERR) ? 0xFFFFFFFF : 1;
 8000e86:	f04f 30ff 	mov.w	r0, #4294967295
 8000e8a:	bdf8      	pop	{r3, r4, r5, r6, r7, pc}
			ncl = 2;
			if (ncl > scl) return 0;	/* No free cluster */
		}
		cs = get_fat(fs, ncl);			/* Get the cluster status */
		if (cs == 0) break;				/* Found a free cluster */
		if (cs == 0xFFFFFFFF || cs == 1)/* An error occurred */
 8000e8c:	2801      	cmp	r0, #1
 8000e8e:	d01f      	beq.n	8000ed0 <create_chain+0x98>
			return cs;
		if (ncl == scl) return 0;		/* No free cluster */
 8000e90:	42b4      	cmp	r4, r6
 8000e92:	d1e8      	bne.n	8000e66 <create_chain+0x2e>
 8000e94:	e7ed      	b.n	8000e72 <create_chain+0x3a>
	}

	res = put_fat(fs, ncl, 0x0FFFFFFF);	/* Mark the new cluster "last link" */
 8000e96:	4628      	mov	r0, r5
 8000e98:	4621      	mov	r1, r4
 8000e9a:	f06f 4270 	mvn.w	r2, #4026531840	; 0xf0000000
 8000e9e:	f7ff ff53 	bl	8000d48 <put_fat>
	if (res == FR_OK && clst != 0) {
 8000ea2:	b998      	cbnz	r0, 8000ecc <create_chain+0x94>
 8000ea4:	b927      	cbnz	r7, 8000eb0 <create_chain+0x78>
		res = put_fat(fs, clst, ncl);	/* Link it to the previous one if needed */
	}
	if (res == FR_OK) {
		fs->last_clust = ncl;			/* Update FSINFO */
		if (fs->free_clust != 0xFFFFFFFF) {
 8000ea6:	692b      	ldr	r3, [r5, #16]
	res = put_fat(fs, ncl, 0x0FFFFFFF);	/* Mark the new cluster "last link" */
	if (res == FR_OK && clst != 0) {
		res = put_fat(fs, clst, ncl);	/* Link it to the previous one if needed */
	}
	if (res == FR_OK) {
		fs->last_clust = ncl;			/* Update FSINFO */
 8000ea8:	60ec      	str	r4, [r5, #12]
		if (fs->free_clust != 0xFFFFFFFF) {
 8000eaa:	1c59      	adds	r1, r3, #1
 8000eac:	d108      	bne.n	8000ec0 <create_chain+0x88>
 8000eae:	e00b      	b.n	8000ec8 <create_chain+0x90>
		if (ncl == scl) return 0;		/* No free cluster */
	}

	res = put_fat(fs, ncl, 0x0FFFFFFF);	/* Mark the new cluster "last link" */
	if (res == FR_OK && clst != 0) {
		res = put_fat(fs, clst, ncl);	/* Link it to the previous one if needed */
 8000eb0:	4628      	mov	r0, r5
 8000eb2:	4639      	mov	r1, r7
 8000eb4:	4622      	mov	r2, r4
 8000eb6:	f7ff ff47 	bl	8000d48 <put_fat>
	}
	if (res == FR_OK) {
 8000eba:	2800      	cmp	r0, #0
 8000ebc:	d0f3      	beq.n	8000ea6 <create_chain+0x6e>
 8000ebe:	e005      	b.n	8000ecc <create_chain+0x94>
		fs->last_clust = ncl;			/* Update FSINFO */
		if (fs->free_clust != 0xFFFFFFFF) {
			fs->free_clust--;
 8000ec0:	3b01      	subs	r3, #1
 8000ec2:	612b      	str	r3, [r5, #16]
			fs->fsi_flag = 1;
 8000ec4:	2301      	movs	r3, #1
 8000ec6:	716b      	strb	r3, [r5, #5]
 8000ec8:	4620      	mov	r0, r4
 8000eca:	bdf8      	pop	{r3, r4, r5, r6, r7, pc}
		}
	} else {
		ncl = (res == FR_DISK_ERR) ? 0xFFFFFFFF : 1;
 8000ecc:	2801      	cmp	r0, #1
 8000ece:	d0da      	beq.n	8000e86 <create_chain+0x4e>
 8000ed0:	2001      	movs	r0, #1
	}

	return ncl;		/* Return new cluster number or error code */
}
 8000ed2:	bdf8      	pop	{r3, r4, r5, r6, r7, pc}

08000ed4 <dir_next>:
static
FRESULT dir_next (	/* FR_OK:Succeeded, FR_NO_FILE:End of table, FR_DENIED:EOT and could not stretch */
	DIR *dj,		/* Pointer to directory object */
	int stretch		/* 0: Do not stretch table, 1: Stretch table if needed */
)
{
 8000ed4:	e92d 43f8 	stmdb	sp!, {r3, r4, r5, r6, r7, r8, r9, lr}
	DWORD clst;
	WORD i;


	stretch = stretch;		/* To suppress warning on read-only cfg. */
	i = dj->index + 1;
 8000ed8:	88c6      	ldrh	r6, [r0, #6]
 8000eda:	3601      	adds	r6, #1
 8000edc:	b2b6      	uxth	r6, r6
static
FRESULT dir_next (	/* FR_OK:Succeeded, FR_NO_FILE:End of table, FR_DENIED:EOT and could not stretch */
	DIR *dj,		/* Pointer to directory object */
	int stretch		/* 0: Do not stretch table, 1: Stretch table if needed */
)
{
 8000ede:	4604      	mov	r4, r0
 8000ee0:	460f      	mov	r7, r1
	WORD i;


	stretch = stretch;		/* To suppress warning on read-only cfg. */
	i = dj->index + 1;
	if (!i || !dj->sect)	/* Report EOT when index has reached 65535 */
 8000ee2:	b916      	cbnz	r6, 8000eea <dir_next+0x16>
		return FR_NO_FILE;
 8000ee4:	2004      	movs	r0, #4
 8000ee6:	e8bd 83f8 	ldmia.w	sp!, {r3, r4, r5, r6, r7, r8, r9, pc}
	WORD i;


	stretch = stretch;		/* To suppress warning on read-only cfg. */
	i = dj->index + 1;
	if (!i || !dj->sect)	/* Report EOT when index has reached 65535 */
 8000eea:	6903      	ldr	r3, [r0, #16]
 8000eec:	2b00      	cmp	r3, #0
 8000eee:	d0f9      	beq.n	8000ee4 <dir_next+0x10>
		return FR_NO_FILE;

	if (!(i % (SS(dj->fs) / SZ_DIR))) {	/* Sector changed? */
 8000ef0:	f016 080f 	ands.w	r8, r6, #15
 8000ef4:	d15d      	bne.n	8000fb2 <dir_next+0xde>
		dj->sect++;					/* Next sector */

		if (dj->clust == 0) {	/* Static table */
 8000ef6:	68c1      	ldr	r1, [r0, #12]
	i = dj->index + 1;
	if (!i || !dj->sect)	/* Report EOT when index has reached 65535 */
		return FR_NO_FILE;

	if (!(i % (SS(dj->fs) / SZ_DIR))) {	/* Sector changed? */
		dj->sect++;					/* Next sector */
 8000ef8:	3301      	adds	r3, #1
 8000efa:	6103      	str	r3, [r0, #16]
 8000efc:	6800      	ldr	r0, [r0, #0]

		if (dj->clust == 0) {	/* Static table */
 8000efe:	b919      	cbnz	r1, 8000f08 <dir_next+0x34>
			if (i >= dj->fs->n_rootdir)	/* Report EOT when end of table */
 8000f00:	8903      	ldrh	r3, [r0, #8]
 8000f02:	42b3      	cmp	r3, r6
 8000f04:	d9ee      	bls.n	8000ee4 <dir_next+0x10>
 8000f06:	e054      	b.n	8000fb2 <dir_next+0xde>
				return FR_NO_FILE;
		}
		else {					/* Dynamic table */
			if (((i / (SS(dj->fs) / SZ_DIR)) & (dj->fs->csize - 1)) == 0) {	/* Cluster changed? */
 8000f08:	7882      	ldrb	r2, [r0, #2]
 8000f0a:	3a01      	subs	r2, #1
 8000f0c:	ea12 1216 	ands.w	r2, r2, r6, lsr #4
 8000f10:	d14f      	bne.n	8000fb2 <dir_next+0xde>
				clst = get_fat(dj->fs, dj->clust);				/* Get next cluster */
 8000f12:	f7ff fe73 	bl	8000bfc <get_fat>
				if (clst <= 1) return FR_INT_ERR;
 8000f16:	2801      	cmp	r0, #1
			if (i >= dj->fs->n_rootdir)	/* Report EOT when end of table */
				return FR_NO_FILE;
		}
		else {					/* Dynamic table */
			if (((i / (SS(dj->fs) / SZ_DIR)) & (dj->fs->csize - 1)) == 0) {	/* Cluster changed? */
				clst = get_fat(dj->fs, dj->clust);				/* Get next cluster */
 8000f18:	4605      	mov	r5, r0
				if (clst <= 1) return FR_INT_ERR;
 8000f1a:	d802      	bhi.n	8000f22 <dir_next+0x4e>
 8000f1c:	2002      	movs	r0, #2
 8000f1e:	e8bd 83f8 	ldmia.w	sp!, {r3, r4, r5, r6, r7, r8, r9, pc}
				if (clst == 0xFFFFFFFF) return FR_DISK_ERR;
 8000f22:	1c41      	adds	r1, r0, #1
 8000f24:	d102      	bne.n	8000f2c <dir_next+0x58>
 8000f26:	2001      	movs	r0, #1
 8000f28:	e8bd 83f8 	ldmia.w	sp!, {r3, r4, r5, r6, r7, r8, r9, pc}
				if (clst >= dj->fs->n_fatent) {					/* When it reached end of dynamic table */
 8000f2c:	6820      	ldr	r0, [r4, #0]
 8000f2e:	6983      	ldr	r3, [r0, #24]
 8000f30:	429d      	cmp	r5, r3
 8000f32:	d338      	bcc.n	8000fa6 <dir_next+0xd2>
#if !_FS_READONLY
					BYTE c;
					if (!stretch) return FR_NO_FILE;			/* When do not stretch, report EOT */
 8000f34:	2f00      	cmp	r7, #0
 8000f36:	d0d5      	beq.n	8000ee4 <dir_next+0x10>
					clst = create_chain(dj->fs, dj->clust);		/* Stretch cluster chain */
 8000f38:	68e1      	ldr	r1, [r4, #12]
 8000f3a:	f7ff ff7d 	bl	8000e38 <create_chain>
					if (clst == 0) return FR_DENIED;			/* No free cluster */
 8000f3e:	4605      	mov	r5, r0
 8000f40:	2800      	cmp	r0, #0
 8000f42:	d041      	beq.n	8000fc8 <dir_next+0xf4>
					if (clst == 1) return FR_INT_ERR;
 8000f44:	2801      	cmp	r0, #1
 8000f46:	d0e9      	beq.n	8000f1c <dir_next+0x48>
					if (clst == 0xFFFFFFFF) return FR_DISK_ERR;
 8000f48:	1c42      	adds	r2, r0, #1
 8000f4a:	d0ec      	beq.n	8000f26 <dir_next+0x52>
					/* Clean-up stretched table */
					if (move_window(dj->fs, 0)) return FR_DISK_ERR;	/* Flush active window */
 8000f4c:	6820      	ldr	r0, [r4, #0]
 8000f4e:	2100      	movs	r1, #0
 8000f50:	f7ff fbd5 	bl	80006fe <move_window>
 8000f54:	2800      	cmp	r0, #0
 8000f56:	d1e6      	bne.n	8000f26 <dir_next+0x52>
					mem_set(dj->fs->win, 0, SS(dj->fs));			/* Clear window buffer */
 8000f58:	6823      	ldr	r3, [r4, #0]
static
void mem_set (void* dst, int val, UINT cnt) {
	BYTE *d = (BYTE*)dst;

	while (cnt--)
		*d++ = (BYTE)val;
 8000f5a:	4602      	mov	r2, r0
					if (clst == 0) return FR_DENIED;			/* No free cluster */
					if (clst == 1) return FR_INT_ERR;
					if (clst == 0xFFFFFFFF) return FR_DISK_ERR;
					/* Clean-up stretched table */
					if (move_window(dj->fs, 0)) return FR_DISK_ERR;	/* Flush active window */
					mem_set(dj->fs->win, 0, SS(dj->fs));			/* Clear window buffer */
 8000f5c:	3330      	adds	r3, #48	; 0x30
static
void mem_set (void* dst, int val, UINT cnt) {
	BYTE *d = (BYTE*)dst;

	while (cnt--)
		*d++ = (BYTE)val;
 8000f5e:	541a      	strb	r2, [r3, r0]
 8000f60:	3001      	adds	r0, #1
/* Fill memory */
static
void mem_set (void* dst, int val, UINT cnt) {
	BYTE *d = (BYTE*)dst;

	while (cnt--)
 8000f62:	f5b0 7f00 	cmp.w	r0, #512	; 0x200
 8000f66:	d1fa      	bne.n	8000f5e <dir_next+0x8a>
					if (clst == 1) return FR_INT_ERR;
					if (clst == 0xFFFFFFFF) return FR_DISK_ERR;
					/* Clean-up stretched table */
					if (move_window(dj->fs, 0)) return FR_DISK_ERR;	/* Flush active window */
					mem_set(dj->fs->win, 0, SS(dj->fs));			/* Clear window buffer */
					dj->fs->winsect = clust2sect(dj->fs, clst);	/* Cluster start sector */
 8000f68:	6827      	ldr	r7, [r4, #0]
 8000f6a:	4629      	mov	r1, r5
 8000f6c:	4638      	mov	r0, r7
 8000f6e:	f7ff fe39 	bl	8000be4 <clust2sect>
					for (c = 0; c < dj->fs->csize; c++) {		/* Fill the new cluster with 0 */
						dj->fs->wflag = 1;
 8000f72:	f04f 0901 	mov.w	r9, #1
					if (clst == 1) return FR_INT_ERR;
					if (clst == 0xFFFFFFFF) return FR_DISK_ERR;
					/* Clean-up stretched table */
					if (move_window(dj->fs, 0)) return FR_DISK_ERR;	/* Flush active window */
					mem_set(dj->fs->win, 0, SS(dj->fs));			/* Clear window buffer */
					dj->fs->winsect = clust2sect(dj->fs, clst);	/* Cluster start sector */
 8000f76:	62f8      	str	r0, [r7, #44]	; 0x2c
					for (c = 0; c < dj->fs->csize; c++) {		/* Fill the new cluster with 0 */
 8000f78:	2700      	movs	r7, #0
 8000f7a:	e00d      	b.n	8000f98 <dir_next+0xc4>
						dj->fs->wflag = 1;
 8000f7c:	f883 9004 	strb.w	r9, [r3, #4]
						if (move_window(dj->fs, 0)) return FR_DISK_ERR;
 8000f80:	6820      	ldr	r0, [r4, #0]
 8000f82:	2100      	movs	r1, #0
 8000f84:	f7ff fbbb 	bl	80006fe <move_window>
 8000f88:	2800      	cmp	r0, #0
 8000f8a:	d1cc      	bne.n	8000f26 <dir_next+0x52>
						dj->fs->winsect++;
 8000f8c:	6823      	ldr	r3, [r4, #0]
 8000f8e:	6ada      	ldr	r2, [r3, #44]	; 0x2c
					if (clst == 0xFFFFFFFF) return FR_DISK_ERR;
					/* Clean-up stretched table */
					if (move_window(dj->fs, 0)) return FR_DISK_ERR;	/* Flush active window */
					mem_set(dj->fs->win, 0, SS(dj->fs));			/* Clear window buffer */
					dj->fs->winsect = clust2sect(dj->fs, clst);	/* Cluster start sector */
					for (c = 0; c < dj->fs->csize; c++) {		/* Fill the new cluster with 0 */
 8000f90:	3701      	adds	r7, #1
						dj->fs->wflag = 1;
						if (move_window(dj->fs, 0)) return FR_DISK_ERR;
						dj->fs->winsect++;
 8000f92:	3201      	adds	r2, #1
 8000f94:	62da      	str	r2, [r3, #44]	; 0x2c
					if (clst == 0xFFFFFFFF) return FR_DISK_ERR;
					/* Clean-up stretched table */
					if (move_window(dj->fs, 0)) return FR_DISK_ERR;	/* Flush active window */
					mem_set(dj->fs->win, 0, SS(dj->fs));			/* Clear window buffer */
					dj->fs->winsect = clust2sect(dj->fs, clst);	/* Cluster start sector */
					for (c = 0; c < dj->fs->csize; c++) {		/* Fill the new cluster with 0 */
 8000f96:	b2ff      	uxtb	r7, r7
 8000f98:	6823      	ldr	r3, [r4, #0]
 8000f9a:	789a      	ldrb	r2, [r3, #2]
 8000f9c:	42ba      	cmp	r2, r7
 8000f9e:	d8ed      	bhi.n	8000f7c <dir_next+0xa8>
						dj->fs->wflag = 1;
						if (move_window(dj->fs, 0)) return FR_DISK_ERR;
						dj->fs->winsect++;
					}
					dj->fs->winsect -= c;						/* Rewind window address */
 8000fa0:	6ada      	ldr	r2, [r3, #44]	; 0x2c
 8000fa2:	1bd7      	subs	r7, r2, r7
 8000fa4:	62df      	str	r7, [r3, #44]	; 0x2c
#else
					return FR_NO_FILE;			/* Report EOT */
#endif
				}
				dj->clust = clst;				/* Initialize data for new cluster */
 8000fa6:	60e5      	str	r5, [r4, #12]
				dj->sect = clust2sect(dj->fs, clst);
 8000fa8:	6820      	ldr	r0, [r4, #0]
 8000faa:	4629      	mov	r1, r5
 8000fac:	f7ff fe1a 	bl	8000be4 <clust2sect>
 8000fb0:	6120      	str	r0, [r4, #16]
			}
		}
	}

	dj->index = i;
	dj->dir = dj->fs->win + (i % (SS(dj->fs) / SZ_DIR)) * SZ_DIR;
 8000fb2:	6823      	ldr	r3, [r4, #0]
				dj->sect = clust2sect(dj->fs, clst);
			}
		}
	}

	dj->index = i;
 8000fb4:	80e6      	strh	r6, [r4, #6]
	dj->dir = dj->fs->win + (i % (SS(dj->fs) / SZ_DIR)) * SZ_DIR;
 8000fb6:	ea4f 1848 	mov.w	r8, r8, lsl #5
 8000fba:	f108 0830 	add.w	r8, r8, #48	; 0x30
 8000fbe:	4443      	add	r3, r8
 8000fc0:	6163      	str	r3, [r4, #20]

	return FR_OK;
 8000fc2:	2000      	movs	r0, #0
 8000fc4:	e8bd 83f8 	ldmia.w	sp!, {r3, r4, r5, r6, r7, r8, r9, pc}
				if (clst >= dj->fs->n_fatent) {					/* When it reached end of dynamic table */
#if !_FS_READONLY
					BYTE c;
					if (!stretch) return FR_NO_FILE;			/* When do not stretch, report EOT */
					clst = create_chain(dj->fs, dj->clust);		/* Stretch cluster chain */
					if (clst == 0) return FR_DENIED;			/* No free cluster */
 8000fc8:	2007      	movs	r0, #7

	dj->index = i;
	dj->dir = dj->fs->win + (i % (SS(dj->fs) / SZ_DIR)) * SZ_DIR;

	return FR_OK;
}
 8000fca:	e8bd 83f8 	ldmia.w	sp!, {r3, r4, r5, r6, r7, r8, r9, pc}
	...

08000fd0 <follow_path>:
static
FRESULT follow_path (	/* FR_OK(0): successful, !=0: error code */
	DIR *dj,			/* Directory object to return last directory and found object */
	const TCHAR *path	/* Full-path string to find a file or directory */
)
{
 8000fd0:	e92d 43f8 	stmdb	sp!, {r3, r4, r5, r6, r7, r8, r9, lr}
		path++;	dj->sclust = 0;		/* Strip it and start from the root dir */
	} else {							/* No heading separator */
		dj->sclust = dj->fs->cdir;	/* Start from the current dir */
	}
#else
	if (*path == '/' || *path == '\\')	/* Strip heading separator if exist */
 8000fd4:	780b      	ldrb	r3, [r1, #0]
 8000fd6:	2b2f      	cmp	r3, #47	; 0x2f
static
FRESULT follow_path (	/* FR_OK(0): successful, !=0: error code */
	DIR *dj,			/* Directory object to return last directory and found object */
	const TCHAR *path	/* Full-path string to find a file or directory */
)
{
 8000fd8:	4604      	mov	r4, r0
 8000fda:	460e      	mov	r6, r1
		path++;	dj->sclust = 0;		/* Strip it and start from the root dir */
	} else {							/* No heading separator */
		dj->sclust = dj->fs->cdir;	/* Start from the current dir */
	}
#else
	if (*path == '/' || *path == '\\')	/* Strip heading separator if exist */
 8000fdc:	d001      	beq.n	8000fe2 <follow_path+0x12>
 8000fde:	2b5c      	cmp	r3, #92	; 0x5c
 8000fe0:	d100      	bne.n	8000fe4 <follow_path+0x14>
		path++;
 8000fe2:	3601      	adds	r6, #1
	dj->sclust = 0;						/* Start from the root dir */
 8000fe4:	2500      	movs	r5, #0
 8000fe6:	60a5      	str	r5, [r4, #8]
#endif

	if ((UINT)*path < ' ') {			/* Nul path means the start directory itself */
 8000fe8:	7833      	ldrb	r3, [r6, #0]
 8000fea:	2b1f      	cmp	r3, #31
 8000fec:	d806      	bhi.n	8000ffc <follow_path+0x2c>
		res = dir_sdi(dj, 0);
 8000fee:	4620      	mov	r0, r4
 8000ff0:	4629      	mov	r1, r5
 8000ff2:	f7ff fe67 	bl	8000cc4 <dir_sdi>
		dj->dir = 0;
 8000ff6:	6165      	str	r5, [r4, #20]
 8000ff8:	e8bd 83f8 	ldmia.w	sp!, {r3, r4, r5, r6, r7, r8, r9, pc}
static
void mem_set (void* dst, int val, UINT cnt) {
	BYTE *d = (BYTE*)dst;

	while (cnt--)
		*d++ = (BYTE)val;
 8000ffc:	2720      	movs	r7, #32
 8000ffe:	4632      	mov	r2, r6
	BYTE b, c, d, *sfn;
	UINT ni, si, i;
	const char *p;

	/* Create file name in directory form */
	for (p = *path; *p == '/' || *p == '\\'; p++) ;	/* Strip duplicated separator */
 8001000:	7813      	ldrb	r3, [r2, #0]
 8001002:	4616      	mov	r6, r2
 8001004:	3201      	adds	r2, #1
 8001006:	2b2f      	cmp	r3, #47	; 0x2f
 8001008:	d0fa      	beq.n	8001000 <follow_path+0x30>
 800100a:	2b5c      	cmp	r3, #92	; 0x5c
 800100c:	d0f8      	beq.n	8001000 <follow_path+0x30>
	sfn = dj->fn;
 800100e:	69a5      	ldr	r5, [r4, #24]
 8001010:	2300      	movs	r3, #0
static
void mem_set (void* dst, int val, UINT cnt) {
	BYTE *d = (BYTE*)dst;

	while (cnt--)
		*d++ = (BYTE)val;
 8001012:	54ef      	strb	r7, [r5, r3]
 8001014:	3301      	adds	r3, #1
/* Fill memory */
static
void mem_set (void* dst, int val, UINT cnt) {
	BYTE *d = (BYTE*)dst;

	while (cnt--)
 8001016:	2b0b      	cmp	r3, #11
 8001018:	d1fb      	bne.n	8001012 <follow_path+0x42>
 800101a:	2200      	movs	r2, #0
 800101c:	4690      	mov	r8, r2
 800101e:	2108      	movs	r1, #8
 8001020:	4610      	mov	r0, r2
 8001022:	e000      	b.n	8001026 <follow_path+0x56>
 8001024:	46e0      	mov	r8, ip
		sfn[NS] = (c <= ' ') ? NS_LAST | NS_DOT : NS_DOT;	/* Set last segment flag if end of path */
		return FR_OK;
	}
#endif
	for (;;) {
		c = (BYTE)p[si++];
 8001026:	f816 3008 	ldrb.w	r3, [r6, r8]
		if (c <= ' ' || c == '/' || c == '\\') break;	/* Break on end of segment */
 800102a:	2b20      	cmp	r3, #32
		sfn[NS] = (c <= ' ') ? NS_LAST | NS_DOT : NS_DOT;	/* Set last segment flag if end of path */
		return FR_OK;
	}
#endif
	for (;;) {
		c = (BYTE)p[si++];
 800102c:	f108 0c01 	add.w	ip, r8, #1
		if (c <= ' ' || c == '/' || c == '\\') break;	/* Break on end of segment */
 8001030:	d955      	bls.n	80010de <follow_path+0x10e>
 8001032:	2b2f      	cmp	r3, #47	; 0x2f
 8001034:	d053      	beq.n	80010de <follow_path+0x10e>
 8001036:	2b5c      	cmp	r3, #92	; 0x5c
 8001038:	d051      	beq.n	80010de <follow_path+0x10e>
		if (c == '.' || i >= ni) {
 800103a:	2b2e      	cmp	r3, #46	; 0x2e
 800103c:	f000 80c0 	beq.w	80011c0 <follow_path+0x1f0>
 8001040:	428a      	cmp	r2, r1
 8001042:	f080 80b4 	bcs.w	80011ae <follow_path+0x1de>
 8001046:	e004      	b.n	8001052 <follow_path+0x82>
			if (ni != 8 || c != '.') return FR_INVALID_NAME;
			i = 8; ni = 11;
			b <<= 2; continue;
 8001048:	0080      	lsls	r0, r0, #2
	for (;;) {
		c = (BYTE)p[si++];
		if (c <= ' ' || c == '/' || c == '\\') break;	/* Break on end of segment */
		if (c == '.' || i >= ni) {
			if (ni != 8 || c != '.') return FR_INVALID_NAME;
			i = 8; ni = 11;
 800104a:	460a      	mov	r2, r1
			b <<= 2; continue;
 800104c:	b2c0      	uxtb	r0, r0
	for (;;) {
		c = (BYTE)p[si++];
		if (c <= ' ' || c == '/' || c == '\\') break;	/* Break on end of segment */
		if (c == '.' || i >= ni) {
			if (ni != 8 || c != '.') return FR_INVALID_NAME;
			i = 8; ni = 11;
 800104e:	210b      	movs	r1, #11
 8001050:	e7e8      	b.n	8001024 <follow_path+0x54>
#if !_DF1S	/* ASCII only cfg */
			return FR_INVALID_NAME;
#endif
#endif
		}
		if (IsDBCS1(c)) {				/* Check if it is a DBC 1st byte (always false on SBCS cfg) */
 8001052:	f103 097f 	add.w	r9, r3, #127	; 0x7f
		if (c == '.' || i >= ni) {
			if (ni != 8 || c != '.') return FR_INVALID_NAME;
			i = 8; ni = 11;
			b <<= 2; continue;
		}
		if (c >= 0x80) {				/* Extended char? */
 8001056:	f013 0f80 	tst.w	r3, #128	; 0x80
#if !_DF1S	/* ASCII only cfg */
			return FR_INVALID_NAME;
#endif
#endif
		}
		if (IsDBCS1(c)) {				/* Check if it is a DBC 1st byte (always false on SBCS cfg) */
 800105a:	fa5f f989 	uxtb.w	r9, r9
			if (ni != 8 || c != '.') return FR_INVALID_NAME;
			i = 8; ni = 11;
			b <<= 2; continue;
		}
		if (c >= 0x80) {				/* Extended char? */
			b |= 3;						/* Eliminate NT flag */
 800105e:	bf18      	it	ne
 8001060:	f040 0003 	orrne.w	r0, r0, #3
#if !_DF1S	/* ASCII only cfg */
			return FR_INVALID_NAME;
#endif
#endif
		}
		if (IsDBCS1(c)) {				/* Check if it is a DBC 1st byte (always false on SBCS cfg) */
 8001064:	f1b9 0f1e 	cmp.w	r9, #30
 8001068:	d906      	bls.n	8001078 <follow_path+0xa8>
 800106a:	f103 0920 	add.w	r9, r3, #32
 800106e:	fa5f f989 	uxtb.w	r9, r9
 8001072:	f1b9 0f1c 	cmp.w	r9, #28
 8001076:	d819      	bhi.n	80010ac <follow_path+0xdc>
			d = (BYTE)p[si++];			/* Get 2nd byte */
 8001078:	f816 900c 	ldrb.w	r9, [r6, ip]
 800107c:	f108 0c02 	add.w	ip, r8, #2
			if (!IsDBCS2(d) || i >= ni - 1)	/* Reject invalid DBC */
 8001080:	f1a9 0840 	sub.w	r8, r9, #64	; 0x40
 8001084:	f1b8 0f3e 	cmp.w	r8, #62	; 0x3e
 8001088:	d905      	bls.n	8001096 <follow_path+0xc6>
 800108a:	f089 0880 	eor.w	r8, r9, #128	; 0x80
 800108e:	f1b8 0f7c 	cmp.w	r8, #124	; 0x7c
 8001092:	f200 808c 	bhi.w	80011ae <follow_path+0x1de>
 8001096:	f101 38ff 	add.w	r8, r1, #4294967295
 800109a:	4542      	cmp	r2, r8
 800109c:	f080 8087 	bcs.w	80011ae <follow_path+0x1de>
				return FR_INVALID_NAME;
			sfn[i++] = c;
 80010a0:	54ab      	strb	r3, [r5, r2]
			sfn[i++] = d;
 80010a2:	18ab      	adds	r3, r5, r2
 80010a4:	3202      	adds	r2, #2
 80010a6:	f883 9001 	strb.w	r9, [r3, #1]
 80010aa:	e7bb      	b.n	8001024 <follow_path+0x54>
 80010ac:	f8df 911c 	ldr.w	r9, [pc, #284]	; 80011cc <follow_path+0x1fc>
}

/* Check if chr is contained in the string */
static
int chk_chr (const char* str, int chr) {
	while (*str && *str != chr) str++;
 80010b0:	f819 8f01 	ldrb.w	r8, [r9, #1]!
 80010b4:	f1b8 0f00 	cmp.w	r8, #0
 80010b8:	d07c      	beq.n	80011b4 <follow_path+0x1e4>
 80010ba:	4598      	cmp	r8, r3
 80010bc:	d1f8      	bne.n	80010b0 <follow_path+0xe0>
 80010be:	e076      	b.n	80011ae <follow_path+0x1de>
			sfn[i++] = d;
		} else {						/* Single byte code */
			if (chk_chr("\"*+,:;<=>\?[]|\x7F", c))	/* Reject illegal chrs for SFN */
				return FR_INVALID_NAME;
			if (IsUpper(c)) {			/* ASCII large capital? */
				b |= 2;
 80010c0:	f040 0002 	orr.w	r0, r0, #2
 80010c4:	e008      	b.n	80010d8 <follow_path+0x108>
			} else {
				if (IsLower(c)) {		/* ASCII small capital? */
 80010c6:	f1a3 0861 	sub.w	r8, r3, #97	; 0x61
 80010ca:	f1b8 0f19 	cmp.w	r8, #25
 80010ce:	d803      	bhi.n	80010d8 <follow_path+0x108>
					b |= 1; c -= 0x20;
 80010d0:	3b20      	subs	r3, #32
 80010d2:	f040 0001 	orr.w	r0, r0, #1
 80010d6:	b2db      	uxtb	r3, r3
				}
			}
			sfn[i++] = c;
 80010d8:	54ab      	strb	r3, [r5, r2]
 80010da:	3201      	adds	r2, #1
 80010dc:	e7a2      	b.n	8001024 <follow_path+0x54>
		}
	}
	*path = &p[si];						/* Return pointer to the next segment */
 80010de:	4466      	add	r6, ip
	c = (c <= ' ') ? NS_LAST : 0;		/* Set last segment flag if end of path */
 80010e0:	2b20      	cmp	r3, #32
 80010e2:	bf94      	ite	ls
 80010e4:	2304      	movls	r3, #4
 80010e6:	2300      	movhi	r3, #0

	if (!i) return FR_INVALID_NAME;		/* Reject nul string */
 80010e8:	2a00      	cmp	r2, #0
 80010ea:	d060      	beq.n	80011ae <follow_path+0x1de>
	if (sfn[0] == DDE) sfn[0] = NDDE;	/* When first char collides with DDE, replace it with 0x05 */
 80010ec:	782a      	ldrb	r2, [r5, #0]
 80010ee:	2ae5      	cmp	r2, #229	; 0xe5
 80010f0:	d101      	bne.n	80010f6 <follow_path+0x126>
 80010f2:	2205      	movs	r2, #5
 80010f4:	702a      	strb	r2, [r5, #0]

	if (ni == 8) b <<= 2;
 80010f6:	2908      	cmp	r1, #8
 80010f8:	d101      	bne.n	80010fe <follow_path+0x12e>
 80010fa:	0080      	lsls	r0, r0, #2
 80010fc:	b2c0      	uxtb	r0, r0
	if ((b & 0x03) == 0x01) c |= NS_EXT;	/* NT flag (Name extension has only small capital) */
 80010fe:	f000 0203 	and.w	r2, r0, #3
 8001102:	2a01      	cmp	r2, #1
	if ((b & 0x0C) == 0x04) c |= NS_BODY;	/* NT flag (Name body has only small capital) */
 8001104:	f000 000c 	and.w	r0, r0, #12

	if (!i) return FR_INVALID_NAME;		/* Reject nul string */
	if (sfn[0] == DDE) sfn[0] = NDDE;	/* When first char collides with DDE, replace it with 0x05 */

	if (ni == 8) b <<= 2;
	if ((b & 0x03) == 0x01) c |= NS_EXT;	/* NT flag (Name extension has only small capital) */
 8001108:	bf08      	it	eq
 800110a:	f043 0310 	orreq.w	r3, r3, #16
	if ((b & 0x0C) == 0x04) c |= NS_BODY;	/* NT flag (Name body has only small capital) */
 800110e:	2804      	cmp	r0, #4
 8001110:	bf08      	it	eq
 8001112:	f043 0308 	orreq.w	r3, r3, #8

	sfn[NS] = c;		/* Store NT flag, File name is created */
 8001116:	72eb      	strb	r3, [r5, #11]
	BYTE c, *dir;
#if _USE_LFN
	BYTE a, ord, sum;
#endif

	res = dir_sdi(dj, 0);			/* Rewind directory object */
 8001118:	4620      	mov	r0, r4
 800111a:	2100      	movs	r1, #0
 800111c:	f7ff fdd2 	bl	8000cc4 <dir_sdi>
	if (res != FR_OK) return res;
 8001120:	b9f0      	cbnz	r0, 8001160 <follow_path+0x190>

#if _USE_LFN
	ord = sum = 0xFF;
#endif
	do {
		res = move_window(dj->fs, dj->sect);
 8001122:	6820      	ldr	r0, [r4, #0]
 8001124:	6921      	ldr	r1, [r4, #16]
 8001126:	f7ff faea 	bl	80006fe <move_window>
		if (res != FR_OK) break;
 800112a:	b9c8      	cbnz	r0, 8001160 <follow_path+0x190>
		dir = dj->dir;					/* Ptr to the directory entry of current index */
 800112c:	6962      	ldr	r2, [r4, #20]
		c = dir[DIR_Name];
		if (c == 0) { res = FR_NO_FILE; break; }	/* Reached to end of table */
 800112e:	7813      	ldrb	r3, [r2, #0]
 8001130:	b1ab      	cbz	r3, 800115e <follow_path+0x18e>
				ord = 0xFF; dj->lfn_idx = 0xFFFF;	/* Reset LFN sequence */
				if (!(dj->fn[NS] & NS_LOSS) && !mem_cmp(dir, dj->fn, 11)) break;	/* SFN matched? */
			}
		}
#else		/* Non LFN configuration */
		if (!(dir[DIR_Attr] & AM_VOL) && !mem_cmp(dir, dj->fn, 11)) /* Is it a valid entry? */
 8001132:	7ad3      	ldrb	r3, [r2, #11]
 8001134:	f003 0308 	and.w	r3, r3, #8
 8001138:	b2db      	uxtb	r3, r3
 800113a:	b95b      	cbnz	r3, 8001154 <follow_path+0x184>
 800113c:	f8d4 c018 	ldr.w	ip, [r4, #24]
 8001140:	4603      	mov	r3, r0
 8001142:	e001      	b.n	8001148 <follow_path+0x178>
static
int mem_cmp (const void* dst, const void* src, UINT cnt) {
	const BYTE *d = (const BYTE *)dst, *s = (const BYTE *)src;
	int r = 0;

	while (cnt-- && (r = *d++ - *s++) == 0) ;
 8001144:	2b0b      	cmp	r3, #11
 8001146:	d00b      	beq.n	8001160 <follow_path+0x190>
 8001148:	5cd5      	ldrb	r5, [r2, r3]
 800114a:	f81c 1003 	ldrb.w	r1, [ip, r3]
 800114e:	3301      	adds	r3, #1
 8001150:	428d      	cmp	r5, r1
 8001152:	d0f7      	beq.n	8001144 <follow_path+0x174>
		}
#else		/* Non LFN configuration */
		if (!(dir[DIR_Attr] & AM_VOL) && !mem_cmp(dir, dj->fn, 11)) /* Is it a valid entry? */
			break;
#endif
		res = dir_next(dj, 0);		/* Next entry */
 8001154:	4620      	mov	r0, r4
 8001156:	2100      	movs	r1, #0
 8001158:	f7ff febc 	bl	8000ed4 <dir_next>
 800115c:	e7e0      	b.n	8001120 <follow_path+0x150>
	do {
		res = move_window(dj->fs, dj->sect);
		if (res != FR_OK) break;
		dir = dj->dir;					/* Ptr to the directory entry of current index */
		c = dir[DIR_Name];
		if (c == 0) { res = FR_NO_FILE; break; }	/* Reached to end of table */
 800115e:	2004      	movs	r0, #4
	} else {							/* Follow path */
		for (;;) {
			res = create_name(dj, &path);	/* Get a segment */
			if (res != FR_OK) break;
			res = dir_find(dj);				/* Find it */
			ns = *(dj->fn+NS);
 8001160:	69a3      	ldr	r3, [r4, #24]
 8001162:	7adb      	ldrb	r3, [r3, #11]
			if (res != FR_OK) {				/* Failed to find the object */
 8001164:	b150      	cbz	r0, 800117c <follow_path+0x1ac>
				if (res != FR_NO_FILE) break;	/* Abort if any hard error occured */
 8001166:	2804      	cmp	r0, #4
 8001168:	d12e      	bne.n	80011c8 <follow_path+0x1f8>
				if (_FS_RPATH && (ns & NS_DOT)) {	/* If dot entry is not exit */
					dj->sclust = 0; dj->dir = 0;	/* It is the root dir */
					res = FR_OK;
					if (!(ns & NS_LAST)) continue;
				} else {							/* Could not find the object */
					if (!(ns & NS_LAST)) res = FR_NO_PATH;
 800116a:	f003 0004 	and.w	r0, r3, #4
 800116e:	b2c0      	uxtb	r0, r0
 8001170:	2800      	cmp	r0, #0
 8001172:	bf14      	ite	ne
 8001174:	2004      	movne	r0, #4
 8001176:	2005      	moveq	r0, #5
 8001178:	e8bd 83f8 	ldmia.w	sp!, {r3, r4, r5, r6, r7, r8, r9, pc}
				}
				break;
			}
			if (ns & NS_LAST) break;			/* Last segment match. Function completed. */
 800117c:	f003 0304 	and.w	r3, r3, #4
 8001180:	b2db      	uxtb	r3, r3
 8001182:	bb0b      	cbnz	r3, 80011c8 <follow_path+0x1f8>
			dir = dj->dir;						/* There is next segment. Follow the sub directory */
 8001184:	6963      	ldr	r3, [r4, #20]
			if (!(dir[DIR_Attr] & AM_DIR)) {	/* Cannot follow because it is a file */
 8001186:	7ada      	ldrb	r2, [r3, #11]
 8001188:	f002 0210 	and.w	r2, r2, #16
 800118c:	b2d2      	uxtb	r2, r2
 800118e:	b15a      	cbz	r2, 80011a8 <follow_path+0x1d8>
				res = FR_NO_PATH; break;
			}
			dj->sclust = LD_CLUST(dir);
 8001190:	7d59      	ldrb	r1, [r3, #21]
 8001192:	7d1a      	ldrb	r2, [r3, #20]
 8001194:	ea42 2201 	orr.w	r2, r2, r1, lsl #8
 8001198:	7ed9      	ldrb	r1, [r3, #27]
 800119a:	7e9b      	ldrb	r3, [r3, #26]
 800119c:	ea43 2301 	orr.w	r3, r3, r1, lsl #8
 80011a0:	ea43 4302 	orr.w	r3, r3, r2, lsl #16
 80011a4:	60a3      	str	r3, [r4, #8]
		}
 80011a6:	e72a      	b.n	8000ffe <follow_path+0x2e>
				break;
			}
			if (ns & NS_LAST) break;			/* Last segment match. Function completed. */
			dir = dj->dir;						/* There is next segment. Follow the sub directory */
			if (!(dir[DIR_Attr] & AM_DIR)) {	/* Cannot follow because it is a file */
				res = FR_NO_PATH; break;
 80011a8:	2005      	movs	r0, #5
 80011aa:	e8bd 83f8 	ldmia.w	sp!, {r3, r4, r5, r6, r7, r8, r9, pc}
#endif
	for (;;) {
		c = (BYTE)p[si++];
		if (c <= ' ' || c == '/' || c == '\\') break;	/* Break on end of segment */
		if (c == '.' || i >= ni) {
			if (ni != 8 || c != '.') return FR_INVALID_NAME;
 80011ae:	2006      	movs	r0, #6
 80011b0:	e8bd 83f8 	ldmia.w	sp!, {r3, r4, r5, r6, r7, r8, r9, pc}
			sfn[i++] = c;
			sfn[i++] = d;
		} else {						/* Single byte code */
			if (chk_chr("\"*+,:;<=>\?[]|\x7F", c))	/* Reject illegal chrs for SFN */
				return FR_INVALID_NAME;
			if (IsUpper(c)) {			/* ASCII large capital? */
 80011b4:	f1a3 0841 	sub.w	r8, r3, #65	; 0x41
 80011b8:	f1b8 0f19 	cmp.w	r8, #25
 80011bc:	d980      	bls.n	80010c0 <follow_path+0xf0>
 80011be:	e782      	b.n	80010c6 <follow_path+0xf6>
#endif
	for (;;) {
		c = (BYTE)p[si++];
		if (c <= ' ' || c == '/' || c == '\\') break;	/* Break on end of segment */
		if (c == '.' || i >= ni) {
			if (ni != 8 || c != '.') return FR_INVALID_NAME;
 80011c0:	2908      	cmp	r1, #8
 80011c2:	f43f af41 	beq.w	8001048 <follow_path+0x78>
 80011c6:	e7f2      	b.n	80011ae <follow_path+0x1de>
			dj->sclust = LD_CLUST(dir);
		}
	}

	return res;
}
 80011c8:	e8bd 83f8 	ldmia.w	sp!, {r3, r4, r5, r6, r7, r8, r9, pc}
 80011cc:	0800315f 	.word	0x0800315f

080011d0 <dir_register>:
#if !_FS_READONLY
static
FRESULT dir_register (	/* FR_OK:Successful, FR_DENIED:No free entry or too many SFN collision, FR_DISK_ERR:Disk error */
	DIR *dj				/* Target directory with object name to be created */
)
{
 80011d0:	b538      	push	{r3, r4, r5, lr}
			} while (res == FR_OK && --ne);
		}
	}

#else	/* Non LFN configuration */
	res = dir_sdi(dj, 0);
 80011d2:	2100      	movs	r1, #0
#if !_FS_READONLY
static
FRESULT dir_register (	/* FR_OK:Successful, FR_DENIED:No free entry or too many SFN collision, FR_DISK_ERR:Disk error */
	DIR *dj				/* Target directory with object name to be created */
)
{
 80011d4:	4605      	mov	r5, r0
			} while (res == FR_OK && --ne);
		}
	}

#else	/* Non LFN configuration */
	res = dir_sdi(dj, 0);
 80011d6:	f7ff fd75 	bl	8000cc4 <dir_sdi>
	if (res == FR_OK) {
 80011da:	4604      	mov	r4, r0
 80011dc:	bb28      	cbnz	r0, 800122a <dir_register+0x5a>
		do {	/* Find a blank entry for the SFN */
			res = move_window(dj->fs, dj->sect);
 80011de:	6828      	ldr	r0, [r5, #0]
 80011e0:	6929      	ldr	r1, [r5, #16]
 80011e2:	f7ff fa8c 	bl	80006fe <move_window>
			if (res != FR_OK) break;
 80011e6:	4604      	mov	r4, r0
 80011e8:	b9f8      	cbnz	r0, 800122a <dir_register+0x5a>
			c = *dj->dir;
 80011ea:	696b      	ldr	r3, [r5, #20]
 80011ec:	781b      	ldrb	r3, [r3, #0]
			if (c == DDE || c == 0) break;	/* Is it a blank entry? */
 80011ee:	2be5      	cmp	r3, #229	; 0xe5
 80011f0:	d014      	beq.n	800121c <dir_register+0x4c>
 80011f2:	b19b      	cbz	r3, 800121c <dir_register+0x4c>
			res = dir_next(dj, 1);			/* Next entry with table stretch */
 80011f4:	4628      	mov	r0, r5
 80011f6:	2101      	movs	r1, #1
 80011f8:	f7ff fe6c 	bl	8000ed4 <dir_next>
 80011fc:	e7ed      	b.n	80011da <dir_register+0xa>
#endif

	if (res == FR_OK) {		/* Initialize the SFN entry */
		res = move_window(dj->fs, dj->sect);
		if (res == FR_OK) {
			dir = dj->dir;
 80011fe:	6968      	ldr	r0, [r5, #20]
 8001200:	4623      	mov	r3, r4
static
void mem_set (void* dst, int val, UINT cnt) {
	BYTE *d = (BYTE*)dst;

	while (cnt--)
		*d++ = (BYTE)val;
 8001202:	4622      	mov	r2, r4
 8001204:	54c2      	strb	r2, [r0, r3]
 8001206:	3301      	adds	r3, #1
/* Fill memory */
static
void mem_set (void* dst, int val, UINT cnt) {
	BYTE *d = (BYTE*)dst;

	while (cnt--)
 8001208:	2b20      	cmp	r3, #32
 800120a:	d1fb      	bne.n	8001204 <dir_register+0x34>
	if (res == FR_OK) {		/* Initialize the SFN entry */
		res = move_window(dj->fs, dj->sect);
		if (res == FR_OK) {
			dir = dj->dir;
			mem_set(dir, 0, SZ_DIR);	/* Clean the entry */
			mem_cpy(dir, dj->fn, 11);	/* Put SFN */
 800120c:	220b      	movs	r2, #11
 800120e:	69a9      	ldr	r1, [r5, #24]
 8001210:	f7ff fa2b 	bl	800066a <mem_cpy>
#if _USE_LFN
			dir[DIR_NTres] = *(dj->fn+NS) & (NS_BODY | NS_EXT);	/* Put NT flag */
#endif
			dj->fs->wflag = 1;
 8001214:	682b      	ldr	r3, [r5, #0]
 8001216:	2201      	movs	r2, #1
 8001218:	711a      	strb	r2, [r3, #4]
 800121a:	e006      	b.n	800122a <dir_register+0x5a>
		} while (res == FR_OK);
	}
#endif

	if (res == FR_OK) {		/* Initialize the SFN entry */
		res = move_window(dj->fs, dj->sect);
 800121c:	6828      	ldr	r0, [r5, #0]
 800121e:	6929      	ldr	r1, [r5, #16]
 8001220:	f7ff fa6d 	bl	80006fe <move_window>
		if (res == FR_OK) {
 8001224:	4604      	mov	r4, r0
 8001226:	2800      	cmp	r0, #0
 8001228:	d0e9      	beq.n	80011fe <dir_register+0x2e>
			dj->fs->wflag = 1;
		}
	}

	return res;
}
 800122a:	4620      	mov	r0, r4
 800122c:	bd38      	pop	{r3, r4, r5, pc}

0800122e <dir_read>:
#if _FS_MINIMIZE <= 1
static
FRESULT dir_read (
	DIR *dj			/* Pointer to the directory object that pointing the entry to be read */
)
{
 800122e:	b510      	push	{r4, lr}
	BYTE c, *dir;
#if _USE_LFN
	BYTE a, ord = 0xFF, sum = 0xFF;
#endif

	res = FR_NO_FILE;
 8001230:	2304      	movs	r3, #4
#if _FS_MINIMIZE <= 1
static
FRESULT dir_read (
	DIR *dj			/* Pointer to the directory object that pointing the entry to be read */
)
{
 8001232:	4604      	mov	r4, r0
#if _USE_LFN
	BYTE a, ord = 0xFF, sum = 0xFF;
#endif

	res = FR_NO_FILE;
	while (dj->sect) {
 8001234:	e015      	b.n	8001262 <dir_read+0x34>
		res = move_window(dj->fs, dj->sect);
 8001236:	6820      	ldr	r0, [r4, #0]
 8001238:	f7ff fa61 	bl	80006fe <move_window>
		if (res != FR_OK) break;
 800123c:	b9d8      	cbnz	r0, 8001276 <dir_read+0x48>
		dir = dj->dir;					/* Ptr to the directory entry of current index */
 800123e:	6962      	ldr	r2, [r4, #20]
		c = dir[DIR_Name];
 8001240:	7813      	ldrb	r3, [r2, #0]
		if (c == 0) { res = FR_NO_FILE; break; }	/* Reached to end of table */
 8001242:	b1bb      	cbz	r3, 8001274 <dir_read+0x46>
					dj->lfn_idx = 0xFFFF;		/* It has no LFN. */
				break;
			}
		}
#else		/* Non LFN configuration */
		if (c != DDE && (_FS_RPATH || c != '.') && !(dir[DIR_Attr] & AM_VOL))	/* Is it a valid entry? */
 8001244:	2be5      	cmp	r3, #229	; 0xe5
 8001246:	d006      	beq.n	8001256 <dir_read+0x28>
 8001248:	2b2e      	cmp	r3, #46	; 0x2e
 800124a:	d004      	beq.n	8001256 <dir_read+0x28>
 800124c:	7ad3      	ldrb	r3, [r2, #11]
 800124e:	f003 0308 	and.w	r3, r3, #8
 8001252:	b2db      	uxtb	r3, r3
 8001254:	b18b      	cbz	r3, 800127a <dir_read+0x4c>
			break;
#endif
		res = dir_next(dj, 0);				/* Next entry */
 8001256:	4620      	mov	r0, r4
 8001258:	2100      	movs	r1, #0
 800125a:	f7ff fe3b 	bl	8000ed4 <dir_next>
 800125e:	4603      	mov	r3, r0
		if (res != FR_OK) break;
 8001260:	b948      	cbnz	r0, 8001276 <dir_read+0x48>
#if _USE_LFN
	BYTE a, ord = 0xFF, sum = 0xFF;
#endif

	res = FR_NO_FILE;
	while (dj->sect) {
 8001262:	6921      	ldr	r1, [r4, #16]
 8001264:	2900      	cmp	r1, #0
 8001266:	d1e6      	bne.n	8001236 <dir_read+0x8>
 8001268:	4618      	mov	r0, r3
#endif
		res = dir_next(dj, 0);				/* Next entry */
		if (res != FR_OK) break;
	}

	if (res != FR_OK) dj->sect = 0;
 800126a:	b133      	cbz	r3, 800127a <dir_read+0x4c>
 800126c:	2200      	movs	r2, #0
 800126e:	6122      	str	r2, [r4, #16]
 8001270:	4618      	mov	r0, r3
 8001272:	bd10      	pop	{r4, pc}
	while (dj->sect) {
		res = move_window(dj->fs, dj->sect);
		if (res != FR_OK) break;
		dir = dj->dir;					/* Ptr to the directory entry of current index */
		c = dir[DIR_Name];
		if (c == 0) { res = FR_NO_FILE; break; }	/* Reached to end of table */
 8001274:	2004      	movs	r0, #4
#if _USE_LFN
	BYTE a, ord = 0xFF, sum = 0xFF;
#endif

	res = FR_NO_FILE;
	while (dj->sect) {
 8001276:	4603      	mov	r3, r0
 8001278:	e7f8      	b.n	800126c <dir_read+0x3e>
	}

	if (res != FR_OK) dj->sect = 0;

	return res;
}
 800127a:	bd10      	pop	{r4, pc}

0800127c <remove_chain>:
	DWORD nxt;
#if _USE_ERASE
	DWORD scl = clst, ecl = clst, resion[2];
#endif

	if (clst < 2 || clst >= fs->n_fatent) {	/* Check range */
 800127c:	2901      	cmp	r1, #1
static
FRESULT remove_chain (
	FATFS *fs,			/* File system object */
	DWORD clst			/* Cluster# to remove a chain from */
)
{
 800127e:	b5f8      	push	{r3, r4, r5, r6, r7, lr}
 8001280:	4604      	mov	r4, r0
 8001282:	460d      	mov	r5, r1
	DWORD nxt;
#if _USE_ERASE
	DWORD scl = clst, ecl = clst, resion[2];
#endif

	if (clst < 2 || clst >= fs->n_fatent) {	/* Check range */
 8001284:	d924      	bls.n	80012d0 <remove_chain+0x54>
 8001286:	6983      	ldr	r3, [r0, #24]
 8001288:	4299      	cmp	r1, r3
 800128a:	d221      	bcs.n	80012d0 <remove_chain+0x54>
 800128c:	e019      	b.n	80012c2 <remove_chain+0x46>
		res = FR_INT_ERR;

	} else {
		res = FR_OK;
		while (clst < fs->n_fatent) {			/* Not a last link? */
			nxt = get_fat(fs, clst);			/* Get cluster status */
 800128e:	4620      	mov	r0, r4
 8001290:	4629      	mov	r1, r5
 8001292:	f7ff fcb3 	bl	8000bfc <get_fat>
			if (nxt == 0) break;				/* Empty cluster? */
 8001296:	4606      	mov	r6, r0
 8001298:	b908      	cbnz	r0, 800129e <remove_chain+0x22>
static
FRESULT remove_chain (
	FATFS *fs,			/* File system object */
	DWORD clst			/* Cluster# to remove a chain from */
)
{
 800129a:	2000      	movs	r0, #0
 800129c:	bdf8      	pop	{r3, r4, r5, r6, r7, pc}
	} else {
		res = FR_OK;
		while (clst < fs->n_fatent) {			/* Not a last link? */
			nxt = get_fat(fs, clst);			/* Get cluster status */
			if (nxt == 0) break;				/* Empty cluster? */
			if (nxt == 1) { res = FR_INT_ERR; break; }	/* Internal error? */
 800129e:	2801      	cmp	r0, #1
 80012a0:	d016      	beq.n	80012d0 <remove_chain+0x54>
			if (nxt == 0xFFFFFFFF) { res = FR_DISK_ERR; break; }	/* Disk error? */
 80012a2:	1c41      	adds	r1, r0, #1
 80012a4:	d012      	beq.n	80012cc <remove_chain+0x50>
			res = put_fat(fs, clst, 0);			/* Mark the cluster "empty" */
 80012a6:	4620      	mov	r0, r4
 80012a8:	4629      	mov	r1, r5
 80012aa:	2200      	movs	r2, #0
 80012ac:	f7ff fd4c 	bl	8000d48 <put_fat>
			if (res != FR_OK) break;
 80012b0:	b978      	cbnz	r0, 80012d2 <remove_chain+0x56>
			if (fs->free_clust != 0xFFFFFFFF) {	/* Update FSInfo */
 80012b2:	6923      	ldr	r3, [r4, #16]
 80012b4:	1c5a      	adds	r2, r3, #1
 80012b6:	d002      	beq.n	80012be <remove_chain+0x42>
				fs->free_clust++;
 80012b8:	3301      	adds	r3, #1
 80012ba:	6123      	str	r3, [r4, #16]
				fs->fsi_flag = 1;
 80012bc:	7167      	strb	r7, [r4, #5]
static
FRESULT remove_chain (
	FATFS *fs,			/* File system object */
	DWORD clst			/* Cluster# to remove a chain from */
)
{
 80012be:	4635      	mov	r5, r6
 80012c0:	e000      	b.n	80012c4 <remove_chain+0x48>
			if (nxt == 0xFFFFFFFF) { res = FR_DISK_ERR; break; }	/* Disk error? */
			res = put_fat(fs, clst, 0);			/* Mark the cluster "empty" */
			if (res != FR_OK) break;
			if (fs->free_clust != 0xFFFFFFFF) {	/* Update FSInfo */
				fs->free_clust++;
				fs->fsi_flag = 1;
 80012c2:	2701      	movs	r7, #1
	if (clst < 2 || clst >= fs->n_fatent) {	/* Check range */
		res = FR_INT_ERR;

	} else {
		res = FR_OK;
		while (clst < fs->n_fatent) {			/* Not a last link? */
 80012c4:	69a3      	ldr	r3, [r4, #24]
 80012c6:	429d      	cmp	r5, r3
 80012c8:	d3e1      	bcc.n	800128e <remove_chain+0x12>
 80012ca:	e7e6      	b.n	800129a <remove_chain+0x1e>
			nxt = get_fat(fs, clst);			/* Get cluster status */
			if (nxt == 0) break;				/* Empty cluster? */
			if (nxt == 1) { res = FR_INT_ERR; break; }	/* Internal error? */
			if (nxt == 0xFFFFFFFF) { res = FR_DISK_ERR; break; }	/* Disk error? */
 80012cc:	2001      	movs	r0, #1
 80012ce:	bdf8      	pop	{r3, r4, r5, r6, r7, pc}
#if _USE_ERASE
	DWORD scl = clst, ecl = clst, resion[2];
#endif

	if (clst < 2 || clst >= fs->n_fatent) {	/* Check range */
		res = FR_INT_ERR;
 80012d0:	2002      	movs	r0, #2
			clst = nxt;	/* Next cluster */
		}
	}

	return res;
}
 80012d2:	bdf8      	pop	{r3, r4, r5, r6, r7, pc}

080012d4 <f_mount>:
)
{
	FATFS *rfs;


	if (vol >= _VOLUMES)		/* Check if the drive number is valid */
 80012d4:	b948      	cbnz	r0, 80012ea <f_mount+0x16>
		return FR_INVALID_DRIVE;
	rfs = FatFs[vol];			/* Get current fs object */
 80012d6:	4a06      	ldr	r2, [pc, #24]	; (80012f0 <f_mount+0x1c>)
 80012d8:	6813      	ldr	r3, [r2, #0]

	if (rfs) {
 80012da:	b103      	cbz	r3, 80012de <f_mount+0xa>
		clear_lock(rfs);
#endif
#if _FS_REENTRANT				/* Discard sync object of the current volume */
		if (!ff_del_syncobj(rfs->sobj)) return FR_INT_ERR;
#endif
		rfs->fs_type = 0;		/* Clear old fs object */
 80012dc:	7018      	strb	r0, [r3, #0]
	}

	if (fs) {
 80012de:	b109      	cbz	r1, 80012e4 <f_mount+0x10>
		fs->fs_type = 0;		/* Clear new fs object */
 80012e0:	2300      	movs	r3, #0
 80012e2:	700b      	strb	r3, [r1, #0]
#if _FS_REENTRANT				/* Create sync object for the new volume */
		if (!ff_cre_syncobj(vol, &fs->sobj)) return FR_INT_ERR;
#endif
	}
	FatFs[vol] = fs;			/* Register new fs object */
 80012e4:	6011      	str	r1, [r2, #0]

	return FR_OK;
 80012e6:	2000      	movs	r0, #0
 80012e8:	4770      	bx	lr
{
	FATFS *rfs;


	if (vol >= _VOLUMES)		/* Check if the drive number is valid */
		return FR_INVALID_DRIVE;
 80012ea:	200b      	movs	r0, #11
#endif
	}
	FatFs[vol] = fs;			/* Register new fs object */

	return FR_OK;
}
 80012ec:	4770      	bx	lr
 80012ee:	bf00      	nop
 80012f0:	20000004 	.word	0x20000004

080012f4 <f_open>:
FRESULT f_open (
	FIL *fp,			/* Pointer to the blank file object */
	const TCHAR *path,	/* Pointer to the file name */
	BYTE mode			/* Access mode and file open mode flags */
)
{
 80012f4:	e92d 41f0 	stmdb	sp!, {r4, r5, r6, r7, r8, lr}
 80012f8:	b08c      	sub	sp, #48	; 0x30
 80012fa:	4605      	mov	r5, r0
 80012fc:	a80c      	add	r0, sp, #48	; 0x30
	DIR dj;
	BYTE *dir;
	DEF_NAMEBUF;


	fp->fs = 0;			/* Clear file object */
 80012fe:	2300      	movs	r3, #0
FRESULT f_open (
	FIL *fp,			/* Pointer to the blank file object */
	const TCHAR *path,	/* Pointer to the file name */
	BYTE mode			/* Access mode and file open mode flags */
)
{
 8001300:	f840 1d2c 	str.w	r1, [r0, #-44]!
	DIR dj;
	BYTE *dir;
	DEF_NAMEBUF;


	fp->fs = 0;			/* Clear file object */
 8001304:	602b      	str	r3, [r5, #0]
FRESULT f_open (
	FIL *fp,			/* Pointer to the blank file object */
	const TCHAR *path,	/* Pointer to the file name */
	BYTE mode			/* Access mode and file open mode flags */
)
{
 8001306:	4617      	mov	r7, r2


	fp->fs = 0;			/* Clear file object */

#if !_FS_READONLY
	mode &= FA_READ | FA_WRITE | FA_CREATE_ALWAYS | FA_OPEN_ALWAYS | FA_CREATE_NEW;
 8001308:	f002 061f 	and.w	r6, r2, #31
	res = chk_mounted(&path, &dj.fs, (BYTE)(mode & ~FA_READ));
 800130c:	a905      	add	r1, sp, #20
 800130e:	f002 021e 	and.w	r2, r2, #30
 8001312:	f7ff fae3 	bl	80008dc <chk_mounted>
#else
	mode &= FA_READ;
	res = chk_mounted(&path, &dj.fs, 0);
#endif
	INIT_BUF(dj);
 8001316:	ab02      	add	r3, sp, #8
 8001318:	930b      	str	r3, [sp, #44]	; 0x2c
	if (res == FR_OK)
 800131a:	b918      	cbnz	r0, 8001324 <f_open+0x30>
		res = follow_path(&dj, path);	/* Follow the file path */
 800131c:	a805      	add	r0, sp, #20
 800131e:	9901      	ldr	r1, [sp, #4]
 8001320:	f7ff fe56 	bl	8000fd0 <follow_path>
	dir = dj.dir;
 8001324:	9c0a      	ldr	r4, [sp, #40]	; 0x28

#if !_FS_READONLY	/* R/W configuration */
	if (res == FR_OK) {
 8001326:	b918      	cbnz	r0, 8001330 <f_open+0x3c>
		if (!dir)	/* Current dir itself */
			res = FR_INVALID_NAME;
 8001328:	2c00      	cmp	r4, #0
 800132a:	bf0c      	ite	eq
 800132c:	2006      	moveq	r0, #6
 800132e:	2000      	movne	r0, #0
		else
			res = chk_lock(&dj, (mode & ~FA_READ) ? 1 : 0);
#endif
	}
	/* Create or Open a file */
	if (mode & (FA_CREATE_ALWAYS | FA_OPEN_ALWAYS | FA_CREATE_NEW)) {
 8001330:	f017 0f1c 	tst.w	r7, #28
 8001334:	d049      	beq.n	80013ca <f_open+0xd6>
		DWORD dw, cl;

		if (res != FR_OK) {					/* No file, create new */
 8001336:	b148      	cbz	r0, 800134c <f_open+0x58>
			if (res == FR_NO_FILE)			/* There is no file to open, create a new entry */
 8001338:	2804      	cmp	r0, #4
 800133a:	d102      	bne.n	8001342 <f_open+0x4e>
#if _FS_SHARE
				res = enq_lock() ? dir_register(&dj) : FR_TOO_MANY_OPEN_FILES;
#else
				res = dir_register(&dj);
 800133c:	a805      	add	r0, sp, #20
 800133e:	f7ff ff47 	bl	80011d0 <dir_register>
#endif
			mode |= FA_CREATE_ALWAYS;		/* File is created */
 8001342:	f046 0608 	orr.w	r6, r6, #8
			dir = dj.dir;					/* New entry */
 8001346:	9c0a      	ldr	r4, [sp, #40]	; 0x28
			} else {
				if (mode & FA_CREATE_NEW)	/* Cannot create as new file */
					res = FR_EXIST;
			}
		}
		if (res == FR_OK && (mode & FA_CREATE_ALWAYS)) {	/* Truncate it if overwrite mode */
 8001348:	b148      	cbz	r0, 800135e <f_open+0x6a>
 800134a:	e079      	b.n	8001440 <f_open+0x14c>
#endif
			mode |= FA_CREATE_ALWAYS;		/* File is created */
			dir = dj.dir;					/* New entry */
		}
		else {								/* Any object is already existing */
			if (dir[DIR_Attr] & (AM_RDO | AM_DIR)) {	/* Cannot overwrite it (R/O or DIR) */
 800134c:	7ae3      	ldrb	r3, [r4, #11]
 800134e:	f013 0f11 	tst.w	r3, #17
 8001352:	d174      	bne.n	800143e <f_open+0x14a>
				res = FR_DENIED;
			} else {
				if (mode & FA_CREATE_NEW)	/* Cannot create as new file */
 8001354:	f007 0704 	and.w	r7, r7, #4
 8001358:	b2ff      	uxtb	r7, r7
 800135a:	2f00      	cmp	r7, #0
 800135c:	d16b      	bne.n	8001436 <f_open+0x142>
					res = FR_EXIST;
			}
		}
		if (res == FR_OK && (mode & FA_CREATE_ALWAYS)) {	/* Truncate it if overwrite mode */
 800135e:	f006 0308 	and.w	r3, r6, #8
 8001362:	b2db      	uxtb	r3, r3
 8001364:	2b00      	cmp	r3, #0
 8001366:	d03e      	beq.n	80013e6 <f_open+0xf2>
			dw = get_fattime();					/* Created time */
 8001368:	f7ff f97d 	bl	8000666 <get_fattime>
			ST_DWORD(dir+DIR_CrtTime, dw);
			dir[DIR_Attr] = 0;					/* Reset attribute */
			ST_DWORD(dir+DIR_FileSize, 0);		/* size = 0 */
			cl = LD_CLUST(dir);					/* Get start cluster */
 800136c:	7d22      	ldrb	r2, [r4, #20]
 800136e:	7d67      	ldrb	r7, [r4, #21]
 8001370:	7ee1      	ldrb	r1, [r4, #27]
					res = FR_EXIST;
			}
		}
		if (res == FR_OK && (mode & FA_CREATE_ALWAYS)) {	/* Truncate it if overwrite mode */
			dw = get_fattime();					/* Created time */
			ST_DWORD(dir+DIR_CrtTime, dw);
 8001372:	73a0      	strb	r0, [r4, #14]
 8001374:	f3c0 2307 	ubfx	r3, r0, #8, #8
			dir[DIR_Attr] = 0;					/* Reset attribute */
			ST_DWORD(dir+DIR_FileSize, 0);		/* size = 0 */
			cl = LD_CLUST(dir);					/* Get start cluster */
 8001378:	ea42 2707 	orr.w	r7, r2, r7, lsl #8
 800137c:	7ea2      	ldrb	r2, [r4, #26]
					res = FR_EXIST;
			}
		}
		if (res == FR_OK && (mode & FA_CREATE_ALWAYS)) {	/* Truncate it if overwrite mode */
			dw = get_fattime();					/* Created time */
			ST_DWORD(dir+DIR_CrtTime, dw);
 800137e:	73e3      	strb	r3, [r4, #15]
 8001380:	0c03      	lsrs	r3, r0, #16
 8001382:	0e00      	lsrs	r0, r0, #24
 8001384:	7423      	strb	r3, [r4, #16]
 8001386:	7460      	strb	r0, [r4, #17]
			dir[DIR_Attr] = 0;					/* Reset attribute */
 8001388:	2300      	movs	r3, #0
			ST_DWORD(dir+DIR_FileSize, 0);		/* size = 0 */
			cl = LD_CLUST(dir);					/* Get start cluster */
 800138a:	ea42 2201 	orr.w	r2, r2, r1, lsl #8
			ST_CLUST(dir, 0);					/* cluster = 0 */
			dj.fs->wflag = 1;
 800138e:	9805      	ldr	r0, [sp, #20]
			}
		}
		if (res == FR_OK && (mode & FA_CREATE_ALWAYS)) {	/* Truncate it if overwrite mode */
			dw = get_fattime();					/* Created time */
			ST_DWORD(dir+DIR_CrtTime, dw);
			dir[DIR_Attr] = 0;					/* Reset attribute */
 8001390:	72e3      	strb	r3, [r4, #11]
			ST_DWORD(dir+DIR_FileSize, 0);		/* size = 0 */
 8001392:	7723      	strb	r3, [r4, #28]
 8001394:	7763      	strb	r3, [r4, #29]
 8001396:	77a3      	strb	r3, [r4, #30]
 8001398:	77e3      	strb	r3, [r4, #31]
			cl = LD_CLUST(dir);					/* Get start cluster */
			ST_CLUST(dir, 0);					/* cluster = 0 */
 800139a:	76a3      	strb	r3, [r4, #26]
 800139c:	76e3      	strb	r3, [r4, #27]
 800139e:	7523      	strb	r3, [r4, #20]
 80013a0:	7563      	strb	r3, [r4, #21]
			dj.fs->wflag = 1;
 80013a2:	2301      	movs	r3, #1
			if (cl) {							/* Remove the cluster chain if exist */
 80013a4:	ea52 4707 	orrs.w	r7, r2, r7, lsl #16
			ST_DWORD(dir+DIR_CrtTime, dw);
			dir[DIR_Attr] = 0;					/* Reset attribute */
			ST_DWORD(dir+DIR_FileSize, 0);		/* size = 0 */
			cl = LD_CLUST(dir);					/* Get start cluster */
			ST_CLUST(dir, 0);					/* cluster = 0 */
			dj.fs->wflag = 1;
 80013a8:	7103      	strb	r3, [r0, #4]
			if (cl) {							/* Remove the cluster chain if exist */
 80013aa:	d01c      	beq.n	80013e6 <f_open+0xf2>
				dw = dj.fs->winsect;
				res = remove_chain(dj.fs, cl);
 80013ac:	4639      	mov	r1, r7
			ST_DWORD(dir+DIR_FileSize, 0);		/* size = 0 */
			cl = LD_CLUST(dir);					/* Get start cluster */
			ST_CLUST(dir, 0);					/* cluster = 0 */
			dj.fs->wflag = 1;
			if (cl) {							/* Remove the cluster chain if exist */
				dw = dj.fs->winsect;
 80013ae:	f8d0 802c 	ldr.w	r8, [r0, #44]	; 0x2c
				res = remove_chain(dj.fs, cl);
 80013b2:	f7ff ff63 	bl	800127c <remove_chain>
				if (res == FR_OK) {
 80013b6:	2800      	cmp	r0, #0
 80013b8:	d142      	bne.n	8001440 <f_open+0x14c>
					dj.fs->last_clust = cl - 1;	/* Reuse the cluster hole */
 80013ba:	9805      	ldr	r0, [sp, #20]
 80013bc:	3f01      	subs	r7, #1
 80013be:	60c7      	str	r7, [r0, #12]
					res = move_window(dj.fs, dw);
 80013c0:	4641      	mov	r1, r8
 80013c2:	f7ff f99c 	bl	80006fe <move_window>
				if ((mode & FA_WRITE) && (dir[DIR_Attr] & AM_RDO)) /* R/O violation */
					res = FR_DENIED;
			}
		}
	}
	if (res == FR_OK) {
 80013c6:	b170      	cbz	r0, 80013e6 <f_open+0xf2>
 80013c8:	e03a      	b.n	8001440 <f_open+0x14c>
				}
			}
		}
	}
	else {	/* Open an existing file */
		if (res == FR_OK) {						/* Follow succeeded */
 80013ca:	2800      	cmp	r0, #0
 80013cc:	d138      	bne.n	8001440 <f_open+0x14c>
			if (dir[DIR_Attr] & AM_DIR) {		/* It is a directory */
 80013ce:	7ae3      	ldrb	r3, [r4, #11]
 80013d0:	f003 0210 	and.w	r2, r3, #16
 80013d4:	b2d2      	uxtb	r2, r2
 80013d6:	2a00      	cmp	r2, #0
 80013d8:	d12f      	bne.n	800143a <f_open+0x146>
				res = FR_NO_FILE;
			} else {
				if ((mode & FA_WRITE) && (dir[DIR_Attr] & AM_RDO)) /* R/O violation */
 80013da:	f007 0702 	and.w	r7, r7, #2
 80013de:	b2ff      	uxtb	r7, r7
 80013e0:	b10f      	cbz	r7, 80013e6 <f_open+0xf2>
 80013e2:	07d8      	lsls	r0, r3, #31
 80013e4:	d42b      	bmi.n	800143e <f_open+0x14a>
					res = FR_DENIED;
			}
		}
	}
	if (res == FR_OK) {
		if (mode & FA_CREATE_ALWAYS)			/* Set file change flag if created or overwritten */
 80013e6:	f006 0308 	and.w	r3, r6, #8
 80013ea:	b2db      	uxtb	r3, r3
 80013ec:	b10b      	cbz	r3, 80013f2 <f_open+0xfe>
			mode |= FA__WRITTEN;
 80013ee:	f046 0620 	orr.w	r6, r6, #32
		fp->dir_sect = dj.fs->winsect;			/* Pointer to the directory entry */
 80013f2:	9b05      	ldr	r3, [sp, #20]
 80013f4:	6ada      	ldr	r2, [r3, #44]	; 0x2c
	}
#endif
	FREE_BUF();

	if (res == FR_OK) {
		fp->flag = mode;					/* File access mode */
 80013f6:	71ae      	strb	r6, [r5, #6]
		}
	}
	if (res == FR_OK) {
		if (mode & FA_CREATE_ALWAYS)			/* Set file change flag if created or overwritten */
			mode |= FA__WRITTEN;
		fp->dir_sect = dj.fs->winsect;			/* Pointer to the directory entry */
 80013f8:	61ea      	str	r2, [r5, #28]
		fp->dir_ptr = dir;
 80013fa:	622c      	str	r4, [r5, #32]
#endif
	FREE_BUF();

	if (res == FR_OK) {
		fp->flag = mode;					/* File access mode */
		fp->sclust = LD_CLUST(dir);			/* File start cluster */
 80013fc:	7d22      	ldrb	r2, [r4, #20]
 80013fe:	7d61      	ldrb	r1, [r4, #21]
 8001400:	7ee0      	ldrb	r0, [r4, #27]
 8001402:	ea42 2101 	orr.w	r1, r2, r1, lsl #8
 8001406:	7ea2      	ldrb	r2, [r4, #26]
 8001408:	ea42 2200 	orr.w	r2, r2, r0, lsl #8
 800140c:	ea42 4201 	orr.w	r2, r2, r1, lsl #16
 8001410:	612a      	str	r2, [r5, #16]
		fp->fsize = LD_DWORD(dir+DIR_FileSize);	/* File size */
 8001412:	7fa2      	ldrb	r2, [r4, #30]
 8001414:	7fe1      	ldrb	r1, [r4, #31]
 8001416:	0412      	lsls	r2, r2, #16
 8001418:	ea42 6201 	orr.w	r2, r2, r1, lsl #24
 800141c:	7f21      	ldrb	r1, [r4, #28]
 800141e:	430a      	orrs	r2, r1
 8001420:	7f61      	ldrb	r1, [r4, #29]
		fp->fptr = 0;						/* File pointer */
		fp->dsect = 0;
#if _USE_FASTSEEK
		fp->cltbl = 0;						/* Normal seek mode */
#endif
		fp->fs = dj.fs; fp->id = dj.fs->id;	/* Validate file object */
 8001422:	602b      	str	r3, [r5, #0]
 8001424:	88db      	ldrh	r3, [r3, #6]

	if (res == FR_OK) {
		fp->flag = mode;					/* File access mode */
		fp->sclust = LD_CLUST(dir);			/* File start cluster */
		fp->fsize = LD_DWORD(dir+DIR_FileSize);	/* File size */
		fp->fptr = 0;						/* File pointer */
 8001426:	2000      	movs	r0, #0
	FREE_BUF();

	if (res == FR_OK) {
		fp->flag = mode;					/* File access mode */
		fp->sclust = LD_CLUST(dir);			/* File start cluster */
		fp->fsize = LD_DWORD(dir+DIR_FileSize);	/* File size */
 8001428:	ea42 2201 	orr.w	r2, r2, r1, lsl #8
 800142c:	60ea      	str	r2, [r5, #12]
		fp->fptr = 0;						/* File pointer */
 800142e:	60a8      	str	r0, [r5, #8]
		fp->dsect = 0;
 8001430:	61a8      	str	r0, [r5, #24]
#if _USE_FASTSEEK
		fp->cltbl = 0;						/* Normal seek mode */
#endif
		fp->fs = dj.fs; fp->id = dj.fs->id;	/* Validate file object */
 8001432:	80ab      	strh	r3, [r5, #4]
 8001434:	e004      	b.n	8001440 <f_open+0x14c>
		else {								/* Any object is already existing */
			if (dir[DIR_Attr] & (AM_RDO | AM_DIR)) {	/* Cannot overwrite it (R/O or DIR) */
				res = FR_DENIED;
			} else {
				if (mode & FA_CREATE_NEW)	/* Cannot create as new file */
					res = FR_EXIST;
 8001436:	2008      	movs	r0, #8
 8001438:	e002      	b.n	8001440 <f_open+0x14c>
		}
	}
	else {	/* Open an existing file */
		if (res == FR_OK) {						/* Follow succeeded */
			if (dir[DIR_Attr] & AM_DIR) {		/* It is a directory */
				res = FR_NO_FILE;
 800143a:	2004      	movs	r0, #4
 800143c:	e000      	b.n	8001440 <f_open+0x14c>
			} else {
				if ((mode & FA_WRITE) && (dir[DIR_Attr] & AM_RDO)) /* R/O violation */
					res = FR_DENIED;
 800143e:	2007      	movs	r0, #7
#endif
		fp->fs = dj.fs; fp->id = dj.fs->id;	/* Validate file object */
	}

	LEAVE_FF(dj.fs, res);
}
 8001440:	b00c      	add	sp, #48	; 0x30
 8001442:	e8bd 81f0 	ldmia.w	sp!, {r4, r5, r6, r7, r8, pc}

08001446 <f_read>:
	FIL *fp, 		/* Pointer to the file object */
	void *buff,		/* Pointer to data buffer */
	UINT btr,		/* Number of bytes to read */
	UINT *br		/* Pointer to number of bytes read */
)
{
 8001446:	e92d 4ff7 	stmdb	sp!, {r0, r1, r2, r4, r5, r6, r7, r8, r9, sl, fp, lr}
 800144a:	4604      	mov	r4, r0
 800144c:	4699      	mov	r9, r3
	DWORD clst, sect, remain;
	UINT rcnt, cc;
	BYTE csect, *rbuff = buff;


	*br = 0;	/* Initialize byte counter */
 800144e:	2300      	movs	r3, #0
	FIL *fp, 		/* Pointer to the file object */
	void *buff,		/* Pointer to data buffer */
	UINT btr,		/* Number of bytes to read */
	UINT *br		/* Pointer to number of bytes read */
)
{
 8001450:	4688      	mov	r8, r1
	DWORD clst, sect, remain;
	UINT rcnt, cc;
	BYTE csect, *rbuff = buff;


	*br = 0;	/* Initialize byte counter */
 8001452:	f8c9 3000 	str.w	r3, [r9]

	res = validate(fp->fs, fp->id);				/* Check validity */
 8001456:	6800      	ldr	r0, [r0, #0]
 8001458:	88a1      	ldrh	r1, [r4, #4]
	FIL *fp, 		/* Pointer to the file object */
	void *buff,		/* Pointer to data buffer */
	UINT btr,		/* Number of bytes to read */
	UINT *br		/* Pointer to number of bytes read */
)
{
 800145a:	4617      	mov	r7, r2
	BYTE csect, *rbuff = buff;


	*br = 0;	/* Initialize byte counter */

	res = validate(fp->fs, fp->id);				/* Check validity */
 800145c:	f7ff f9e7 	bl	800082e <validate>
	if (res != FR_OK) LEAVE_FF(fp->fs, res);
 8001460:	4605      	mov	r5, r0
 8001462:	2800      	cmp	r0, #0
 8001464:	f040 80a2 	bne.w	80015ac <f_read+0x166>
	if (fp->flag & FA__ERROR)					/* Aborted file? */
 8001468:	79a3      	ldrb	r3, [r4, #6]
 800146a:	0619      	lsls	r1, r3, #24
 800146c:	f100 809b 	bmi.w	80015a6 <f_read+0x160>
		LEAVE_FF(fp->fs, FR_INT_ERR);
	if (!(fp->flag & FA_READ)) 					/* Check access mode */
 8001470:	07da      	lsls	r2, r3, #31
 8001472:	f140 809a 	bpl.w	80015aa <f_read+0x164>
		LEAVE_FF(fp->fs, FR_DENIED);
	remain = fp->fsize - fp->fptr;
 8001476:	68e0      	ldr	r0, [r4, #12]
 8001478:	68a3      	ldr	r3, [r4, #8]
 800147a:	1ac6      	subs	r6, r0, r3
 800147c:	42b7      	cmp	r7, r6
 800147e:	bf38      	it	cc
 8001480:	463e      	movcc	r6, r7
					if (disk_write(fp->fs->drv, fp->buf, fp->dsect, 1) != RES_OK)
						ABORT(fp->fs, FR_DISK_ERR);
					fp->flag &= ~FA__DIRTY;
				}
#endif
				if (disk_read(fp->fs->drv, fp->buf, sect, 1) != RES_OK)	/* Fill sector cache */
 8001482:	f104 0a24 	add.w	sl, r4, #36	; 0x24
 8001486:	e08a      	b.n	800159e <f_read+0x158>
	remain = fp->fsize - fp->fptr;
	if (btr > remain) btr = (UINT)remain;		/* Truncate btr by remaining bytes */

	for ( ;  btr;								/* Repeat until all data read */
		rbuff += rcnt, fp->fptr += rcnt, *br += rcnt, btr -= rcnt) {
		if ((fp->fptr % SS(fp->fs)) == 0) {		/* On the sector boundary? */
 8001488:	68a3      	ldr	r3, [r4, #8]
 800148a:	05da      	lsls	r2, r3, #23
 800148c:	d16f      	bne.n	800156e <f_read+0x128>
			csect = (BYTE)(fp->fptr / SS(fp->fs) & (fp->fs->csize - 1));	/* Sector offset in the cluster */
 800148e:	6820      	ldr	r0, [r4, #0]
 8001490:	7882      	ldrb	r2, [r0, #2]
 8001492:	3a01      	subs	r2, #1
 8001494:	ea02 2253 	and.w	r2, r2, r3, lsr #9
			if (!csect) {						/* On the cluster boundary? */
 8001498:	f012 02ff 	ands.w	r2, r2, #255	; 0xff
 800149c:	d10e      	bne.n	80014bc <f_read+0x76>
				if (fp->fptr == 0) {			/* On the top of the file? */
 800149e:	b90b      	cbnz	r3, 80014a4 <f_read+0x5e>
					clst = fp->sclust;			/* Follow from the origin */
 80014a0:	6920      	ldr	r0, [r4, #16]
 80014a2:	e004      	b.n	80014ae <f_read+0x68>
#if _USE_FASTSEEK
					if (fp->cltbl)
						clst = clmt_clust(fp, fp->fptr);	/* Get cluster# from the CLMT */
					else
#endif
						clst = get_fat(fp->fs, fp->clust);	/* Follow cluster chain on the FAT */
 80014a4:	6961      	ldr	r1, [r4, #20]
 80014a6:	9200      	str	r2, [sp, #0]
 80014a8:	f7ff fba8 	bl	8000bfc <get_fat>
 80014ac:	9a00      	ldr	r2, [sp, #0]
				}
				if (clst < 2) ABORT(fp->fs, FR_INT_ERR);
 80014ae:	2801      	cmp	r0, #1
 80014b0:	d800      	bhi.n	80014b4 <f_read+0x6e>
 80014b2:	e00d      	b.n	80014d0 <f_read+0x8a>
				if (clst == 0xFFFFFFFF) ABORT(fp->fs, FR_DISK_ERR);
 80014b4:	1c43      	adds	r3, r0, #1
 80014b6:	d100      	bne.n	80014ba <f_read+0x74>
 80014b8:	e052      	b.n	8001560 <f_read+0x11a>
				fp->clust = clst;				/* Update current cluster */
 80014ba:	6160      	str	r0, [r4, #20]
			}
			sect = clust2sect(fp->fs, fp->clust);	/* Get current sector */
 80014bc:	6823      	ldr	r3, [r4, #0]
 80014be:	6961      	ldr	r1, [r4, #20]
 80014c0:	4618      	mov	r0, r3
 80014c2:	e88d 000c 	stmia.w	sp, {r2, r3}
 80014c6:	f7ff fb8d 	bl	8000be4 <clust2sect>
			if (!sect) ABORT(fp->fs, FR_INT_ERR);
 80014ca:	e89d 000c 	ldmia.w	sp, {r2, r3}
 80014ce:	b920      	cbnz	r0, 80014da <f_read+0x94>
 80014d0:	79a3      	ldrb	r3, [r4, #6]
 80014d2:	f063 037f 	orn	r3, r3, #127	; 0x7f
 80014d6:	71a3      	strb	r3, [r4, #6]
 80014d8:	e065      	b.n	80015a6 <f_read+0x160>
			sect += csect;
			cc = btr / SS(fp->fs);				/* When remaining bytes >= sector size, */
			if (cc) {							/* Read maximum contiguous sectors directly */
 80014da:	ea5f 2b56 	movs.w	fp, r6, lsr #9
				if (clst == 0xFFFFFFFF) ABORT(fp->fs, FR_DISK_ERR);
				fp->clust = clst;				/* Update current cluster */
			}
			sect = clust2sect(fp->fs, fp->clust);	/* Get current sector */
			if (!sect) ABORT(fp->fs, FR_INT_ERR);
			sect += csect;
 80014de:	eb00 0702 	add.w	r7, r0, r2
			cc = btr / SS(fp->fs);				/* When remaining bytes >= sector size, */
			if (cc) {							/* Read maximum contiguous sectors directly */
 80014e2:	d022      	beq.n	800152a <f_read+0xe4>
				if (csect + cc > fp->fs->csize)	/* Clip at cluster boundary */
 80014e4:	7899      	ldrb	r1, [r3, #2]
 80014e6:	eb0b 0002 	add.w	r0, fp, r2
 80014ea:	4288      	cmp	r0, r1
					cc = fp->fs->csize - csect;
 80014ec:	bf88      	it	hi
 80014ee:	ebc2 0b01 	rsbhi	fp, r2, r1
				if (disk_read(fp->fs->drv, rbuff, sect, (BYTE)cc) != RES_OK)
 80014f2:	7858      	ldrb	r0, [r3, #1]
 80014f4:	4641      	mov	r1, r8
 80014f6:	fa5f f38b 	uxtb.w	r3, fp
 80014fa:	463a      	mov	r2, r7
 80014fc:	f7ff f82c 	bl	8000558 <disk_read>
 8001500:	79a3      	ldrb	r3, [r4, #6]
 8001502:	b100      	cbz	r0, 8001506 <f_read+0xc0>
 8001504:	e02d      	b.n	8001562 <f_read+0x11c>
#if !_FS_READONLY && _FS_MINIMIZE <= 2			/* Replace one of the read sectors with cached data if it contains a dirty sector */
#if _FS_TINY
				if (fp->fs->wflag && fp->fs->winsect - sect < cc)
					mem_cpy(rbuff + ((fp->fs->winsect - sect) * SS(fp->fs)), fp->fs->win, SS(fp->fs));
#else
				if ((fp->flag & FA__DIRTY) && fp->dsect - sect < cc)
 8001506:	f003 0340 	and.w	r3, r3, #64	; 0x40
 800150a:	b2db      	uxtb	r3, r3
 800150c:	b153      	cbz	r3, 8001524 <f_read+0xde>
 800150e:	69a3      	ldr	r3, [r4, #24]
 8001510:	1bd8      	subs	r0, r3, r7
 8001512:	4558      	cmp	r0, fp
 8001514:	d206      	bcs.n	8001524 <f_read+0xde>
					mem_cpy(rbuff + ((fp->dsect - sect) * SS(fp->fs)), fp->buf, SS(fp->fs));
 8001516:	eb08 2040 	add.w	r0, r8, r0, lsl #9
 800151a:	4651      	mov	r1, sl
 800151c:	f44f 7200 	mov.w	r2, #512	; 0x200
 8001520:	f7ff f8a3 	bl	800066a <mem_cpy>
#endif
#endif
				rcnt = SS(fp->fs) * cc;			/* Number of bytes transferred */
 8001524:	ea4f 274b 	mov.w	r7, fp, lsl #9
				continue;
 8001528:	e02f      	b.n	800158a <f_read+0x144>
			}
#if !_FS_TINY
			if (fp->dsect != sect) {			/* Load data sector if not in cache */
 800152a:	69a2      	ldr	r2, [r4, #24]
 800152c:	42ba      	cmp	r2, r7
 800152e:	d01d      	beq.n	800156c <f_read+0x126>
#if !_FS_READONLY
				if (fp->flag & FA__DIRTY) {		/* Write-back dirty sector cache */
 8001530:	79a1      	ldrb	r1, [r4, #6]
 8001532:	f001 0140 	and.w	r1, r1, #64	; 0x40
 8001536:	b2c9      	uxtb	r1, r1
 8001538:	b151      	cbz	r1, 8001550 <f_read+0x10a>
					if (disk_write(fp->fs->drv, fp->buf, fp->dsect, 1) != RES_OK)
 800153a:	7858      	ldrb	r0, [r3, #1]
 800153c:	4651      	mov	r1, sl
 800153e:	2301      	movs	r3, #1
 8001540:	f7ff f84b 	bl	80005da <disk_write>
 8001544:	79a3      	ldrb	r3, [r4, #6]
 8001546:	b100      	cbz	r0, 800154a <f_read+0x104>
 8001548:	e00b      	b.n	8001562 <f_read+0x11c>
						ABORT(fp->fs, FR_DISK_ERR);
					fp->flag &= ~FA__DIRTY;
 800154a:	f023 0340 	bic.w	r3, r3, #64	; 0x40
 800154e:	71a3      	strb	r3, [r4, #6]
				}
#endif
				if (disk_read(fp->fs->drv, fp->buf, sect, 1) != RES_OK)	/* Fill sector cache */
 8001550:	6823      	ldr	r3, [r4, #0]
 8001552:	4651      	mov	r1, sl
 8001554:	7858      	ldrb	r0, [r3, #1]
 8001556:	463a      	mov	r2, r7
 8001558:	2301      	movs	r3, #1
 800155a:	f7fe fffd 	bl	8000558 <disk_read>
 800155e:	b128      	cbz	r0, 800156c <f_read+0x126>
					ABORT(fp->fs, FR_DISK_ERR);
 8001560:	79a3      	ldrb	r3, [r4, #6]
 8001562:	f063 037f 	orn	r3, r3, #127	; 0x7f
 8001566:	71a3      	strb	r3, [r4, #6]
 8001568:	2501      	movs	r5, #1
 800156a:	e01f      	b.n	80015ac <f_read+0x166>
			}
#endif
			fp->dsect = sect;
 800156c:	61a7      	str	r7, [r4, #24]
		}
		rcnt = SS(fp->fs) - (fp->fptr % SS(fp->fs));	/* Get partial sector data from sector buffer */
 800156e:	68a1      	ldr	r1, [r4, #8]
 8001570:	05c9      	lsls	r1, r1, #23
 8001572:	0dc9      	lsrs	r1, r1, #23
 8001574:	f5c1 7700 	rsb	r7, r1, #512	; 0x200
 8001578:	42be      	cmp	r6, r7
 800157a:	bf38      	it	cc
 800157c:	4637      	movcc	r7, r6
#if _FS_TINY
		if (move_window(fp->fs, fp->dsect))		/* Move sector window */
			ABORT(fp->fs, FR_DISK_ERR);
		mem_cpy(rbuff, &fp->fs->win[fp->fptr % SS(fp->fs)], rcnt);	/* Pick partial sector */
#else
		mem_cpy(rbuff, &fp->buf[fp->fptr % SS(fp->fs)], rcnt);	/* Pick partial sector */
 800157e:	1861      	adds	r1, r4, r1
 8001580:	4640      	mov	r0, r8
 8001582:	3124      	adds	r1, #36	; 0x24
 8001584:	463a      	mov	r2, r7
 8001586:	f7ff f870 	bl	800066a <mem_cpy>
		LEAVE_FF(fp->fs, FR_DENIED);
	remain = fp->fsize - fp->fptr;
	if (btr > remain) btr = (UINT)remain;		/* Truncate btr by remaining bytes */

	for ( ;  btr;								/* Repeat until all data read */
		rbuff += rcnt, fp->fptr += rcnt, *br += rcnt, btr -= rcnt) {
 800158a:	68a3      	ldr	r3, [r4, #8]
 800158c:	19db      	adds	r3, r3, r7
 800158e:	60a3      	str	r3, [r4, #8]
 8001590:	f8d9 3000 	ldr.w	r3, [r9]
 8001594:	19db      	adds	r3, r3, r7
 8001596:	44b8      	add	r8, r7
 8001598:	f8c9 3000 	str.w	r3, [r9]
 800159c:	1bf6      	subs	r6, r6, r7
	if (!(fp->flag & FA_READ)) 					/* Check access mode */
		LEAVE_FF(fp->fs, FR_DENIED);
	remain = fp->fsize - fp->fptr;
	if (btr > remain) btr = (UINT)remain;		/* Truncate btr by remaining bytes */

	for ( ;  btr;								/* Repeat until all data read */
 800159e:	2e00      	cmp	r6, #0
 80015a0:	f47f af72 	bne.w	8001488 <f_read+0x42>
 80015a4:	e002      	b.n	80015ac <f_read+0x166>
	*br = 0;	/* Initialize byte counter */

	res = validate(fp->fs, fp->id);				/* Check validity */
	if (res != FR_OK) LEAVE_FF(fp->fs, res);
	if (fp->flag & FA__ERROR)					/* Aborted file? */
		LEAVE_FF(fp->fs, FR_INT_ERR);
 80015a6:	2502      	movs	r5, #2
 80015a8:	e000      	b.n	80015ac <f_read+0x166>
	if (!(fp->flag & FA_READ)) 					/* Check access mode */
		LEAVE_FF(fp->fs, FR_DENIED);
 80015aa:	2507      	movs	r5, #7
		mem_cpy(rbuff, &fp->buf[fp->fptr % SS(fp->fs)], rcnt);	/* Pick partial sector */
#endif
	}

	LEAVE_FF(fp->fs, FR_OK);
}
 80015ac:	4628      	mov	r0, r5
 80015ae:	e8bd 8ffe 	ldmia.w	sp!, {r1, r2, r3, r4, r5, r6, r7, r8, r9, sl, fp, pc}

080015b2 <f_write>:
	FIL *fp,			/* Pointer to the file object */
	const void *buff,	/* Pointer to the data to be written */
	UINT btw,			/* Number of bytes to write */
	UINT *bw			/* Pointer to number of bytes written */
)
{
 80015b2:	e92d 4ff7 	stmdb	sp!, {r0, r1, r2, r4, r5, r6, r7, r8, r9, sl, fp, lr}
 80015b6:	4604      	mov	r4, r0
 80015b8:	4699      	mov	r9, r3
	UINT wcnt, cc;
	const BYTE *wbuff = buff;
	BYTE csect;


	*bw = 0;	/* Initialize byte counter */
 80015ba:	2300      	movs	r3, #0
	FIL *fp,			/* Pointer to the file object */
	const void *buff,	/* Pointer to the data to be written */
	UINT btw,			/* Number of bytes to write */
	UINT *bw			/* Pointer to number of bytes written */
)
{
 80015bc:	4688      	mov	r8, r1
	UINT wcnt, cc;
	const BYTE *wbuff = buff;
	BYTE csect;


	*bw = 0;	/* Initialize byte counter */
 80015be:	f8c9 3000 	str.w	r3, [r9]

	res = validate(fp->fs, fp->id);			/* Check validity */
 80015c2:	6800      	ldr	r0, [r0, #0]
 80015c4:	88a1      	ldrh	r1, [r4, #4]
	FIL *fp,			/* Pointer to the file object */
	const void *buff,	/* Pointer to the data to be written */
	UINT btw,			/* Number of bytes to write */
	UINT *bw			/* Pointer to number of bytes written */
)
{
 80015c6:	4616      	mov	r6, r2
	BYTE csect;


	*bw = 0;	/* Initialize byte counter */

	res = validate(fp->fs, fp->id);			/* Check validity */
 80015c8:	f7ff f931 	bl	800082e <validate>
	if (res != FR_OK) LEAVE_FF(fp->fs, res);
 80015cc:	4605      	mov	r5, r0
 80015ce:	2800      	cmp	r0, #0
 80015d0:	f040 80c4 	bne.w	800175c <f_write+0x1aa>
	if (fp->flag & FA__ERROR)				/* Aborted file? */
 80015d4:	79a3      	ldrb	r3, [r4, #6]
 80015d6:	061a      	lsls	r2, r3, #24
 80015d8:	d453      	bmi.n	8001682 <f_write+0xd0>
		LEAVE_FF(fp->fs, FR_INT_ERR);
	if (!(fp->flag & FA_WRITE))				/* Check access mode */
 80015da:	f003 0302 	and.w	r3, r3, #2
 80015de:	b2db      	uxtb	r3, r3
 80015e0:	2b00      	cmp	r3, #0
 80015e2:	f000 80ba 	beq.w	800175a <f_write+0x1a8>
		LEAVE_FF(fp->fs, FR_DENIED);
	if ((DWORD)(fp->fsize + btw) < fp->fsize) btw = 0;	/* File size cannot reach 4GB */
 80015e6:	68e3      	ldr	r3, [r4, #12]
 80015e8:	42de      	cmn	r6, r3
 80015ea:	bf28      	it	cs
 80015ec:	2600      	movcs	r6, #0
				fp->fs->winsect = sect;
			}
#else
			if (fp->dsect != sect) {		/* Fill sector cache with file data */
				if (fp->fptr < fp->fsize &&
					disk_read(fp->fs->drv, fp->buf, sect, 1) != RES_OK)
 80015ee:	f104 0a24 	add.w	sl, r4, #36	; 0x24
 80015f2:	e0a8      	b.n	8001746 <f_write+0x194>
		LEAVE_FF(fp->fs, FR_DENIED);
	if ((DWORD)(fp->fsize + btw) < fp->fsize) btw = 0;	/* File size cannot reach 4GB */

	for ( ;  btw;							/* Repeat until all data written */
		wbuff += wcnt, fp->fptr += wcnt, *bw += wcnt, btw -= wcnt) {
		if ((fp->fptr % SS(fp->fs)) == 0) {	/* On the sector boundary? */
 80015f4:	68a3      	ldr	r3, [r4, #8]
 80015f6:	05da      	lsls	r2, r3, #23
 80015f8:	f040 8089 	bne.w	800170e <f_write+0x15c>
			csect = (BYTE)(fp->fptr / SS(fp->fs) & (fp->fs->csize - 1));	/* Sector offset in the cluster */
 80015fc:	6820      	ldr	r0, [r4, #0]
 80015fe:	f890 b002 	ldrb.w	fp, [r0, #2]
 8001602:	f10b 3bff 	add.w	fp, fp, #4294967295
 8001606:	ea0b 2b53 	and.w	fp, fp, r3, lsr #9
			if (!csect) {					/* On the cluster boundary? */
 800160a:	f01b 0bff 	ands.w	fp, fp, #255	; 0xff
 800160e:	d11a      	bne.n	8001646 <f_write+0x94>
				if (fp->fptr == 0) {		/* On the top of the file? */
 8001610:	b933      	cbnz	r3, 8001620 <f_write+0x6e>
					clst = fp->sclust;		/* Follow from the origin */
 8001612:	6921      	ldr	r1, [r4, #16]
					if (clst == 0)			/* When no cluster is allocated, */
 8001614:	b979      	cbnz	r1, 8001636 <f_write+0x84>
						fp->sclust = clst = create_chain(fp->fs, 0);	/* Create a new cluster chain */
 8001616:	f7ff fc0f 	bl	8000e38 <create_chain>
 800161a:	4601      	mov	r1, r0
 800161c:	6120      	str	r0, [r4, #16]
 800161e:	e003      	b.n	8001628 <f_write+0x76>
#if _USE_FASTSEEK
					if (fp->cltbl)
						clst = clmt_clust(fp, fp->fptr);	/* Get cluster# from the CLMT */
					else
#endif
						clst = create_chain(fp->fs, fp->clust);	/* Follow or stretch cluster chain on the FAT */
 8001620:	6961      	ldr	r1, [r4, #20]
 8001622:	f7ff fc09 	bl	8000e38 <create_chain>
 8001626:	4601      	mov	r1, r0
				}
				if (clst == 0) break;		/* Could not allocate a new cluster (disk full) */
 8001628:	b929      	cbnz	r1, 8001636 <f_write+0x84>
		mem_cpy(&fp->buf[fp->fptr % SS(fp->fs)], wbuff, wcnt);	/* Fit partial sector */
		fp->flag |= FA__DIRTY;
#endif
	}

	if (fp->fptr > fp->fsize) fp->fsize = fp->fptr;	/* Update file size if needed */
 800162a:	68a3      	ldr	r3, [r4, #8]
 800162c:	68e2      	ldr	r2, [r4, #12]
 800162e:	4293      	cmp	r3, r2
 8001630:	f200 808d 	bhi.w	800174e <f_write+0x19c>
 8001634:	e08c      	b.n	8001750 <f_write+0x19e>
					else
#endif
						clst = create_chain(fp->fs, fp->clust);	/* Follow or stretch cluster chain on the FAT */
				}
				if (clst == 0) break;		/* Could not allocate a new cluster (disk full) */
				if (clst == 1) ABORT(fp->fs, FR_INT_ERR);
 8001636:	2901      	cmp	r1, #1
 8001638:	79a3      	ldrb	r3, [r4, #6]
 800163a:	d100      	bne.n	800163e <f_write+0x8c>
 800163c:	e01e      	b.n	800167c <f_write+0xca>
				if (clst == 0xFFFFFFFF) ABORT(fp->fs, FR_DISK_ERR);
 800163e:	1c48      	adds	r0, r1, #1
 8001640:	d100      	bne.n	8001644 <f_write+0x92>
 8001642:	e05e      	b.n	8001702 <f_write+0x150>
				fp->clust = clst;			/* Update current cluster */
 8001644:	6161      	str	r1, [r4, #20]
			}
#if _FS_TINY
			if (fp->fs->winsect == fp->dsect && move_window(fp->fs, 0))	/* Write-back sector cache */
				ABORT(fp->fs, FR_DISK_ERR);
#else
			if (fp->flag & FA__DIRTY) {		/* Write-back sector cache */
 8001646:	79a3      	ldrb	r3, [r4, #6]
 8001648:	f003 0340 	and.w	r3, r3, #64	; 0x40
 800164c:	b2db      	uxtb	r3, r3
 800164e:	b163      	cbz	r3, 800166a <f_write+0xb8>
				if (disk_write(fp->fs->drv, fp->buf, fp->dsect, 1) != RES_OK)
 8001650:	6823      	ldr	r3, [r4, #0]
 8001652:	69a2      	ldr	r2, [r4, #24]
 8001654:	7858      	ldrb	r0, [r3, #1]
 8001656:	4651      	mov	r1, sl
 8001658:	2301      	movs	r3, #1
 800165a:	f7fe ffbe 	bl	80005da <disk_write>
 800165e:	79a3      	ldrb	r3, [r4, #6]
 8001660:	b100      	cbz	r0, 8001664 <f_write+0xb2>
 8001662:	e04e      	b.n	8001702 <f_write+0x150>
					ABORT(fp->fs, FR_DISK_ERR);
				fp->flag &= ~FA__DIRTY;
 8001664:	f023 0340 	bic.w	r3, r3, #64	; 0x40
 8001668:	71a3      	strb	r3, [r4, #6]
			}
#endif
			sect = clust2sect(fp->fs, fp->clust);	/* Get current sector */
 800166a:	6823      	ldr	r3, [r4, #0]
 800166c:	6961      	ldr	r1, [r4, #20]
 800166e:	9301      	str	r3, [sp, #4]
 8001670:	4618      	mov	r0, r3
 8001672:	f7ff fab7 	bl	8000be4 <clust2sect>
			if (!sect) ABORT(fp->fs, FR_INT_ERR);
 8001676:	9b01      	ldr	r3, [sp, #4]
 8001678:	b928      	cbnz	r0, 8001686 <f_write+0xd4>
 800167a:	79a3      	ldrb	r3, [r4, #6]
 800167c:	f063 037f 	orn	r3, r3, #127	; 0x7f
 8001680:	71a3      	strb	r3, [r4, #6]
 8001682:	2502      	movs	r5, #2
 8001684:	e06a      	b.n	800175c <f_write+0x1aa>
			sect += csect;
			cc = btw / SS(fp->fs);			/* When remaining bytes >= sector size, */
			if (cc) {						/* Write maximum contiguous sectors directly */
 8001686:	ea5f 2c56 	movs.w	ip, r6, lsr #9
				fp->flag &= ~FA__DIRTY;
			}
#endif
			sect = clust2sect(fp->fs, fp->clust);	/* Get current sector */
			if (!sect) ABORT(fp->fs, FR_INT_ERR);
			sect += csect;
 800168a:	eb00 070b 	add.w	r7, r0, fp
			cc = btw / SS(fp->fs);			/* When remaining bytes >= sector size, */
			if (cc) {						/* Write maximum contiguous sectors directly */
 800168e:	d029      	beq.n	80016e4 <f_write+0x132>
				if (csect + cc > fp->fs->csize)	/* Clip at cluster boundary */
 8001690:	789a      	ldrb	r2, [r3, #2]
					cc = fp->fs->csize - csect;
				if (disk_write(fp->fs->drv, wbuff, sect, (BYTE)cc) != RES_OK)
 8001692:	7858      	ldrb	r0, [r3, #1]
			sect = clust2sect(fp->fs, fp->clust);	/* Get current sector */
			if (!sect) ABORT(fp->fs, FR_INT_ERR);
			sect += csect;
			cc = btw / SS(fp->fs);			/* When remaining bytes >= sector size, */
			if (cc) {						/* Write maximum contiguous sectors directly */
				if (csect + cc > fp->fs->csize)	/* Clip at cluster boundary */
 8001694:	eb0c 010b 	add.w	r1, ip, fp
 8001698:	4291      	cmp	r1, r2
					cc = fp->fs->csize - csect;
 800169a:	bf88      	it	hi
 800169c:	ebcb 0c02 	rsbhi	ip, fp, r2
				if (disk_write(fp->fs->drv, wbuff, sect, (BYTE)cc) != RES_OK)
 80016a0:	fa5f f38c 	uxtb.w	r3, ip
 80016a4:	4641      	mov	r1, r8
 80016a6:	463a      	mov	r2, r7
 80016a8:	f8cd c004 	str.w	ip, [sp, #4]
 80016ac:	f7fe ff95 	bl	80005da <disk_write>
 80016b0:	f8dd c004 	ldr.w	ip, [sp, #4]
 80016b4:	b100      	cbz	r0, 80016b8 <f_write+0x106>
 80016b6:	e023      	b.n	8001700 <f_write+0x14e>
				if (fp->fs->winsect - sect < cc) {	/* Refill sector cache if it gets invalidated by the direct write */
					mem_cpy(fp->fs->win, wbuff + ((fp->fs->winsect - sect) * SS(fp->fs)), SS(fp->fs));
					fp->fs->wflag = 0;
				}
#else
				if (fp->dsect - sect < cc) { /* Refill sector cache if it gets invalidated by the direct write */
 80016b8:	69a3      	ldr	r3, [r4, #24]
 80016ba:	1bd9      	subs	r1, r3, r7
 80016bc:	4561      	cmp	r1, ip
 80016be:	d20e      	bcs.n	80016de <f_write+0x12c>
					mem_cpy(fp->buf, wbuff + ((fp->dsect - sect) * SS(fp->fs)), SS(fp->fs));
 80016c0:	4650      	mov	r0, sl
 80016c2:	eb08 2141 	add.w	r1, r8, r1, lsl #9
 80016c6:	f44f 7200 	mov.w	r2, #512	; 0x200
 80016ca:	f8cd c004 	str.w	ip, [sp, #4]
 80016ce:	f7fe ffcc 	bl	800066a <mem_cpy>
					fp->flag &= ~FA__DIRTY;
 80016d2:	79a3      	ldrb	r3, [r4, #6]
 80016d4:	f8dd c004 	ldr.w	ip, [sp, #4]
 80016d8:	f023 0340 	bic.w	r3, r3, #64	; 0x40
 80016dc:	71a3      	strb	r3, [r4, #6]
				}
#endif
				wcnt = SS(fp->fs) * cc;		/* Number of bytes transferred */
 80016de:	ea4f 274c 	mov.w	r7, ip, lsl #9
				continue;
 80016e2:	e026      	b.n	8001732 <f_write+0x180>
			if (fp->fptr >= fp->fsize) {	/* Avoid silly cache filling at growing edge */
				if (move_window(fp->fs, 0)) ABORT(fp->fs, FR_DISK_ERR);
				fp->fs->winsect = sect;
			}
#else
			if (fp->dsect != sect) {		/* Fill sector cache with file data */
 80016e4:	69a2      	ldr	r2, [r4, #24]
 80016e6:	42ba      	cmp	r2, r7
 80016e8:	d010      	beq.n	800170c <f_write+0x15a>
				if (fp->fptr < fp->fsize &&
 80016ea:	68a1      	ldr	r1, [r4, #8]
 80016ec:	68e2      	ldr	r2, [r4, #12]
 80016ee:	4291      	cmp	r1, r2
 80016f0:	d20c      	bcs.n	800170c <f_write+0x15a>
					disk_read(fp->fs->drv, fp->buf, sect, 1) != RES_OK)
 80016f2:	7858      	ldrb	r0, [r3, #1]
 80016f4:	4651      	mov	r1, sl
 80016f6:	463a      	mov	r2, r7
 80016f8:	2301      	movs	r3, #1
 80016fa:	f7fe ff2d 	bl	8000558 <disk_read>
				if (move_window(fp->fs, 0)) ABORT(fp->fs, FR_DISK_ERR);
				fp->fs->winsect = sect;
			}
#else
			if (fp->dsect != sect) {		/* Fill sector cache with file data */
				if (fp->fptr < fp->fsize &&
 80016fe:	b128      	cbz	r0, 800170c <f_write+0x15a>
					disk_read(fp->fs->drv, fp->buf, sect, 1) != RES_OK)
						ABORT(fp->fs, FR_DISK_ERR);
 8001700:	79a3      	ldrb	r3, [r4, #6]
 8001702:	f063 037f 	orn	r3, r3, #127	; 0x7f
 8001706:	71a3      	strb	r3, [r4, #6]
 8001708:	2501      	movs	r5, #1
 800170a:	e027      	b.n	800175c <f_write+0x1aa>
			}
#endif
			fp->dsect = sect;
 800170c:	61a7      	str	r7, [r4, #24]
		}
		wcnt = SS(fp->fs) - (fp->fptr % SS(fp->fs));/* Put partial sector into file I/O buffer */
 800170e:	68a0      	ldr	r0, [r4, #8]
 8001710:	05c0      	lsls	r0, r0, #23
 8001712:	0dc0      	lsrs	r0, r0, #23
 8001714:	f5c0 7700 	rsb	r7, r0, #512	; 0x200
 8001718:	42be      	cmp	r6, r7
 800171a:	bf38      	it	cc
 800171c:	4637      	movcc	r7, r6
		if (move_window(fp->fs, fp->dsect))	/* Move sector window */
			ABORT(fp->fs, FR_DISK_ERR);
		mem_cpy(&fp->fs->win[fp->fptr % SS(fp->fs)], wbuff, wcnt);	/* Fit partial sector */
		fp->fs->wflag = 1;
#else
		mem_cpy(&fp->buf[fp->fptr % SS(fp->fs)], wbuff, wcnt);	/* Fit partial sector */
 800171e:	1820      	adds	r0, r4, r0
 8001720:	3024      	adds	r0, #36	; 0x24
 8001722:	4641      	mov	r1, r8
 8001724:	463a      	mov	r2, r7
 8001726:	f7fe ffa0 	bl	800066a <mem_cpy>
		fp->flag |= FA__DIRTY;
 800172a:	79a3      	ldrb	r3, [r4, #6]
 800172c:	f043 0340 	orr.w	r3, r3, #64	; 0x40
 8001730:	71a3      	strb	r3, [r4, #6]
	if (!(fp->flag & FA_WRITE))				/* Check access mode */
		LEAVE_FF(fp->fs, FR_DENIED);
	if ((DWORD)(fp->fsize + btw) < fp->fsize) btw = 0;	/* File size cannot reach 4GB */

	for ( ;  btw;							/* Repeat until all data written */
		wbuff += wcnt, fp->fptr += wcnt, *bw += wcnt, btw -= wcnt) {
 8001732:	68a3      	ldr	r3, [r4, #8]
 8001734:	19db      	adds	r3, r3, r7
 8001736:	60a3      	str	r3, [r4, #8]
 8001738:	f8d9 3000 	ldr.w	r3, [r9]
 800173c:	19db      	adds	r3, r3, r7
 800173e:	44b8      	add	r8, r7
 8001740:	f8c9 3000 	str.w	r3, [r9]
 8001744:	1bf6      	subs	r6, r6, r7
		LEAVE_FF(fp->fs, FR_INT_ERR);
	if (!(fp->flag & FA_WRITE))				/* Check access mode */
		LEAVE_FF(fp->fs, FR_DENIED);
	if ((DWORD)(fp->fsize + btw) < fp->fsize) btw = 0;	/* File size cannot reach 4GB */

	for ( ;  btw;							/* Repeat until all data written */
 8001746:	2e00      	cmp	r6, #0
 8001748:	f47f af54 	bne.w	80015f4 <f_write+0x42>
 800174c:	e76d      	b.n	800162a <f_write+0x78>
		mem_cpy(&fp->buf[fp->fptr % SS(fp->fs)], wbuff, wcnt);	/* Fit partial sector */
		fp->flag |= FA__DIRTY;
#endif
	}

	if (fp->fptr > fp->fsize) fp->fsize = fp->fptr;	/* Update file size if needed */
 800174e:	60e3      	str	r3, [r4, #12]
	fp->flag |= FA__WRITTEN;						/* Set file change flag */
 8001750:	79a3      	ldrb	r3, [r4, #6]
 8001752:	f043 0320 	orr.w	r3, r3, #32
 8001756:	71a3      	strb	r3, [r4, #6]

	LEAVE_FF(fp->fs, FR_OK);
 8001758:	e000      	b.n	800175c <f_write+0x1aa>
	res = validate(fp->fs, fp->id);			/* Check validity */
	if (res != FR_OK) LEAVE_FF(fp->fs, res);
	if (fp->flag & FA__ERROR)				/* Aborted file? */
		LEAVE_FF(fp->fs, FR_INT_ERR);
	if (!(fp->flag & FA_WRITE))				/* Check access mode */
		LEAVE_FF(fp->fs, FR_DENIED);
 800175a:	2507      	movs	r5, #7

	if (fp->fptr > fp->fsize) fp->fsize = fp->fptr;	/* Update file size if needed */
	fp->flag |= FA__WRITTEN;						/* Set file change flag */

	LEAVE_FF(fp->fs, FR_OK);
}
 800175c:	4628      	mov	r0, r5
 800175e:	e8bd 8ffe 	ldmia.w	sp!, {r1, r2, r3, r4, r5, r6, r7, r8, r9, sl, fp, pc}

08001762 <f_sync>:
/*-----------------------------------------------------------------------*/

FRESULT f_sync (
	FIL *fp		/* Pointer to the file object */
)
{
 8001762:	b538      	push	{r3, r4, r5, lr}
 8001764:	4604      	mov	r4, r0
	FRESULT res;
	DWORD tim;
	BYTE *dir;


	res = validate(fp->fs, fp->id);		/* Check validity of the object */
 8001766:	6800      	ldr	r0, [r0, #0]
 8001768:	88a1      	ldrh	r1, [r4, #4]
 800176a:	f7ff f860 	bl	800082e <validate>
	if (res == FR_OK) {
 800176e:	2800      	cmp	r0, #0
 8001770:	d14c      	bne.n	800180c <f_sync+0xaa>
		if (fp->flag & FA__WRITTEN) {	/* Has the file been written? */
 8001772:	79a3      	ldrb	r3, [r4, #6]
 8001774:	f003 0220 	and.w	r2, r3, #32
 8001778:	b2d2      	uxtb	r2, r2
 800177a:	2a00      	cmp	r2, #0
 800177c:	d046      	beq.n	800180c <f_sync+0xaa>
#if !_FS_TINY	/* Write-back dirty buffer */
			if (fp->flag & FA__DIRTY) {
 800177e:	f003 0340 	and.w	r3, r3, #64	; 0x40
 8001782:	b2db      	uxtb	r3, r3
 8001784:	b16b      	cbz	r3, 80017a2 <f_sync+0x40>
				if (disk_write(fp->fs->drv, fp->buf, fp->dsect, 1) != RES_OK)
 8001786:	4621      	mov	r1, r4
 8001788:	69a2      	ldr	r2, [r4, #24]
 800178a:	f851 3b24 	ldr.w	r3, [r1], #36
 800178e:	7858      	ldrb	r0, [r3, #1]
 8001790:	2301      	movs	r3, #1
 8001792:	f7fe ff22 	bl	80005da <disk_write>
 8001796:	2800      	cmp	r0, #0
 8001798:	d137      	bne.n	800180a <f_sync+0xa8>
					LEAVE_FF(fp->fs, FR_DISK_ERR);
				fp->flag &= ~FA__DIRTY;
 800179a:	79a3      	ldrb	r3, [r4, #6]
 800179c:	f023 0340 	bic.w	r3, r3, #64	; 0x40
 80017a0:	71a3      	strb	r3, [r4, #6]
			}
#endif
			/* Update the directory entry */
			res = move_window(fp->fs, fp->dir_sect);
 80017a2:	6820      	ldr	r0, [r4, #0]
 80017a4:	69e1      	ldr	r1, [r4, #28]
 80017a6:	f7fe ffaa 	bl	80006fe <move_window>
			if (res == FR_OK) {
 80017aa:	2800      	cmp	r0, #0
 80017ac:	d12e      	bne.n	800180c <f_sync+0xaa>
				dir = fp->dir_ptr;
 80017ae:	6a25      	ldr	r5, [r4, #32]
				dir[DIR_Attr] |= AM_ARC;					/* Set archive bit */
 80017b0:	7aeb      	ldrb	r3, [r5, #11]
 80017b2:	f043 0320 	orr.w	r3, r3, #32
 80017b6:	72eb      	strb	r3, [r5, #11]
				ST_DWORD(dir+DIR_FileSize, fp->fsize);		/* Update file size */
 80017b8:	68e3      	ldr	r3, [r4, #12]
 80017ba:	772b      	strb	r3, [r5, #28]
 80017bc:	89a3      	ldrh	r3, [r4, #12]
 80017be:	0a1b      	lsrs	r3, r3, #8
 80017c0:	776b      	strb	r3, [r5, #29]
 80017c2:	89e3      	ldrh	r3, [r4, #14]
 80017c4:	77ab      	strb	r3, [r5, #30]
 80017c6:	7be3      	ldrb	r3, [r4, #15]
 80017c8:	77eb      	strb	r3, [r5, #31]
				ST_CLUST(dir, fp->sclust);					/* Update start cluster */
 80017ca:	6923      	ldr	r3, [r4, #16]
 80017cc:	76ab      	strb	r3, [r5, #26]
 80017ce:	8a23      	ldrh	r3, [r4, #16]
 80017d0:	0a1b      	lsrs	r3, r3, #8
 80017d2:	76eb      	strb	r3, [r5, #27]
 80017d4:	8a63      	ldrh	r3, [r4, #18]
 80017d6:	752b      	strb	r3, [r5, #20]
 80017d8:	8a63      	ldrh	r3, [r4, #18]
 80017da:	0a1b      	lsrs	r3, r3, #8
 80017dc:	756b      	strb	r3, [r5, #21]
				tim = get_fattime();						/* Update updated time */
 80017de:	f7fe ff42 	bl	8000666 <get_fattime>
				ST_DWORD(dir+DIR_WrtTime, tim);
 80017e2:	f3c0 2307 	ubfx	r3, r0, #8, #8
 80017e6:	75a8      	strb	r0, [r5, #22]
 80017e8:	75eb      	strb	r3, [r5, #23]
 80017ea:	0c03      	lsrs	r3, r0, #16
 80017ec:	0e00      	lsrs	r0, r0, #24
 80017ee:	762b      	strb	r3, [r5, #24]
 80017f0:	7668      	strb	r0, [r5, #25]
				fp->flag &= ~FA__WRITTEN;
 80017f2:	79a3      	ldrb	r3, [r4, #6]
 80017f4:	f023 0320 	bic.w	r3, r3, #32
 80017f8:	71a3      	strb	r3, [r4, #6]
				fp->fs->wflag = 1;
 80017fa:	6823      	ldr	r3, [r4, #0]
 80017fc:	2201      	movs	r2, #1
 80017fe:	711a      	strb	r2, [r3, #4]
				res = sync(fp->fs);
 8001800:	6820      	ldr	r0, [r4, #0]
			}
		}
	}

	LEAVE_FF(fp->fs, res);
}
 8001802:	e8bd 4038 	ldmia.w	sp!, {r3, r4, r5, lr}
				ST_CLUST(dir, fp->sclust);					/* Update start cluster */
				tim = get_fattime();						/* Update updated time */
				ST_DWORD(dir+DIR_WrtTime, tim);
				fp->flag &= ~FA__WRITTEN;
				fp->fs->wflag = 1;
				res = sync(fp->fs);
 8001806:	f7fe bfb6 	b.w	8000776 <sync>
	if (res == FR_OK) {
		if (fp->flag & FA__WRITTEN) {	/* Has the file been written? */
#if !_FS_TINY	/* Write-back dirty buffer */
			if (fp->flag & FA__DIRTY) {
				if (disk_write(fp->fs->drv, fp->buf, fp->dsect, 1) != RES_OK)
					LEAVE_FF(fp->fs, FR_DISK_ERR);
 800180a:	2001      	movs	r0, #1
			}
		}
	}

	LEAVE_FF(fp->fs, res);
}
 800180c:	bd38      	pop	{r3, r4, r5, pc}

0800180e <f_close>:
/*-----------------------------------------------------------------------*/

FRESULT f_close (
	FIL *fp		/* Pointer to the file object to be closed */
)
{
 800180e:	b510      	push	{r4, lr}
 8001810:	4604      	mov	r4, r0
	res = validate(fs, fp->id);
	if (res == FR_OK) fp->fs = 0;	/* Discard file object */
	LEAVE_FF(fs, res);

#else
	res = f_sync(fp);		/* Flush cached data */
 8001812:	f7ff ffa6 	bl	8001762 <f_sync>
#else
		res = dec_lock(fp->lockid);
#endif
	}
#endif
	if (res == FR_OK) fp->fs = 0;	/* Discard file object */
 8001816:	b900      	cbnz	r0, 800181a <f_close+0xc>
 8001818:	6020      	str	r0, [r4, #0]
	return res;
#endif
}
 800181a:	bd10      	pop	{r4, pc}

0800181c <f_opendir>:

FRESULT f_opendir (
	DIR *dj,			/* Pointer to directory object to create */
	const TCHAR *path	/* Pointer to the directory path */
)
{
 800181c:	b510      	push	{r4, lr}
 800181e:	b086      	sub	sp, #24
 8001820:	4604      	mov	r4, r0
 8001822:	a806      	add	r0, sp, #24
	FRESULT res;
	DEF_NAMEBUF;


	res = chk_mounted(&path, &dj->fs, 0);
 8001824:	2200      	movs	r2, #0

FRESULT f_opendir (
	DIR *dj,			/* Pointer to directory object to create */
	const TCHAR *path	/* Pointer to the directory path */
)
{
 8001826:	f840 1d14 	str.w	r1, [r0, #-20]!
	FRESULT res;
	DEF_NAMEBUF;


	res = chk_mounted(&path, &dj->fs, 0);
 800182a:	4621      	mov	r1, r4
 800182c:	f7ff f856 	bl	80008dc <chk_mounted>
	if (res == FR_OK) {
 8001830:	bb38      	cbnz	r0, 8001882 <f_opendir+0x66>
		INIT_BUF(*dj);
 8001832:	ab03      	add	r3, sp, #12
 8001834:	61a3      	str	r3, [r4, #24]
		res = follow_path(dj, path);			/* Follow the path to the directory */
 8001836:	4620      	mov	r0, r4
 8001838:	9901      	ldr	r1, [sp, #4]
 800183a:	f7ff fbc9 	bl	8000fd0 <follow_path>
		FREE_BUF();
		if (res == FR_OK) {						/* Follow completed */
 800183e:	b990      	cbnz	r0, 8001866 <f_opendir+0x4a>
			if (dj->dir) {						/* It is not the root dir */
 8001840:	6963      	ldr	r3, [r4, #20]
 8001842:	b1b3      	cbz	r3, 8001872 <f_opendir+0x56>
				if (dj->dir[DIR_Attr] & AM_DIR) {	/* The object is a directory */
 8001844:	7ada      	ldrb	r2, [r3, #11]
 8001846:	f002 0210 	and.w	r2, r2, #16
 800184a:	b2d2      	uxtb	r2, r2
 800184c:	b17a      	cbz	r2, 800186e <f_opendir+0x52>
					dj->sclust = LD_CLUST(dj->dir);
 800184e:	7d59      	ldrb	r1, [r3, #21]
 8001850:	7d1a      	ldrb	r2, [r3, #20]
 8001852:	ea42 2201 	orr.w	r2, r2, r1, lsl #8
 8001856:	7ed9      	ldrb	r1, [r3, #27]
 8001858:	7e9b      	ldrb	r3, [r3, #26]
 800185a:	ea43 2301 	orr.w	r3, r3, r1, lsl #8
 800185e:	ea43 4302 	orr.w	r3, r3, r2, lsl #16
 8001862:	60a3      	str	r3, [r4, #8]
 8001864:	e005      	b.n	8001872 <f_opendir+0x56>
			if (res == FR_OK) {
				dj->id = dj->fs->id;
				res = dir_sdi(dj, 0);			/* Rewind dir */
			}
		}
		if (res == FR_NO_FILE) res = FR_NO_PATH;
 8001866:	2804      	cmp	r0, #4
 8001868:	bf08      	it	eq
 800186a:	2005      	moveq	r0, #5
 800186c:	e009      	b.n	8001882 <f_opendir+0x66>
		if (res == FR_OK) {						/* Follow completed */
			if (dj->dir) {						/* It is not the root dir */
				if (dj->dir[DIR_Attr] & AM_DIR) {	/* The object is a directory */
					dj->sclust = LD_CLUST(dj->dir);
				} else {						/* The object is not a directory */
					res = FR_NO_PATH;
 800186e:	2005      	movs	r0, #5
 8001870:	e007      	b.n	8001882 <f_opendir+0x66>
				}
			}
			if (res == FR_OK) {
				dj->id = dj->fs->id;
 8001872:	6823      	ldr	r3, [r4, #0]
 8001874:	88db      	ldrh	r3, [r3, #6]
				res = dir_sdi(dj, 0);			/* Rewind dir */
 8001876:	4620      	mov	r0, r4
				} else {						/* The object is not a directory */
					res = FR_NO_PATH;
				}
			}
			if (res == FR_OK) {
				dj->id = dj->fs->id;
 8001878:	80a3      	strh	r3, [r4, #4]
				res = dir_sdi(dj, 0);			/* Rewind dir */
 800187a:	2100      	movs	r1, #0
 800187c:	f7ff fa22 	bl	8000cc4 <dir_sdi>
 8001880:	e7f1      	b.n	8001866 <f_opendir+0x4a>
		}
		if (res == FR_NO_FILE) res = FR_NO_PATH;
	}

	LEAVE_FF(dj->fs, res);
}
 8001882:	b006      	add	sp, #24
 8001884:	bd10      	pop	{r4, pc}

08001886 <f_readdir>:

FRESULT f_readdir (
	DIR *dj,			/* Pointer to the open directory object */
	FILINFO *fno		/* Pointer to file information to return */
)
{
 8001886:	b57f      	push	{r0, r1, r2, r3, r4, r5, r6, lr}
 8001888:	4604      	mov	r4, r0
 800188a:	460e      	mov	r6, r1
	FRESULT res;
	DEF_NAMEBUF;


	res = validate(dj->fs, dj->id);			/* Check validity of the object */
 800188c:	6800      	ldr	r0, [r0, #0]
 800188e:	88a1      	ldrh	r1, [r4, #4]
 8001890:	f7fe ffcd 	bl	800082e <validate>
	if (res == FR_OK) {
 8001894:	4605      	mov	r5, r0
 8001896:	b9e8      	cbnz	r0, 80018d4 <f_readdir+0x4e>
		if (!fno) {
 8001898:	b926      	cbnz	r6, 80018a4 <f_readdir+0x1e>
			res = dir_sdi(dj, 0);			/* Rewind the directory object */
 800189a:	4620      	mov	r0, r4
 800189c:	4629      	mov	r1, r5
 800189e:	f7ff fa11 	bl	8000cc4 <dir_sdi>
 80018a2:	e016      	b.n	80018d2 <f_readdir+0x4c>
		} else {
			INIT_BUF(*dj);
 80018a4:	ab01      	add	r3, sp, #4
 80018a6:	61a3      	str	r3, [r4, #24]
			res = dir_read(dj);				/* Read an directory item */
 80018a8:	4620      	mov	r0, r4
 80018aa:	f7ff fcc0 	bl	800122e <dir_read>
			if (res == FR_NO_FILE) {		/* Reached end of dir */
 80018ae:	2804      	cmp	r0, #4
 80018b0:	d101      	bne.n	80018b6 <f_readdir+0x30>
				dj->sect = 0;
 80018b2:	6125      	str	r5, [r4, #16]
 80018b4:	e000      	b.n	80018b8 <f_readdir+0x32>
				res = FR_OK;
			}
			if (res == FR_OK) {				/* A valid entry is found */
 80018b6:	b960      	cbnz	r0, 80018d2 <f_readdir+0x4c>
				get_fileinfo(dj, fno);		/* Get the object information */
 80018b8:	4620      	mov	r0, r4
 80018ba:	4631      	mov	r1, r6
 80018bc:	f7fe fede 	bl	800067c <get_fileinfo>
				res = dir_next(dj, 0);		/* Increment index for next */
 80018c0:	2100      	movs	r1, #0
 80018c2:	4620      	mov	r0, r4
 80018c4:	f7ff fb06 	bl	8000ed4 <dir_next>
				if (res == FR_NO_FILE) {
 80018c8:	2804      	cmp	r0, #4
 80018ca:	d102      	bne.n	80018d2 <f_readdir+0x4c>
					dj->sect = 0;
 80018cc:	2300      	movs	r3, #0
 80018ce:	6123      	str	r3, [r4, #16]
 80018d0:	e000      	b.n	80018d4 <f_readdir+0x4e>
				res = FR_OK;
			}
			if (res == FR_OK) {				/* A valid entry is found */
				get_fileinfo(dj, fno);		/* Get the object information */
				res = dir_next(dj, 0);		/* Increment index for next */
				if (res == FR_NO_FILE) {
 80018d2:	4605      	mov	r5, r0
			FREE_BUF();
		}
	}

	LEAVE_FF(dj->fs, res);
}
 80018d4:	4628      	mov	r0, r5
 80018d6:	b004      	add	sp, #16
 80018d8:	bd70      	pop	{r4, r5, r6, pc}
	...

080018dc <dec32>:
//******************************************************************************

char *dec32(unsigned long i)
{
  static char str[16];
  char *s = str + sizeof(str);
 80018dc:	4b09      	ldr	r3, [pc, #36]	; (8001904 <dec32+0x28>)

  *--s = 0;
 80018de:	2200      	movs	r2, #0
#endif

//******************************************************************************

char *dec32(unsigned long i)
{
 80018e0:	b510      	push	{r4, lr}
    fno.lfsize = sizeof lfn;
#endif

//******************************************************************************

char *dec32(unsigned long i)
 80018e2:	330e      	adds	r3, #14
{
  static char str[16];
  char *s = str + sizeof(str);

  *--s = 0;
 80018e4:	705a      	strb	r2, [r3, #1]

  do
  {
    *--s = '0' + (char)(i % 10);
 80018e6:	210a      	movs	r1, #10
 80018e8:	fbb0 f2f1 	udiv	r2, r0, r1
 80018ec:	fb01 0012 	mls	r0, r1, r2, r0
 80018f0:	3030      	adds	r0, #48	; 0x30
 80018f2:	461c      	mov	r4, r3
 80018f4:	f803 0901 	strb.w	r0, [r3], #-1
    i /= 10;
  }
  while(i);
 80018f8:	4610      	mov	r0, r2
 80018fa:	2a00      	cmp	r2, #0
 80018fc:	d1f4      	bne.n	80018e8 <dec32+0xc>

  return(s);
}
 80018fe:	4620      	mov	r0, r4
 8001900:	bd10      	pop	{r4, pc}
 8001902:	bf00      	nop
 8001904:	20000008 	.word	0x20000008

08001908 <NVIC_Configuration>:
}

//******************************************************************************

void NVIC_Configuration(void)
{
 8001908:	b507      	push	{r0, r1, r2, lr}
  NVIC_InitTypeDef NVIC_InitStructure;

  /* Configure the NVIC Preemption Priority Bits */
  NVIC_PriorityGroupConfig(NVIC_PriorityGroup_1);
 800190a:	f44f 60c0 	mov.w	r0, #1536	; 0x600
 800190e:	f000 f8ff 	bl	8001b10 <NVIC_PriorityGroupConfig>

  NVIC_InitStructure.NVIC_IRQChannel = SDIO_IRQn;
 8001912:	2331      	movs	r3, #49	; 0x31
 8001914:	f88d 3004 	strb.w	r3, [sp, #4]
  NVIC_InitStructure.NVIC_IRQChannelPreemptionPriority = 0;
 8001918:	2300      	movs	r3, #0
 800191a:	f88d 3005 	strb.w	r3, [sp, #5]
  NVIC_InitStructure.NVIC_IRQChannelSubPriority = 0;
 800191e:	f88d 3006 	strb.w	r3, [sp, #6]
  NVIC_InitStructure.NVIC_IRQChannelCmd = ENABLE;
  NVIC_Init(&NVIC_InitStructure);
 8001922:	a801      	add	r0, sp, #4
  NVIC_PriorityGroupConfig(NVIC_PriorityGroup_1);

  NVIC_InitStructure.NVIC_IRQChannel = SDIO_IRQn;
  NVIC_InitStructure.NVIC_IRQChannelPreemptionPriority = 0;
  NVIC_InitStructure.NVIC_IRQChannelSubPriority = 0;
  NVIC_InitStructure.NVIC_IRQChannelCmd = ENABLE;
 8001924:	2301      	movs	r3, #1
 8001926:	f88d 3007 	strb.w	r3, [sp, #7]
  NVIC_Init(&NVIC_InitStructure);
 800192a:	f000 f8fb 	bl	8001b24 <NVIC_Init>
}
 800192e:	bd0e      	pop	{r1, r2, r3, pc}

08001930 <main>:
}

//******************************************************************************

int main(void)
{
 8001930:	e92d 43f0 	stmdb	sp!, {r4, r5, r6, r7, r8, r9, lr}
 8001934:	f5ad 7d03 	sub.w	sp, sp, #524	; 0x20c
       file (startup_stm32f2xx.s) before to branch to application main.
       To reconfigure the default setting of SystemInit() function, refer to
       system_stm32f2xx.c file
     */

  NVIC_Configuration(); /* Interrupt Config */
 8001938:	f7ff ffe6 	bl	8001908 <NVIC_Configuration>

//	puts("FsFAT Testing");

	memset(&fs32, 0, sizeof(FATFS));
 800193c:	f44f 720c 	mov.w	r2, #560	; 0x230
 8001940:	2100      	movs	r1, #0
 8001942:	4868      	ldr	r0, [pc, #416]	; (8001ae4 <main+0x1b4>)

	res = f_mount(0, &fs32);
 8001944:	4c68      	ldr	r4, [pc, #416]	; (8001ae8 <main+0x1b8>)

  NVIC_Configuration(); /* Interrupt Config */

//	puts("FsFAT Testing");

	memset(&fs32, 0, sizeof(FATFS));
 8001946:	f7fe fcd9 	bl	80002fc <memset>

	res = f_mount(0, &fs32);
 800194a:	4966      	ldr	r1, [pc, #408]	; (8001ae4 <main+0x1b4>)
 800194c:	2000      	movs	r0, #0
 800194e:	f7ff fcc1 	bl	80012d4 <f_mount>

//	if (res != FR_OK)
//		printf("res = %d f_mount\n", res);

	res = f_open(&fil, "MESSAGE.TXT", FA_READ);
 8001952:	4966      	ldr	r1, [pc, #408]	; (8001aec <main+0x1bc>)

//	puts("FsFAT Testing");

	memset(&fs32, 0, sizeof(FATFS));

	res = f_mount(0, &fs32);
 8001954:	7020      	strb	r0, [r4, #0]

//	if (res != FR_OK)
//		printf("res = %d f_mount\n", res);

	res = f_open(&fil, "MESSAGE.TXT", FA_READ);
 8001956:	2201      	movs	r2, #1
 8001958:	4865      	ldr	r0, [pc, #404]	; (8001af0 <main+0x1c0>)
 800195a:	f7ff fccb 	bl	80012f4 <f_open>
 800195e:	7020      	strb	r0, [r4, #0]

//	if (res != FR_OK)
//		printf("res = %d f_open MESSAGE.TXT\n", res);

	if (res == FR_OK)
 8001960:	2800      	cmp	r0, #0
 8001962:	d13d      	bne.n	80019e0 <main+0xb0>
 8001964:	4605      	mov	r5, r0
			Total += BytesRead;

//			for(i=0; i<BytesRead; i++)
//				putchar(Buffer[i]);

			if (BytesRead < sizeof(Buffer))
 8001966:	f240 16ff 	movw	r6, #511	; 0x1ff
		{
			BYTE Buffer[512];
			UINT BytesRead;
			UINT i;

			res = f_read(&fil, Buffer, sizeof(Buffer), &BytesRead);
 800196a:	4861      	ldr	r0, [pc, #388]	; (8001af0 <main+0x1c0>)
 800196c:	a902      	add	r1, sp, #8
 800196e:	f44f 7200 	mov.w	r2, #512	; 0x200
 8001972:	ab01      	add	r3, sp, #4
 8001974:	f7ff fd67 	bl	8001446 <f_read>
 8001978:	7020      	strb	r0, [r4, #0]

//			if (res != FR_OK)
//				printf("res = %d f_read MESSAGE.TXT\n", res);

			if (res != FR_OK)
 800197a:	b918      	cbnz	r0, 8001984 <main+0x54>
				break;

			Total += BytesRead;
 800197c:	9b01      	ldr	r3, [sp, #4]

//			for(i=0; i<BytesRead; i++)
//				putchar(Buffer[i]);

			if (BytesRead < sizeof(Buffer))
 800197e:	42b3      	cmp	r3, r6
//				printf("res = %d f_read MESSAGE.TXT\n", res);

			if (res != FR_OK)
				break;

			Total += BytesRead;
 8001980:	441d      	add	r5, r3

//			for(i=0; i<BytesRead; i++)
//				putchar(Buffer[i]);

			if (BytesRead < sizeof(Buffer))
 8001982:	d8f2      	bhi.n	800196a <main+0x3a>
				break;
		}

		res = f_close(&fil); // MESSAGE.TXT
 8001984:	485a      	ldr	r0, [pc, #360]	; (8001af0 <main+0x1c0>)
 8001986:	4c58      	ldr	r4, [pc, #352]	; (8001ae8 <main+0x1b8>)
 8001988:	f7ff ff41 	bl	800180e <f_close>
//		if (res != FR_OK)
//			printf("res = %d f_close MESSAGE.TXT\n", res);

//		printf("Total = %d\n", Total);

    res = f_open(&fil, "LENGTH.TXT", FA_CREATE_ALWAYS | FA_WRITE);
 800198c:	4959      	ldr	r1, [pc, #356]	; (8001af4 <main+0x1c4>)

			if (BytesRead < sizeof(Buffer))
				break;
		}

		res = f_close(&fil); // MESSAGE.TXT
 800198e:	7020      	strb	r0, [r4, #0]
//		if (res != FR_OK)
//			printf("res = %d f_close MESSAGE.TXT\n", res);

//		printf("Total = %d\n", Total);

    res = f_open(&fil, "LENGTH.TXT", FA_CREATE_ALWAYS | FA_WRITE);
 8001990:	220a      	movs	r2, #10
 8001992:	4857      	ldr	r0, [pc, #348]	; (8001af0 <main+0x1c0>)
 8001994:	f7ff fcae 	bl	80012f4 <f_open>
 8001998:	7020      	strb	r0, [r4, #0]

    if (res == FR_OK)
 800199a:	bb08      	cbnz	r0, 80019e0 <main+0xb0>
    {
      UINT BytesWritten;
      char crlf[] = "\r\n";
 800199c:	4b56      	ldr	r3, [pc, #344]	; (8001af8 <main+0x1c8>)
 800199e:	881a      	ldrh	r2, [r3, #0]
 80019a0:	789b      	ldrb	r3, [r3, #2]
 80019a2:	f8ad 2008 	strh.w	r2, [sp, #8]
      char *s = dec32(Total);
 80019a6:	4628      	mov	r0, r5
    res = f_open(&fil, "LENGTH.TXT", FA_CREATE_ALWAYS | FA_WRITE);

    if (res == FR_OK)
    {
      UINT BytesWritten;
      char crlf[] = "\r\n";
 80019a8:	f88d 300a 	strb.w	r3, [sp, #10]
      char *s = dec32(Total);
 80019ac:	f7ff ff96 	bl	80018dc <dec32>
 80019b0:	4605      	mov	r5, r0

      res = f_write(&fil, s, strlen(s), &BytesWritten);
 80019b2:	f7fe fd67 	bl	8000484 <strlen>
 80019b6:	4629      	mov	r1, r5
 80019b8:	4602      	mov	r2, r0
 80019ba:	ab01      	add	r3, sp, #4
 80019bc:	484c      	ldr	r0, [pc, #304]	; (8001af0 <main+0x1c0>)
 80019be:	f7ff fdf8 	bl	80015b2 <f_write>
 80019c2:	7020      	strb	r0, [r4, #0]

      res = f_write(&fil, crlf, strlen(crlf), &BytesWritten);
 80019c4:	a802      	add	r0, sp, #8
 80019c6:	f7fe fd5d 	bl	8000484 <strlen>
 80019ca:	a902      	add	r1, sp, #8
 80019cc:	4602      	mov	r2, r0
 80019ce:	ab01      	add	r3, sp, #4
 80019d0:	4847      	ldr	r0, [pc, #284]	; (8001af0 <main+0x1c0>)
 80019d2:	f7ff fdee 	bl	80015b2 <f_write>
 80019d6:	7020      	strb	r0, [r4, #0]

  		res = f_close(&fil); // LENGTH.TXT
 80019d8:	4845      	ldr	r0, [pc, #276]	; (8001af0 <main+0x1c0>)
 80019da:	f7ff ff18 	bl	800180e <f_close>
 80019de:	7020      	strb	r0, [r4, #0]
//  		if (res != FR_OK)
//	  		printf("res = %d f_close LENGTH.TXT\n", res);
    }
	}

  res = f_open(&fil, "DIR.TXT", FA_CREATE_ALWAYS | FA_WRITE);
 80019e0:	4843      	ldr	r0, [pc, #268]	; (8001af0 <main+0x1c0>)
 80019e2:	4946      	ldr	r1, [pc, #280]	; (8001afc <main+0x1cc>)
 80019e4:	4c40      	ldr	r4, [pc, #256]	; (8001ae8 <main+0x1b8>)
 80019e6:	220a      	movs	r2, #10
 80019e8:	f7ff fc84 	bl	80012f4 <f_open>
 80019ec:	7020      	strb	r0, [r4, #0]

  if (res == FR_OK)
 80019ee:	2800      	cmp	r0, #0
 80019f0:	d176      	bne.n	8001ae0 <main+0x1b0>
  {
    UINT BytesWritten;

  	path = "";
 80019f2:	4943      	ldr	r1, [pc, #268]	; (8001b00 <main+0x1d0>)
 80019f4:	4b43      	ldr	r3, [pc, #268]	; (8001b04 <main+0x1d4>)

	  res = f_opendir(&dir, path);
 80019f6:	4844      	ldr	r0, [pc, #272]	; (8001b08 <main+0x1d8>)

  if (res == FR_OK)
  {
    UINT BytesWritten;

  	path = "";
 80019f8:	6019      	str	r1, [r3, #0]

	  res = f_opendir(&dir, path);
 80019fa:	f7ff ff0f 	bl	800181c <f_opendir>
 80019fe:	7020      	strb	r0, [r4, #0]

//	  if (res != FR_OK)
//		  printf("res = %d f_opendir\n", res);

    if (res == FR_OK)
 8001a00:	2800      	cmp	r0, #0
 8001a02:	d16a      	bne.n	8001ada <main+0x1aa>
		  	*s++ = ((fno.fattrib & AM_DIR) ? 'D' : '-');
				*s++ = ((fno.fattrib & AM_RDO) ? 'R' : '-');
  			*s++ = ((fno.fattrib & AM_SYS) ? 'S' : '-');
	  		*s++ = ((fno.fattrib & AM_HID) ? 'H' : '-');

        *s++ = ' ';
 8001a04:	f10d 050d 	add.w	r5, sp, #13
  		{
        char str[256];
        char *s = str;
	  		char *fn;

  			res = f_readdir(&dir, &fno);
 8001a08:	4c40      	ldr	r4, [pc, #256]	; (8001b0c <main+0x1dc>)
 8001a0a:	483f      	ldr	r0, [pc, #252]	; (8001b08 <main+0x1d8>)
 8001a0c:	f8df 90d8 	ldr.w	r9, [pc, #216]	; 8001ae8 <main+0x1b8>
 8001a10:	4621      	mov	r1, r4
 8001a12:	f7ff ff38 	bl	8001886 <f_readdir>
 8001a16:	4680      	mov	r8, r0
 8001a18:	f889 0000 	strb.w	r0, [r9]

//	  		if (res != FR_OK)
//		  		printf("res = %d f_readdir\n", res);

			  if ((res != FR_OK) || (fno.fname[0] == 0))
 8001a1c:	2800      	cmp	r0, #0
 8001a1e:	d15c      	bne.n	8001ada <main+0x1aa>
 8001a20:	7a63      	ldrb	r3, [r4, #9]
 8001a22:	2b00      	cmp	r3, #0
 8001a24:	d059      	beq.n	8001ada <main+0x1aa>
        fn = *fno.lfname ? fno.lfname : fno.fname;
#else
        fn = fno.fname;
#endif

		  	*s++ = ((fno.fattrib & AM_DIR) ? 'D' : '-');
 8001a26:	7a23      	ldrb	r3, [r4, #8]
  			*s++ = ((fno.fattrib & AM_SYS) ? 'S' : '-');
	  		*s++ = ((fno.fattrib & AM_HID) ? 'H' : '-');

        *s++ = ' ';

        strcpy(s, dec32(fno.fsize));
 8001a28:	6820      	ldr	r0, [r4, #0]
        fn = *fno.lfname ? fno.lfname : fno.fname;
#else
        fn = fno.fname;
#endif

		  	*s++ = ((fno.fattrib & AM_DIR) ? 'D' : '-');
 8001a2a:	f003 0210 	and.w	r2, r3, #16
 8001a2e:	b2d2      	uxtb	r2, r2
 8001a30:	2a00      	cmp	r2, #0
 8001a32:	bf0c      	ite	eq
 8001a34:	222d      	moveq	r2, #45	; 0x2d
 8001a36:	2244      	movne	r2, #68	; 0x44
				*s++ = ((fno.fattrib & AM_RDO) ? 'R' : '-');
 8001a38:	f013 0f01 	tst.w	r3, #1
        fn = *fno.lfname ? fno.lfname : fno.fname;
#else
        fn = fno.fname;
#endif

		  	*s++ = ((fno.fattrib & AM_DIR) ? 'D' : '-');
 8001a3c:	f88d 2008 	strb.w	r2, [sp, #8]
				*s++ = ((fno.fattrib & AM_RDO) ? 'R' : '-');
 8001a40:	bf0c      	ite	eq
 8001a42:	222d      	moveq	r2, #45	; 0x2d
 8001a44:	2252      	movne	r2, #82	; 0x52
 8001a46:	f88d 2009 	strb.w	r2, [sp, #9]
  			*s++ = ((fno.fattrib & AM_SYS) ? 'S' : '-');
 8001a4a:	f003 0204 	and.w	r2, r3, #4
	  		*s++ = ((fno.fattrib & AM_HID) ? 'H' : '-');
 8001a4e:	f003 0302 	and.w	r3, r3, #2
        fn = fno.fname;
#endif

		  	*s++ = ((fno.fattrib & AM_DIR) ? 'D' : '-');
				*s++ = ((fno.fattrib & AM_RDO) ? 'R' : '-');
  			*s++ = ((fno.fattrib & AM_SYS) ? 'S' : '-');
 8001a52:	b2d2      	uxtb	r2, r2
	  		*s++ = ((fno.fattrib & AM_HID) ? 'H' : '-');
 8001a54:	b2db      	uxtb	r3, r3
        fn = fno.fname;
#endif

		  	*s++ = ((fno.fattrib & AM_DIR) ? 'D' : '-');
				*s++ = ((fno.fattrib & AM_RDO) ? 'R' : '-');
  			*s++ = ((fno.fattrib & AM_SYS) ? 'S' : '-');
 8001a56:	2a00      	cmp	r2, #0
 8001a58:	bf0c      	ite	eq
 8001a5a:	222d      	moveq	r2, #45	; 0x2d
 8001a5c:	2253      	movne	r2, #83	; 0x53
	  		*s++ = ((fno.fattrib & AM_HID) ? 'H' : '-');
 8001a5e:	2b00      	cmp	r3, #0
 8001a60:	bf0c      	ite	eq
 8001a62:	232d      	moveq	r3, #45	; 0x2d
 8001a64:	2348      	movne	r3, #72	; 0x48

        *s++ = ' ';
 8001a66:	2620      	movs	r6, #32
        fn = fno.fname;
#endif

		  	*s++ = ((fno.fattrib & AM_DIR) ? 'D' : '-');
				*s++ = ((fno.fattrib & AM_RDO) ? 'R' : '-');
  			*s++ = ((fno.fattrib & AM_SYS) ? 'S' : '-');
 8001a68:	f88d 200a 	strb.w	r2, [sp, #10]
	  		*s++ = ((fno.fattrib & AM_HID) ? 'H' : '-');
 8001a6c:	f88d 300b 	strb.w	r3, [sp, #11]

        *s++ = ' ';
 8001a70:	f88d 600c 	strb.w	r6, [sp, #12]

        strcpy(s, dec32(fno.fsize));
 8001a74:	f7ff ff32 	bl	80018dc <dec32>
 8001a78:	4601      	mov	r1, r0
 8001a7a:	4628      	mov	r0, r5
 8001a7c:	f7fe fca4 	bl	80003c8 <strcpy>
        s += strlen(s);
 8001a80:	4628      	mov	r0, r5
 8001a82:	f7fe fcff 	bl	8000484 <strlen>

        *s++ = ' ';

        strcpy(s, path);
 8001a86:	4b1f      	ldr	r3, [pc, #124]	; (8001b04 <main+0x1d4>)
        *s++ = ' ';

        strcpy(s, dec32(fno.fsize));
        s += strlen(s);

        *s++ = ' ';
 8001a88:	542e      	strb	r6, [r5, r0]
	  		*s++ = ((fno.fattrib & AM_HID) ? 'H' : '-');

        *s++ = ' ';

        strcpy(s, dec32(fno.fsize));
        s += strlen(s);
 8001a8a:	182f      	adds	r7, r5, r0

        *s++ = ' ';
 8001a8c:	3701      	adds	r7, #1

        strcpy(s, path);
 8001a8e:	6819      	ldr	r1, [r3, #0]
 8001a90:	4638      	mov	r0, r7
 8001a92:	f7fe fc99 	bl	80003c8 <strcpy>
        s += strlen(s);
 8001a96:	4638      	mov	r0, r7
 8001a98:	f7fe fcf4 	bl	8000484 <strlen>
 8001a9c:	183e      	adds	r6, r7, r0

        *s++ = '/';
 8001a9e:	232f      	movs	r3, #47	; 0x2f
 8001aa0:	3601      	adds	r6, #1
 8001aa2:	543b      	strb	r3, [r7, r0]

        strcpy(s, fn);
 8001aa4:	f104 0109 	add.w	r1, r4, #9
 8001aa8:	4630      	mov	r0, r6
 8001aaa:	f7fe fc8d 	bl	80003c8 <strcpy>
        s += strlen(s);
 8001aae:	4630      	mov	r0, r6
 8001ab0:	f7fe fce8 	bl	8000484 <strlen>

        *s++ = 0x0D;
 8001ab4:	220d      	movs	r2, #13
        s += strlen(s);

        *s++ = '/';

        strcpy(s, fn);
        s += strlen(s);
 8001ab6:	1833      	adds	r3, r6, r0

        *s++ = 0x0D;
 8001ab8:	5432      	strb	r2, [r6, r0]
        *s++ = 0x0A;
 8001aba:	220a      	movs	r2, #10
 8001abc:	705a      	strb	r2, [r3, #1]
        *s++ = 0;
 8001abe:	f883 8002 	strb.w	r8, [r3, #2]

        res = f_write(&fil, str, strlen(str), &BytesWritten);
 8001ac2:	a802      	add	r0, sp, #8
 8001ac4:	f7fe fcde 	bl	8000484 <strlen>
 8001ac8:	a902      	add	r1, sp, #8
 8001aca:	4602      	mov	r2, r0
 8001acc:	ab01      	add	r3, sp, #4
 8001ace:	4808      	ldr	r0, [pc, #32]	; (8001af0 <main+0x1c0>)
 8001ad0:	f7ff fd6f 	bl	80015b2 <f_write>
 8001ad4:	f889 0000 	strb.w	r0, [r9]
  		}
 8001ad8:	e796      	b.n	8001a08 <main+0xd8>
    }

  	res = f_close(&fil); // DIR.TXT
 8001ada:	4805      	ldr	r0, [pc, #20]	; (8001af0 <main+0x1c0>)
 8001adc:	f7ff fe97 	bl	800180e <f_close>
 8001ae0:	e7fe      	b.n	8001ae0 <main+0x1b0>
 8001ae2:	bf00      	nop
 8001ae4:	20000054 	.word	0x20000054
 8001ae8:	200002b8 	.word	0x200002b8
 8001aec:	0800316f 	.word	0x0800316f
 8001af0:	200002bc 	.word	0x200002bc
 8001af4:	0800317b 	.word	0x0800317b
 8001af8:	0800318e 	.word	0x0800318e
 8001afc:	08003186 	.word	0x08003186
 8001b00:	08003190 	.word	0x08003190
 8001b04:	20000050 	.word	0x20000050
 8001b08:	2000029c 	.word	0x2000029c
 8001b0c:	20000284 	.word	0x20000284

08001b10 <NVIC_PriorityGroupConfig>:
{
  /* Check the parameters */
  assert_param(IS_NVIC_PRIORITY_GROUP(NVIC_PriorityGroup));

  /* Set the PRIGROUP[10:8] bits according to NVIC_PriorityGroup value */
  SCB->AIRCR = AIRCR_VECTKEY_MASK | NVIC_PriorityGroup;
 8001b10:	f040 60bf 	orr.w	r0, r0, #100139008	; 0x5f80000
 8001b14:	4b02      	ldr	r3, [pc, #8]	; (8001b20 <NVIC_PriorityGroupConfig+0x10>)
 8001b16:	f440 3000 	orr.w	r0, r0, #131072	; 0x20000
 8001b1a:	60d8      	str	r0, [r3, #12]
 8001b1c:	4770      	bx	lr
 8001b1e:	bf00      	nop
 8001b20:	e000ed00 	.word	0xe000ed00

08001b24 <NVIC_Init>:
  /* Check the parameters */
  assert_param(IS_FUNCTIONAL_STATE(NVIC_InitStruct->NVIC_IRQChannelCmd));
  assert_param(IS_NVIC_PREEMPTION_PRIORITY(NVIC_InitStruct->NVIC_IRQChannelPreemptionPriority));
  assert_param(IS_NVIC_SUB_PRIORITY(NVIC_InitStruct->NVIC_IRQChannelSubPriority));

  if (NVIC_InitStruct->NVIC_IRQChannelCmd != DISABLE)
 8001b24:	78c3      	ldrb	r3, [r0, #3]
 8001b26:	b30b      	cbz	r3, 8001b6c <NVIC_Init+0x48>
  {
    /* Compute the Corresponding IRQ Priority --------------------------------*/
    tmppriority = (0x700 - ((SCB->AIRCR) & (uint32_t)0x700))>> 0x08;
 8001b28:	4b16      	ldr	r3, [pc, #88]	; (8001b84 <NVIC_Init+0x60>)
    tmppre = (0x4 - tmppriority);
    tmpsub = tmpsub >> tmppriority;

    tmppriority = NVIC_InitStruct->NVIC_IRQChannelPreemptionPriority << tmppre;
 8001b2a:	7841      	ldrb	r1, [r0, #1]
  assert_param(IS_NVIC_SUB_PRIORITY(NVIC_InitStruct->NVIC_IRQChannelSubPriority));

  if (NVIC_InitStruct->NVIC_IRQChannelCmd != DISABLE)
  {
    /* Compute the Corresponding IRQ Priority --------------------------------*/
    tmppriority = (0x700 - ((SCB->AIRCR) & (uint32_t)0x700))>> 0x08;
 8001b2c:	68db      	ldr	r3, [r3, #12]
 8001b2e:	43db      	mvns	r3, r3
 8001b30:	f3c3 2302 	ubfx	r3, r3, #8, #3
    tmppre = (0x4 - tmppriority);
 8001b34:	f1c3 0204 	rsb	r2, r3, #4
    tmpsub = tmpsub >> tmppriority;

    tmppriority = NVIC_InitStruct->NVIC_IRQChannelPreemptionPriority << tmppre;
 8001b38:	b2d2      	uxtb	r2, r2
 8001b3a:	fa01 f202 	lsl.w	r2, r1, r2
  if (NVIC_InitStruct->NVIC_IRQChannelCmd != DISABLE)
  {
    /* Compute the Corresponding IRQ Priority --------------------------------*/
    tmppriority = (0x700 - ((SCB->AIRCR) & (uint32_t)0x700))>> 0x08;
    tmppre = (0x4 - tmppriority);
    tmpsub = tmpsub >> tmppriority;
 8001b3e:	210f      	movs	r1, #15
 8001b40:	fa41 f303 	asr.w	r3, r1, r3

    tmppriority = NVIC_InitStruct->NVIC_IRQChannelPreemptionPriority << tmppre;
    tmppriority |=  (uint8_t)(NVIC_InitStruct->NVIC_IRQChannelSubPriority & tmpsub);
 8001b44:	7881      	ldrb	r1, [r0, #2]
    /* Compute the Corresponding IRQ Priority --------------------------------*/
    tmppriority = (0x700 - ((SCB->AIRCR) & (uint32_t)0x700))>> 0x08;
    tmppre = (0x4 - tmppriority);
    tmpsub = tmpsub >> tmppriority;

    tmppriority = NVIC_InitStruct->NVIC_IRQChannelPreemptionPriority << tmppre;
 8001b46:	b2d2      	uxtb	r2, r2
    tmppriority |=  (uint8_t)(NVIC_InitStruct->NVIC_IRQChannelSubPriority & tmpsub);
 8001b48:	400b      	ands	r3, r1
 8001b4a:	431a      	orrs	r2, r3

    tmppriority = tmppriority << 0x04;

    NVIC->IP[NVIC_InitStruct->NVIC_IRQChannel] = tmppriority;
 8001b4c:	7803      	ldrb	r3, [r0, #0]
 8001b4e:	f103 4360 	add.w	r3, r3, #3758096384	; 0xe0000000
 8001b52:	f503 4361 	add.w	r3, r3, #57600	; 0xe100
    tmpsub = tmpsub >> tmppriority;

    tmppriority = NVIC_InitStruct->NVIC_IRQChannelPreemptionPriority << tmppre;
    tmppriority |=  (uint8_t)(NVIC_InitStruct->NVIC_IRQChannelSubPriority & tmpsub);

    tmppriority = tmppriority << 0x04;
 8001b56:	0112      	lsls	r2, r2, #4

    NVIC->IP[NVIC_InitStruct->NVIC_IRQChannel] = tmppriority;
 8001b58:	f883 2300 	strb.w	r2, [r3, #768]	; 0x300

    /* Enable the Selected IRQ Channels --------------------------------------*/
    NVIC->ISER[NVIC_InitStruct->NVIC_IRQChannel >> 0x05] =
 8001b5c:	7803      	ldrb	r3, [r0, #0]
      (uint32_t)0x01 << (NVIC_InitStruct->NVIC_IRQChannel & (uint8_t)0x1F);
 8001b5e:	2201      	movs	r2, #1
    tmppriority = tmppriority << 0x04;

    NVIC->IP[NVIC_InitStruct->NVIC_IRQChannel] = tmppriority;

    /* Enable the Selected IRQ Channels --------------------------------------*/
    NVIC->ISER[NVIC_InitStruct->NVIC_IRQChannel >> 0x05] =
 8001b60:	0959      	lsrs	r1, r3, #5
      (uint32_t)0x01 << (NVIC_InitStruct->NVIC_IRQChannel & (uint8_t)0x1F);
 8001b62:	f003 031f 	and.w	r3, r3, #31
 8001b66:	fa02 f303 	lsl.w	r3, r2, r3
 8001b6a:	e007      	b.n	8001b7c <NVIC_Init+0x58>
  }
  else
  {
    /* Disable the Selected IRQ Channels -------------------------------------*/
    NVIC->ICER[NVIC_InitStruct->NVIC_IRQChannel >> 0x05] =
 8001b6c:	7803      	ldrb	r3, [r0, #0]
      (uint32_t)0x01 << (NVIC_InitStruct->NVIC_IRQChannel & (uint8_t)0x1F);
 8001b6e:	2201      	movs	r2, #1
      (uint32_t)0x01 << (NVIC_InitStruct->NVIC_IRQChannel & (uint8_t)0x1F);
  }
  else
  {
    /* Disable the Selected IRQ Channels -------------------------------------*/
    NVIC->ICER[NVIC_InitStruct->NVIC_IRQChannel >> 0x05] =
 8001b70:	0959      	lsrs	r1, r3, #5
      (uint32_t)0x01 << (NVIC_InitStruct->NVIC_IRQChannel & (uint8_t)0x1F);
 8001b72:	f003 031f 	and.w	r3, r3, #31
 8001b76:	fa02 f303 	lsl.w	r3, r2, r3
      (uint32_t)0x01 << (NVIC_InitStruct->NVIC_IRQChannel & (uint8_t)0x1F);
  }
  else
  {
    /* Disable the Selected IRQ Channels -------------------------------------*/
    NVIC->ICER[NVIC_InitStruct->NVIC_IRQChannel >> 0x05] =
 8001b7a:	3120      	adds	r1, #32
 8001b7c:	4a02      	ldr	r2, [pc, #8]	; (8001b88 <NVIC_Init+0x64>)
 8001b7e:	f842 3021 	str.w	r3, [r2, r1, lsl #2]
 8001b82:	4770      	bx	lr
 8001b84:	e000ed00 	.word	0xe000ed00
 8001b88:	e000e100 	.word	0xe000e100

08001b8c <SD_LowLevel_Init>:
  *         data transfer).
  * @param  None
  * @retval None
  */
void SD_LowLevel_Init(void)
{
 8001b8c:	e92d 41f3 	stmdb	sp!, {r0, r1, r4, r5, r6, r7, r8, lr}
  GPIO_InitTypeDef  GPIO_InitStructure;

  /* GPIOC and GPIOD Periph clock enable */
  RCC_AHB1PeriphClockCmd(RCC_AHB1Periph_GPIOC | RCC_AHB1Periph_GPIOD | SD_DETECT_GPIO_CLK, ENABLE);

  GPIO_PinAFConfig(GPIOC, GPIO_PinSource8, GPIO_AF_SDIO);
 8001b90:	4c2e      	ldr	r4, [pc, #184]	; (8001c4c <SD_LowLevel_Init+0xc0>)
  GPIO_PinAFConfig(GPIOC, GPIO_PinSource9, GPIO_AF_SDIO);
  GPIO_PinAFConfig(GPIOC, GPIO_PinSource10, GPIO_AF_SDIO);
  GPIO_PinAFConfig(GPIOC, GPIO_PinSource11, GPIO_AF_SDIO);
  GPIO_PinAFConfig(GPIOC, GPIO_PinSource12, GPIO_AF_SDIO);
  GPIO_PinAFConfig(GPIOD, GPIO_PinSource2, GPIO_AF_SDIO);
 8001b92:	4f2f      	ldr	r7, [pc, #188]	; (8001c50 <SD_LowLevel_Init+0xc4>)
void SD_LowLevel_Init(void)
{
  GPIO_InitTypeDef  GPIO_InitStructure;

  /* GPIOC and GPIOD Periph clock enable */
  RCC_AHB1PeriphClockCmd(RCC_AHB1Periph_GPIOC | RCC_AHB1Periph_GPIOD | SD_DETECT_GPIO_CLK, ENABLE);
 8001b94:	200c      	movs	r0, #12
 8001b96:	2101      	movs	r1, #1
 8001b98:	f001 f98c 	bl	8002eb4 <RCC_AHB1PeriphClockCmd>

  GPIO_PinAFConfig(GPIOC, GPIO_PinSource8, GPIO_AF_SDIO);
 8001b9c:	4620      	mov	r0, r4
 8001b9e:	2108      	movs	r1, #8
 8001ba0:	220c      	movs	r2, #12
 8001ba2:	f001 f96f 	bl	8002e84 <GPIO_PinAFConfig>
  GPIO_PinAFConfig(GPIOC, GPIO_PinSource9, GPIO_AF_SDIO);
 8001ba6:	4620      	mov	r0, r4
 8001ba8:	2109      	movs	r1, #9
 8001baa:	220c      	movs	r2, #12
 8001bac:	f001 f96a 	bl	8002e84 <GPIO_PinAFConfig>
  GPIO_PinAFConfig(GPIOC, GPIO_PinSource10, GPIO_AF_SDIO);
 8001bb0:	4620      	mov	r0, r4
 8001bb2:	210a      	movs	r1, #10
 8001bb4:	220c      	movs	r2, #12
 8001bb6:	f001 f965 	bl	8002e84 <GPIO_PinAFConfig>
  GPIO_PinAFConfig(GPIOC, GPIO_PinSource11, GPIO_AF_SDIO);
 8001bba:	4620      	mov	r0, r4
 8001bbc:	210b      	movs	r1, #11
 8001bbe:	220c      	movs	r2, #12
 8001bc0:	f001 f960 	bl	8002e84 <GPIO_PinAFConfig>
  GPIO_PinAFConfig(GPIOC, GPIO_PinSource12, GPIO_AF_SDIO);
 8001bc4:	210c      	movs	r1, #12
 8001bc6:	4620      	mov	r0, r4
 8001bc8:	460a      	mov	r2, r1
 8001bca:	f001 f95b 	bl	8002e84 <GPIO_PinAFConfig>
  GPIO_PinAFConfig(GPIOD, GPIO_PinSource2, GPIO_AF_SDIO);
 8001bce:	220c      	movs	r2, #12
 8001bd0:	4638      	mov	r0, r7
 8001bd2:	2102      	movs	r1, #2
 8001bd4:	f001 f956 	bl	8002e84 <GPIO_PinAFConfig>

  /* Configure PC.08, PC.09, PC.10, PC.11 pins: D0, D1, D2, D3 pins */
  GPIO_InitStructure.GPIO_Pin = GPIO_Pin_8 | GPIO_Pin_9 | GPIO_Pin_10 | GPIO_Pin_11;
 8001bd8:	f44f 6370 	mov.w	r3, #3840	; 0xf00
  GPIO_InitStructure.GPIO_Speed = GPIO_Speed_25MHz;
 8001bdc:	2501      	movs	r5, #1
  GPIO_InitStructure.GPIO_Mode = GPIO_Mode_AF;
  GPIO_InitStructure.GPIO_OType = GPIO_OType_PP;
 8001bde:	2600      	movs	r6, #0
  GPIO_PinAFConfig(GPIOC, GPIO_PinSource11, GPIO_AF_SDIO);
  GPIO_PinAFConfig(GPIOC, GPIO_PinSource12, GPIO_AF_SDIO);
  GPIO_PinAFConfig(GPIOD, GPIO_PinSource2, GPIO_AF_SDIO);

  /* Configure PC.08, PC.09, PC.10, PC.11 pins: D0, D1, D2, D3 pins */
  GPIO_InitStructure.GPIO_Pin = GPIO_Pin_8 | GPIO_Pin_9 | GPIO_Pin_10 | GPIO_Pin_11;
 8001be0:	9300      	str	r3, [sp, #0]
  GPIO_InitStructure.GPIO_Speed = GPIO_Speed_25MHz;
  GPIO_InitStructure.GPIO_Mode = GPIO_Mode_AF;
  GPIO_InitStructure.GPIO_OType = GPIO_OType_PP;
  GPIO_InitStructure.GPIO_PuPd = GPIO_PuPd_UP;
  GPIO_Init(GPIOC, &GPIO_InitStructure);
 8001be2:	4620      	mov	r0, r4
  GPIO_PinAFConfig(GPIOD, GPIO_PinSource2, GPIO_AF_SDIO);

  /* Configure PC.08, PC.09, PC.10, PC.11 pins: D0, D1, D2, D3 pins */
  GPIO_InitStructure.GPIO_Pin = GPIO_Pin_8 | GPIO_Pin_9 | GPIO_Pin_10 | GPIO_Pin_11;
  GPIO_InitStructure.GPIO_Speed = GPIO_Speed_25MHz;
  GPIO_InitStructure.GPIO_Mode = GPIO_Mode_AF;
 8001be4:	2302      	movs	r3, #2
  GPIO_InitStructure.GPIO_OType = GPIO_OType_PP;
  GPIO_InitStructure.GPIO_PuPd = GPIO_PuPd_UP;
  GPIO_Init(GPIOC, &GPIO_InitStructure);
 8001be6:	4669      	mov	r1, sp
  GPIO_PinAFConfig(GPIOD, GPIO_PinSource2, GPIO_AF_SDIO);

  /* Configure PC.08, PC.09, PC.10, PC.11 pins: D0, D1, D2, D3 pins */
  GPIO_InitStructure.GPIO_Pin = GPIO_Pin_8 | GPIO_Pin_9 | GPIO_Pin_10 | GPIO_Pin_11;
  GPIO_InitStructure.GPIO_Speed = GPIO_Speed_25MHz;
  GPIO_InitStructure.GPIO_Mode = GPIO_Mode_AF;
 8001be8:	f88d 3004 	strb.w	r3, [sp, #4]
  GPIO_InitStructure.GPIO_OType = GPIO_OType_PP;
  GPIO_InitStructure.GPIO_PuPd = GPIO_PuPd_UP;
  GPIO_Init(GPIOC, &GPIO_InitStructure);

  /* Configure PD.02 CMD line */
  GPIO_InitStructure.GPIO_Pin = GPIO_Pin_2;
 8001bec:	f04f 0804 	mov.w	r8, #4
  GPIO_PinAFConfig(GPIOC, GPIO_PinSource12, GPIO_AF_SDIO);
  GPIO_PinAFConfig(GPIOD, GPIO_PinSource2, GPIO_AF_SDIO);

  /* Configure PC.08, PC.09, PC.10, PC.11 pins: D0, D1, D2, D3 pins */
  GPIO_InitStructure.GPIO_Pin = GPIO_Pin_8 | GPIO_Pin_9 | GPIO_Pin_10 | GPIO_Pin_11;
  GPIO_InitStructure.GPIO_Speed = GPIO_Speed_25MHz;
 8001bf0:	f88d 5005 	strb.w	r5, [sp, #5]
  GPIO_InitStructure.GPIO_Mode = GPIO_Mode_AF;
  GPIO_InitStructure.GPIO_OType = GPIO_OType_PP;
 8001bf4:	f88d 6006 	strb.w	r6, [sp, #6]
  GPIO_InitStructure.GPIO_PuPd = GPIO_PuPd_UP;
 8001bf8:	f88d 5007 	strb.w	r5, [sp, #7]
  GPIO_Init(GPIOC, &GPIO_InitStructure);
 8001bfc:	f001 f8f7 	bl	8002dee <GPIO_Init>

  /* Configure PD.02 CMD line */
  GPIO_InitStructure.GPIO_Pin = GPIO_Pin_2;
  GPIO_Init(GPIOD, &GPIO_InitStructure);
 8001c00:	4638      	mov	r0, r7
 8001c02:	4669      	mov	r1, sp
  GPIO_InitStructure.GPIO_OType = GPIO_OType_PP;
  GPIO_InitStructure.GPIO_PuPd = GPIO_PuPd_UP;
  GPIO_Init(GPIOC, &GPIO_InitStructure);

  /* Configure PD.02 CMD line */
  GPIO_InitStructure.GPIO_Pin = GPIO_Pin_2;
 8001c04:	f8cd 8000 	str.w	r8, [sp]
  GPIO_Init(GPIOD, &GPIO_InitStructure);
 8001c08:	f001 f8f1 	bl	8002dee <GPIO_Init>

  /* Configure PC.12 pin: CLK pin */
  GPIO_InitStructure.GPIO_Pin = GPIO_Pin_12;
 8001c0c:	f44f 5380 	mov.w	r3, #4096	; 0x1000
  GPIO_InitStructure.GPIO_PuPd = GPIO_PuPd_NOPULL;
  GPIO_Init(GPIOC, &GPIO_InitStructure);
 8001c10:	4620      	mov	r0, r4
 8001c12:	4669      	mov	r1, sp
  /* Configure PD.02 CMD line */
  GPIO_InitStructure.GPIO_Pin = GPIO_Pin_2;
  GPIO_Init(GPIOD, &GPIO_InitStructure);

  /* Configure PC.12 pin: CLK pin */
  GPIO_InitStructure.GPIO_Pin = GPIO_Pin_12;
 8001c14:	9300      	str	r3, [sp, #0]
  GPIO_InitStructure.GPIO_PuPd = GPIO_PuPd_NOPULL;
 8001c16:	f88d 6007 	strb.w	r6, [sp, #7]
  GPIO_Init(GPIOC, &GPIO_InitStructure);
 8001c1a:	f001 f8e8 	bl	8002dee <GPIO_Init>

  /*!< Configure SD_SPI_DETECT_PIN pin: SD Card detect pin */
  GPIO_InitStructure.GPIO_Pin = SD_DETECT_PIN;
  GPIO_InitStructure.GPIO_Mode = GPIO_Mode_IN;
  GPIO_InitStructure.GPIO_PuPd = GPIO_PuPd_UP;
  GPIO_Init(SD_DETECT_GPIO_PORT, &GPIO_InitStructure);
 8001c1e:	4620      	mov	r0, r4
 8001c20:	4669      	mov	r1, sp
  GPIO_InitStructure.GPIO_Pin = GPIO_Pin_12;
  GPIO_InitStructure.GPIO_PuPd = GPIO_PuPd_NOPULL;
  GPIO_Init(GPIOC, &GPIO_InitStructure);

  /*!< Configure SD_SPI_DETECT_PIN pin: SD Card detect pin */
  GPIO_InitStructure.GPIO_Pin = SD_DETECT_PIN;
 8001c22:	f8cd 8000 	str.w	r8, [sp]
  GPIO_InitStructure.GPIO_Mode = GPIO_Mode_IN;
 8001c26:	f88d 6004 	strb.w	r6, [sp, #4]
  GPIO_InitStructure.GPIO_PuPd = GPIO_PuPd_UP;
 8001c2a:	f88d 5007 	strb.w	r5, [sp, #7]
  GPIO_Init(SD_DETECT_GPIO_PORT, &GPIO_InitStructure);
 8001c2e:	f001 f8de 	bl	8002dee <GPIO_Init>

  /* Enable the SDIO APB2 Clock */
  RCC_APB2PeriphClockCmd(RCC_APB2Periph_SDIO, ENABLE);
 8001c32:	4629      	mov	r1, r5
 8001c34:	f44f 6000 	mov.w	r0, #2048	; 0x800
 8001c38:	f001 f948 	bl	8002ecc <RCC_APB2PeriphClockCmd>

  /* Enable the DMA2 Clock */
  RCC_AHB1PeriphClockCmd(SD_SDIO_DMA_CLK, ENABLE);
 8001c3c:	f44f 0080 	mov.w	r0, #4194304	; 0x400000
 8001c40:	4629      	mov	r1, r5
 8001c42:	f001 f937 	bl	8002eb4 <RCC_AHB1PeriphClockCmd>
}
 8001c46:	e8bd 81fc 	ldmia.w	sp!, {r2, r3, r4, r5, r6, r7, r8, pc}
 8001c4a:	bf00      	nop
 8001c4c:	40020800 	.word	0x40020800
 8001c50:	40020c00 	.word	0x40020c00

08001c54 <SD_LowLevel_DMA_TxConfig>:
  * @param  BufferSRC: pointer to the source buffer
  * @param  BufferSize: buffer size
  * @retval None
  */
void SD_LowLevel_DMA_TxConfig(uint32_t *BufferSRC, uint32_t BufferSize)
{
 8001c54:	b530      	push	{r4, r5, lr}
  DMA_InitTypeDef SDDMA_InitStructure;

  DMA_ClearFlag(SD_SDIO_DMA_STREAM, SD_SDIO_DMA_FLAG_FEIF | SD_SDIO_DMA_FLAG_DMEIF | SD_SDIO_DMA_FLAG_TEIF | SD_SDIO_DMA_FLAG_HTIF | SD_SDIO_DMA_FLAG_TCIF);
 8001c56:	4c22      	ldr	r4, [pc, #136]	; (8001ce0 <SD_LowLevel_DMA_TxConfig+0x8c>)
  * @param  BufferSRC: pointer to the source buffer
  * @param  BufferSize: buffer size
  * @retval None
  */
void SD_LowLevel_DMA_TxConfig(uint32_t *BufferSRC, uint32_t BufferSize)
{
 8001c58:	b091      	sub	sp, #68	; 0x44
 8001c5a:	4605      	mov	r5, r0
  DMA_InitTypeDef SDDMA_InitStructure;

  DMA_ClearFlag(SD_SDIO_DMA_STREAM, SD_SDIO_DMA_FLAG_FEIF | SD_SDIO_DMA_FLAG_DMEIF | SD_SDIO_DMA_FLAG_TEIF | SD_SDIO_DMA_FLAG_HTIF | SD_SDIO_DMA_FLAG_TCIF);
 8001c5c:	f04f 51fa 	mov.w	r1, #524288000	; 0x1f400000
 8001c60:	4620      	mov	r0, r4
 8001c62:	f001 f88d 	bl	8002d80 <DMA_ClearFlag>

  /* DMA2 Stream3  or Stream6 disable */
  DMA_Cmd(SD_SDIO_DMA_STREAM, DISABLE);
 8001c66:	2100      	movs	r1, #0
 8001c68:	4620      	mov	r0, r4
 8001c6a:	f001 f877 	bl	8002d5c <DMA_Cmd>

  /* DMA2 Stream3  or Stream6 Config */
  DMA_DeInit(SD_SDIO_DMA_STREAM);
 8001c6e:	4620      	mov	r0, r4
 8001c70:	f000 ffbc 	bl	8002bec <DMA_DeInit>

  SDDMA_InitStructure.DMA_Channel = SD_SDIO_DMA_CHANNEL;
 8001c74:	f04f 6300 	mov.w	r3, #134217728	; 0x8000000
 8001c78:	9301      	str	r3, [sp, #4]
  SDDMA_InitStructure.DMA_PeripheralBaseAddr = (uint32_t)SDIO_FIFO_ADDRESS;
 8001c7a:	4b1a      	ldr	r3, [pc, #104]	; (8001ce4 <SD_LowLevel_DMA_TxConfig+0x90>)
  SDDMA_InitStructure.DMA_Memory0BaseAddr = (uint32_t)BufferSRC;
 8001c7c:	9503      	str	r5, [sp, #12]

  /* DMA2 Stream3  or Stream6 Config */
  DMA_DeInit(SD_SDIO_DMA_STREAM);

  SDDMA_InitStructure.DMA_Channel = SD_SDIO_DMA_CHANNEL;
  SDDMA_InitStructure.DMA_PeripheralBaseAddr = (uint32_t)SDIO_FIFO_ADDRESS;
 8001c7e:	9302      	str	r3, [sp, #8]
  SDDMA_InitStructure.DMA_Memory0BaseAddr = (uint32_t)BufferSRC;
  SDDMA_InitStructure.DMA_DIR = DMA_DIR_MemoryToPeripheral;
 8001c80:	2340      	movs	r3, #64	; 0x40
 8001c82:	9304      	str	r3, [sp, #16]
  SDDMA_InitStructure.DMA_BufferSize = 0;
 8001c84:	2300      	movs	r3, #0
 8001c86:	9305      	str	r3, [sp, #20]
  SDDMA_InitStructure.DMA_PeripheralInc = DMA_PeripheralInc_Disable;
 8001c88:	9306      	str	r3, [sp, #24]
  SDDMA_InitStructure.DMA_MemoryInc = DMA_MemoryInc_Enable;
  SDDMA_InitStructure.DMA_PeripheralDataSize = DMA_PeripheralDataSize_Word;
  SDDMA_InitStructure.DMA_MemoryDataSize = DMA_MemoryDataSize_Word;
  SDDMA_InitStructure.DMA_Mode = DMA_Mode_Normal;
 8001c8a:	930a      	str	r3, [sp, #40]	; 0x28
  SDDMA_InitStructure.DMA_Priority = DMA_Priority_VeryHigh;
 8001c8c:	f44f 3340 	mov.w	r3, #196608	; 0x30000
 8001c90:	930b      	str	r3, [sp, #44]	; 0x2c
  SDDMA_InitStructure.DMA_FIFOMode = DMA_FIFOMode_Enable;
 8001c92:	2304      	movs	r3, #4
 8001c94:	930c      	str	r3, [sp, #48]	; 0x30
  SDDMA_InitStructure.DMA_PeripheralBaseAddr = (uint32_t)SDIO_FIFO_ADDRESS;
  SDDMA_InitStructure.DMA_Memory0BaseAddr = (uint32_t)BufferSRC;
  SDDMA_InitStructure.DMA_DIR = DMA_DIR_MemoryToPeripheral;
  SDDMA_InitStructure.DMA_BufferSize = 0;
  SDDMA_InitStructure.DMA_PeripheralInc = DMA_PeripheralInc_Disable;
  SDDMA_InitStructure.DMA_MemoryInc = DMA_MemoryInc_Enable;
 8001c96:	f44f 6280 	mov.w	r2, #1024	; 0x400
  SDDMA_InitStructure.DMA_PeripheralDataSize = DMA_PeripheralDataSize_Word;
  SDDMA_InitStructure.DMA_MemoryDataSize = DMA_MemoryDataSize_Word;
  SDDMA_InitStructure.DMA_Mode = DMA_Mode_Normal;
  SDDMA_InitStructure.DMA_Priority = DMA_Priority_VeryHigh;
  SDDMA_InitStructure.DMA_FIFOMode = DMA_FIFOMode_Enable;
  SDDMA_InitStructure.DMA_FIFOThreshold = DMA_FIFOThreshold_Full;
 8001c9a:	2303      	movs	r3, #3
  SDDMA_InitStructure.DMA_PeripheralBaseAddr = (uint32_t)SDIO_FIFO_ADDRESS;
  SDDMA_InitStructure.DMA_Memory0BaseAddr = (uint32_t)BufferSRC;
  SDDMA_InitStructure.DMA_DIR = DMA_DIR_MemoryToPeripheral;
  SDDMA_InitStructure.DMA_BufferSize = 0;
  SDDMA_InitStructure.DMA_PeripheralInc = DMA_PeripheralInc_Disable;
  SDDMA_InitStructure.DMA_MemoryInc = DMA_MemoryInc_Enable;
 8001c9c:	9207      	str	r2, [sp, #28]
  SDDMA_InitStructure.DMA_PeripheralDataSize = DMA_PeripheralDataSize_Word;
  SDDMA_InitStructure.DMA_MemoryDataSize = DMA_MemoryDataSize_Word;
  SDDMA_InitStructure.DMA_Mode = DMA_Mode_Normal;
  SDDMA_InitStructure.DMA_Priority = DMA_Priority_VeryHigh;
  SDDMA_InitStructure.DMA_FIFOMode = DMA_FIFOMode_Enable;
  SDDMA_InitStructure.DMA_FIFOThreshold = DMA_FIFOThreshold_Full;
 8001c9e:	930d      	str	r3, [sp, #52]	; 0x34
  SDDMA_InitStructure.DMA_Memory0BaseAddr = (uint32_t)BufferSRC;
  SDDMA_InitStructure.DMA_DIR = DMA_DIR_MemoryToPeripheral;
  SDDMA_InitStructure.DMA_BufferSize = 0;
  SDDMA_InitStructure.DMA_PeripheralInc = DMA_PeripheralInc_Disable;
  SDDMA_InitStructure.DMA_MemoryInc = DMA_MemoryInc_Enable;
  SDDMA_InitStructure.DMA_PeripheralDataSize = DMA_PeripheralDataSize_Word;
 8001ca0:	f44f 5280 	mov.w	r2, #4096	; 0x1000
  SDDMA_InitStructure.DMA_MemoryDataSize = DMA_MemoryDataSize_Word;
  SDDMA_InitStructure.DMA_Mode = DMA_Mode_Normal;
  SDDMA_InitStructure.DMA_Priority = DMA_Priority_VeryHigh;
  SDDMA_InitStructure.DMA_FIFOMode = DMA_FIFOMode_Enable;
  SDDMA_InitStructure.DMA_FIFOThreshold = DMA_FIFOThreshold_Full;
  SDDMA_InitStructure.DMA_MemoryBurst = DMA_MemoryBurst_INC4;
 8001ca4:	f44f 0300 	mov.w	r3, #8388608	; 0x800000
  SDDMA_InitStructure.DMA_Memory0BaseAddr = (uint32_t)BufferSRC;
  SDDMA_InitStructure.DMA_DIR = DMA_DIR_MemoryToPeripheral;
  SDDMA_InitStructure.DMA_BufferSize = 0;
  SDDMA_InitStructure.DMA_PeripheralInc = DMA_PeripheralInc_Disable;
  SDDMA_InitStructure.DMA_MemoryInc = DMA_MemoryInc_Enable;
  SDDMA_InitStructure.DMA_PeripheralDataSize = DMA_PeripheralDataSize_Word;
 8001ca8:	9208      	str	r2, [sp, #32]
  SDDMA_InitStructure.DMA_MemoryDataSize = DMA_MemoryDataSize_Word;
  SDDMA_InitStructure.DMA_Mode = DMA_Mode_Normal;
  SDDMA_InitStructure.DMA_Priority = DMA_Priority_VeryHigh;
  SDDMA_InitStructure.DMA_FIFOMode = DMA_FIFOMode_Enable;
  SDDMA_InitStructure.DMA_FIFOThreshold = DMA_FIFOThreshold_Full;
  SDDMA_InitStructure.DMA_MemoryBurst = DMA_MemoryBurst_INC4;
 8001caa:	930e      	str	r3, [sp, #56]	; 0x38
  SDDMA_InitStructure.DMA_DIR = DMA_DIR_MemoryToPeripheral;
  SDDMA_InitStructure.DMA_BufferSize = 0;
  SDDMA_InitStructure.DMA_PeripheralInc = DMA_PeripheralInc_Disable;
  SDDMA_InitStructure.DMA_MemoryInc = DMA_MemoryInc_Enable;
  SDDMA_InitStructure.DMA_PeripheralDataSize = DMA_PeripheralDataSize_Word;
  SDDMA_InitStructure.DMA_MemoryDataSize = DMA_MemoryDataSize_Word;
 8001cac:	f44f 4280 	mov.w	r2, #16384	; 0x4000
  SDDMA_InitStructure.DMA_Mode = DMA_Mode_Normal;
  SDDMA_InitStructure.DMA_Priority = DMA_Priority_VeryHigh;
  SDDMA_InitStructure.DMA_FIFOMode = DMA_FIFOMode_Enable;
  SDDMA_InitStructure.DMA_FIFOThreshold = DMA_FIFOThreshold_Full;
  SDDMA_InitStructure.DMA_MemoryBurst = DMA_MemoryBurst_INC4;
  SDDMA_InitStructure.DMA_PeripheralBurst = DMA_PeripheralBurst_INC4;
 8001cb0:	f44f 1300 	mov.w	r3, #2097152	; 0x200000
  DMA_Init(SD_SDIO_DMA_STREAM, &SDDMA_InitStructure);
 8001cb4:	4620      	mov	r0, r4
 8001cb6:	a901      	add	r1, sp, #4
  SDDMA_InitStructure.DMA_Mode = DMA_Mode_Normal;
  SDDMA_InitStructure.DMA_Priority = DMA_Priority_VeryHigh;
  SDDMA_InitStructure.DMA_FIFOMode = DMA_FIFOMode_Enable;
  SDDMA_InitStructure.DMA_FIFOThreshold = DMA_FIFOThreshold_Full;
  SDDMA_InitStructure.DMA_MemoryBurst = DMA_MemoryBurst_INC4;
  SDDMA_InitStructure.DMA_PeripheralBurst = DMA_PeripheralBurst_INC4;
 8001cb8:	930f      	str	r3, [sp, #60]	; 0x3c
  SDDMA_InitStructure.DMA_DIR = DMA_DIR_MemoryToPeripheral;
  SDDMA_InitStructure.DMA_BufferSize = 0;
  SDDMA_InitStructure.DMA_PeripheralInc = DMA_PeripheralInc_Disable;
  SDDMA_InitStructure.DMA_MemoryInc = DMA_MemoryInc_Enable;
  SDDMA_InitStructure.DMA_PeripheralDataSize = DMA_PeripheralDataSize_Word;
  SDDMA_InitStructure.DMA_MemoryDataSize = DMA_MemoryDataSize_Word;
 8001cba:	9209      	str	r2, [sp, #36]	; 0x24
  SDDMA_InitStructure.DMA_Priority = DMA_Priority_VeryHigh;
  SDDMA_InitStructure.DMA_FIFOMode = DMA_FIFOMode_Enable;
  SDDMA_InitStructure.DMA_FIFOThreshold = DMA_FIFOThreshold_Full;
  SDDMA_InitStructure.DMA_MemoryBurst = DMA_MemoryBurst_INC4;
  SDDMA_InitStructure.DMA_PeripheralBurst = DMA_PeripheralBurst_INC4;
  DMA_Init(SD_SDIO_DMA_STREAM, &SDDMA_InitStructure);
 8001cbc:	f001 f824 	bl	8002d08 <DMA_Init>
  DMA_ITConfig(SD_SDIO_DMA_STREAM, DMA_IT_TC, ENABLE);
 8001cc0:	4620      	mov	r0, r4
 8001cc2:	2110      	movs	r1, #16
 8001cc4:	2201      	movs	r2, #1
 8001cc6:	f001 f873 	bl	8002db0 <DMA_ITConfig>
  DMA_FlowControllerConfig(SD_SDIO_DMA_STREAM, DMA_FlowCtrl_Peripheral);
 8001cca:	4620      	mov	r0, r4
 8001ccc:	2120      	movs	r1, #32
 8001cce:	f001 f84e 	bl	8002d6e <DMA_FlowControllerConfig>

  /* DMA2 Stream3  or Stream6 enable */
  DMA_Cmd(SD_SDIO_DMA_STREAM, ENABLE);
 8001cd2:	4620      	mov	r0, r4
 8001cd4:	2101      	movs	r1, #1
 8001cd6:	f001 f841 	bl	8002d5c <DMA_Cmd>

}
 8001cda:	b011      	add	sp, #68	; 0x44
 8001cdc:	bd30      	pop	{r4, r5, pc}
 8001cde:	bf00      	nop
 8001ce0:	40026458 	.word	0x40026458
 8001ce4:	40012c80 	.word	0x40012c80

08001ce8 <SD_LowLevel_DMA_RxConfig>:
  * @param  BufferDST: pointer to the destination buffer
  * @param  BufferSize: buffer size
  * @retval None
  */
void SD_LowLevel_DMA_RxConfig(uint32_t *BufferDST, uint32_t BufferSize)
{
 8001ce8:	b530      	push	{r4, r5, lr}
  DMA_InitTypeDef SDDMA_InitStructure;

  DMA_ClearFlag(SD_SDIO_DMA_STREAM, SD_SDIO_DMA_FLAG_FEIF | SD_SDIO_DMA_FLAG_DMEIF | SD_SDIO_DMA_FLAG_TEIF | SD_SDIO_DMA_FLAG_HTIF | SD_SDIO_DMA_FLAG_TCIF);
 8001cea:	4c21      	ldr	r4, [pc, #132]	; (8001d70 <SD_LowLevel_DMA_RxConfig+0x88>)
  * @param  BufferDST: pointer to the destination buffer
  * @param  BufferSize: buffer size
  * @retval None
  */
void SD_LowLevel_DMA_RxConfig(uint32_t *BufferDST, uint32_t BufferSize)
{
 8001cec:	b091      	sub	sp, #68	; 0x44
 8001cee:	4605      	mov	r5, r0
  DMA_InitTypeDef SDDMA_InitStructure;

  DMA_ClearFlag(SD_SDIO_DMA_STREAM, SD_SDIO_DMA_FLAG_FEIF | SD_SDIO_DMA_FLAG_DMEIF | SD_SDIO_DMA_FLAG_TEIF | SD_SDIO_DMA_FLAG_HTIF | SD_SDIO_DMA_FLAG_TCIF);
 8001cf0:	f04f 51fa 	mov.w	r1, #524288000	; 0x1f400000
 8001cf4:	4620      	mov	r0, r4
 8001cf6:	f001 f843 	bl	8002d80 <DMA_ClearFlag>

  /* DMA2 Stream3  or Stream6 disable */
  DMA_Cmd(SD_SDIO_DMA_STREAM, DISABLE);
 8001cfa:	2100      	movs	r1, #0
 8001cfc:	4620      	mov	r0, r4
 8001cfe:	f001 f82d 	bl	8002d5c <DMA_Cmd>

  /* DMA2 Stream3 or Stream6 Config */
  DMA_DeInit(SD_SDIO_DMA_STREAM);
 8001d02:	4620      	mov	r0, r4
 8001d04:	f000 ff72 	bl	8002bec <DMA_DeInit>

  SDDMA_InitStructure.DMA_Channel = SD_SDIO_DMA_CHANNEL;
 8001d08:	f04f 6300 	mov.w	r3, #134217728	; 0x8000000
 8001d0c:	9301      	str	r3, [sp, #4]
  SDDMA_InitStructure.DMA_PeripheralBaseAddr = (uint32_t)SDIO_FIFO_ADDRESS;
 8001d0e:	4b19      	ldr	r3, [pc, #100]	; (8001d74 <SD_LowLevel_DMA_RxConfig+0x8c>)
  SDDMA_InitStructure.DMA_Memory0BaseAddr = (uint32_t)BufferDST;
 8001d10:	9503      	str	r5, [sp, #12]

  /* DMA2 Stream3 or Stream6 Config */
  DMA_DeInit(SD_SDIO_DMA_STREAM);

  SDDMA_InitStructure.DMA_Channel = SD_SDIO_DMA_CHANNEL;
  SDDMA_InitStructure.DMA_PeripheralBaseAddr = (uint32_t)SDIO_FIFO_ADDRESS;
 8001d12:	9302      	str	r3, [sp, #8]
  SDDMA_InitStructure.DMA_Memory0BaseAddr = (uint32_t)BufferDST;
  SDDMA_InitStructure.DMA_DIR = DMA_DIR_PeripheralToMemory;
 8001d14:	2300      	movs	r3, #0
 8001d16:	9304      	str	r3, [sp, #16]
  SDDMA_InitStructure.DMA_BufferSize = 0;
 8001d18:	9305      	str	r3, [sp, #20]
  SDDMA_InitStructure.DMA_PeripheralInc = DMA_PeripheralInc_Disable;
 8001d1a:	9306      	str	r3, [sp, #24]
  SDDMA_InitStructure.DMA_MemoryInc = DMA_MemoryInc_Enable;
  SDDMA_InitStructure.DMA_PeripheralDataSize = DMA_PeripheralDataSize_Word;
  SDDMA_InitStructure.DMA_MemoryDataSize = DMA_MemoryDataSize_Word;
  SDDMA_InitStructure.DMA_Mode = DMA_Mode_Normal;
 8001d1c:	930a      	str	r3, [sp, #40]	; 0x28
  SDDMA_InitStructure.DMA_Priority = DMA_Priority_VeryHigh;
 8001d1e:	f44f 3340 	mov.w	r3, #196608	; 0x30000
 8001d22:	930b      	str	r3, [sp, #44]	; 0x2c
  SDDMA_InitStructure.DMA_FIFOMode = DMA_FIFOMode_Enable;
 8001d24:	2304      	movs	r3, #4
 8001d26:	930c      	str	r3, [sp, #48]	; 0x30
  SDDMA_InitStructure.DMA_PeripheralBaseAddr = (uint32_t)SDIO_FIFO_ADDRESS;
  SDDMA_InitStructure.DMA_Memory0BaseAddr = (uint32_t)BufferDST;
  SDDMA_InitStructure.DMA_DIR = DMA_DIR_PeripheralToMemory;
  SDDMA_InitStructure.DMA_BufferSize = 0;
  SDDMA_InitStructure.DMA_PeripheralInc = DMA_PeripheralInc_Disable;
  SDDMA_InitStructure.DMA_MemoryInc = DMA_MemoryInc_Enable;
 8001d28:	f44f 6280 	mov.w	r2, #1024	; 0x400
  SDDMA_InitStructure.DMA_PeripheralDataSize = DMA_PeripheralDataSize_Word;
  SDDMA_InitStructure.DMA_MemoryDataSize = DMA_MemoryDataSize_Word;
  SDDMA_InitStructure.DMA_Mode = DMA_Mode_Normal;
  SDDMA_InitStructure.DMA_Priority = DMA_Priority_VeryHigh;
  SDDMA_InitStructure.DMA_FIFOMode = DMA_FIFOMode_Enable;
  SDDMA_InitStructure.DMA_FIFOThreshold = DMA_FIFOThreshold_Full;
 8001d2c:	2303      	movs	r3, #3
  SDDMA_InitStructure.DMA_PeripheralBaseAddr = (uint32_t)SDIO_FIFO_ADDRESS;
  SDDMA_InitStructure.DMA_Memory0BaseAddr = (uint32_t)BufferDST;
  SDDMA_InitStructure.DMA_DIR = DMA_DIR_PeripheralToMemory;
  SDDMA_InitStructure.DMA_BufferSize = 0;
  SDDMA_InitStructure.DMA_PeripheralInc = DMA_PeripheralInc_Disable;
  SDDMA_InitStructure.DMA_MemoryInc = DMA_MemoryInc_Enable;
 8001d2e:	9207      	str	r2, [sp, #28]
  SDDMA_InitStructure.DMA_PeripheralDataSize = DMA_PeripheralDataSize_Word;
  SDDMA_InitStructure.DMA_MemoryDataSize = DMA_MemoryDataSize_Word;
  SDDMA_InitStructure.DMA_Mode = DMA_Mode_Normal;
  SDDMA_InitStructure.DMA_Priority = DMA_Priority_VeryHigh;
  SDDMA_InitStructure.DMA_FIFOMode = DMA_FIFOMode_Enable;
  SDDMA_InitStructure.DMA_FIFOThreshold = DMA_FIFOThreshold_Full;
 8001d30:	930d      	str	r3, [sp, #52]	; 0x34
  SDDMA_InitStructure.DMA_Memory0BaseAddr = (uint32_t)BufferDST;
  SDDMA_InitStructure.DMA_DIR = DMA_DIR_PeripheralToMemory;
  SDDMA_InitStructure.DMA_BufferSize = 0;
  SDDMA_InitStructure.DMA_PeripheralInc = DMA_PeripheralInc_Disable;
  SDDMA_InitStructure.DMA_MemoryInc = DMA_MemoryInc_Enable;
  SDDMA_InitStructure.DMA_PeripheralDataSize = DMA_PeripheralDataSize_Word;
 8001d32:	f44f 5280 	mov.w	r2, #4096	; 0x1000
  SDDMA_InitStructure.DMA_MemoryDataSize = DMA_MemoryDataSize_Word;
  SDDMA_InitStructure.DMA_Mode = DMA_Mode_Normal;
  SDDMA_InitStructure.DMA_Priority = DMA_Priority_VeryHigh;
  SDDMA_InitStructure.DMA_FIFOMode = DMA_FIFOMode_Enable;
  SDDMA_InitStructure.DMA_FIFOThreshold = DMA_FIFOThreshold_Full;
  SDDMA_InitStructure.DMA_MemoryBurst = DMA_MemoryBurst_INC4;
 8001d36:	f44f 0300 	mov.w	r3, #8388608	; 0x800000
  SDDMA_InitStructure.DMA_Memory0BaseAddr = (uint32_t)BufferDST;
  SDDMA_InitStructure.DMA_DIR = DMA_DIR_PeripheralToMemory;
  SDDMA_InitStructure.DMA_BufferSize = 0;
  SDDMA_InitStructure.DMA_PeripheralInc = DMA_PeripheralInc_Disable;
  SDDMA_InitStructure.DMA_MemoryInc = DMA_MemoryInc_Enable;
  SDDMA_InitStructure.DMA_PeripheralDataSize = DMA_PeripheralDataSize_Word;
 8001d3a:	9208      	str	r2, [sp, #32]
  SDDMA_InitStructure.DMA_MemoryDataSize = DMA_MemoryDataSize_Word;
  SDDMA_InitStructure.DMA_Mode = DMA_Mode_Normal;
  SDDMA_InitStructure.DMA_Priority = DMA_Priority_VeryHigh;
  SDDMA_InitStructure.DMA_FIFOMode = DMA_FIFOMode_Enable;
  SDDMA_InitStructure.DMA_FIFOThreshold = DMA_FIFOThreshold_Full;
  SDDMA_InitStructure.DMA_MemoryBurst = DMA_MemoryBurst_INC4;
 8001d3c:	930e      	str	r3, [sp, #56]	; 0x38
  SDDMA_InitStructure.DMA_DIR = DMA_DIR_PeripheralToMemory;
  SDDMA_InitStructure.DMA_BufferSize = 0;
  SDDMA_InitStructure.DMA_PeripheralInc = DMA_PeripheralInc_Disable;
  SDDMA_InitStructure.DMA_MemoryInc = DMA_MemoryInc_Enable;
  SDDMA_InitStructure.DMA_PeripheralDataSize = DMA_PeripheralDataSize_Word;
  SDDMA_InitStructure.DMA_MemoryDataSize = DMA_MemoryDataSize_Word;
 8001d3e:	f44f 4280 	mov.w	r2, #16384	; 0x4000
  SDDMA_InitStructure.DMA_Mode = DMA_Mode_Normal;
  SDDMA_InitStructure.DMA_Priority = DMA_Priority_VeryHigh;
  SDDMA_InitStructure.DMA_FIFOMode = DMA_FIFOMode_Enable;
  SDDMA_InitStructure.DMA_FIFOThreshold = DMA_FIFOThreshold_Full;
  SDDMA_InitStructure.DMA_MemoryBurst = DMA_MemoryBurst_INC4;
  SDDMA_InitStructure.DMA_PeripheralBurst = DMA_PeripheralBurst_INC4;
 8001d42:	f44f 1300 	mov.w	r3, #2097152	; 0x200000
  DMA_Init(SD_SDIO_DMA_STREAM, &SDDMA_InitStructure);
 8001d46:	4620      	mov	r0, r4
 8001d48:	a901      	add	r1, sp, #4
  SDDMA_InitStructure.DMA_Mode = DMA_Mode_Normal;
  SDDMA_InitStructure.DMA_Priority = DMA_Priority_VeryHigh;
  SDDMA_InitStructure.DMA_FIFOMode = DMA_FIFOMode_Enable;
  SDDMA_InitStructure.DMA_FIFOThreshold = DMA_FIFOThreshold_Full;
  SDDMA_InitStructure.DMA_MemoryBurst = DMA_MemoryBurst_INC4;
  SDDMA_InitStructure.DMA_PeripheralBurst = DMA_PeripheralBurst_INC4;
 8001d4a:	930f      	str	r3, [sp, #60]	; 0x3c
  SDDMA_InitStructure.DMA_DIR = DMA_DIR_PeripheralToMemory;
  SDDMA_InitStructure.DMA_BufferSize = 0;
  SDDMA_InitStructure.DMA_PeripheralInc = DMA_PeripheralInc_Disable;
  SDDMA_InitStructure.DMA_MemoryInc = DMA_MemoryInc_Enable;
  SDDMA_InitStructure.DMA_PeripheralDataSize = DMA_PeripheralDataSize_Word;
  SDDMA_InitStructure.DMA_MemoryDataSize = DMA_MemoryDataSize_Word;
 8001d4c:	9209      	str	r2, [sp, #36]	; 0x24
  SDDMA_InitStructure.DMA_Priority = DMA_Priority_VeryHigh;
  SDDMA_InitStructure.DMA_FIFOMode = DMA_FIFOMode_Enable;
  SDDMA_InitStructure.DMA_FIFOThreshold = DMA_FIFOThreshold_Full;
  SDDMA_InitStructure.DMA_MemoryBurst = DMA_MemoryBurst_INC4;
  SDDMA_InitStructure.DMA_PeripheralBurst = DMA_PeripheralBurst_INC4;
  DMA_Init(SD_SDIO_DMA_STREAM, &SDDMA_InitStructure);
 8001d4e:	f000 ffdb 	bl	8002d08 <DMA_Init>
  DMA_ITConfig(SD_SDIO_DMA_STREAM, DMA_IT_TC, ENABLE);
 8001d52:	4620      	mov	r0, r4
 8001d54:	2110      	movs	r1, #16
 8001d56:	2201      	movs	r2, #1
 8001d58:	f001 f82a 	bl	8002db0 <DMA_ITConfig>
  DMA_FlowControllerConfig(SD_SDIO_DMA_STREAM, DMA_FlowCtrl_Peripheral);
 8001d5c:	4620      	mov	r0, r4
 8001d5e:	2120      	movs	r1, #32
 8001d60:	f001 f805 	bl	8002d6e <DMA_FlowControllerConfig>

  /* DMA2 Stream3 or Stream6 enable */
  DMA_Cmd(SD_SDIO_DMA_STREAM, ENABLE);
 8001d64:	4620      	mov	r0, r4
 8001d66:	2101      	movs	r1, #1
 8001d68:	f000 fff8 	bl	8002d5c <DMA_Cmd>
}
 8001d6c:	b011      	add	sp, #68	; 0x44
 8001d6e:	bd30      	pop	{r4, r5, pc}
 8001d70:	40026458 	.word	0x40026458
 8001d74:	40012c80 	.word	0x40012c80

08001d78 <CmdResp2Error>:
  * @brief  Checks for error conditions for R2 (CID or CSD) response.
  * @param  None
  * @retval SD_Error: SD Card Error code.
  */
static SD_Error CmdResp2Error(void)
{
 8001d78:	b510      	push	{r4, lr}
  SD_Error errorstatus = SD_OK;
  uint32_t status;

  status = SDIO->STA;
 8001d7a:	4b0d      	ldr	r3, [pc, #52]	; (8001db0 <CmdResp2Error+0x38>)

  while (!(status & (SDIO_FLAG_CCRCFAIL | SDIO_FLAG_CTIMEOUT | SDIO_FLAG_CMDREND)))
  {
    status = SDIO->STA;
 8001d7c:	6b58      	ldr	r0, [r3, #52]	; 0x34
  SD_Error errorstatus = SD_OK;
  uint32_t status;

  status = SDIO->STA;

  while (!(status & (SDIO_FLAG_CCRCFAIL | SDIO_FLAG_CTIMEOUT | SDIO_FLAG_CMDREND)))
 8001d7e:	f010 0f45 	tst.w	r0, #69	; 0x45
 8001d82:	d0fb      	beq.n	8001d7c <CmdResp2Error+0x4>
  {
    status = SDIO->STA;
  }

  if (status & SDIO_FLAG_CTIMEOUT)
 8001d84:	0743      	lsls	r3, r0, #29
 8001d86:	d504      	bpl.n	8001d92 <CmdResp2Error+0x1a>
  {
    errorstatus = SD_CMD_RSP_TIMEOUT;
    SDIO_ClearFlag(SDIO_FLAG_CTIMEOUT);
 8001d88:	2004      	movs	r0, #4
 8001d8a:	f001 f951 	bl	8003030 <SDIO_ClearFlag>
    return(errorstatus);
 8001d8e:	2003      	movs	r0, #3
 8001d90:	bd10      	pop	{r4, pc}
  }
  else if (status & SDIO_FLAG_CCRCFAIL)
 8001d92:	f010 0401 	ands.w	r4, r0, #1
 8001d96:	d004      	beq.n	8001da2 <CmdResp2Error+0x2a>
  {
    errorstatus = SD_CMD_CRC_FAIL;
    SDIO_ClearFlag(SDIO_FLAG_CCRCFAIL);
 8001d98:	2001      	movs	r0, #1
 8001d9a:	f001 f949 	bl	8003030 <SDIO_ClearFlag>
    return(errorstatus);
 8001d9e:	2001      	movs	r0, #1
 8001da0:	bd10      	pop	{r4, pc}
  }

  /*!< Clear all the static flags */
  SDIO_ClearFlag(SDIO_STATIC_FLAGS);
 8001da2:	f240 50ff 	movw	r0, #1535	; 0x5ff
 8001da6:	f001 f943 	bl	8003030 <SDIO_ClearFlag>

  return(errorstatus);
 8001daa:	4620      	mov	r0, r4
}
 8001dac:	bd10      	pop	{r4, pc}
 8001dae:	bf00      	nop
 8001db0:	40012c00 	.word	0x40012c00

08001db4 <CmdResp1Error>:
{
  SD_Error errorstatus = SD_OK;
  uint32_t status;
  uint32_t response_r1;

  status = SDIO->STA;
 8001db4:	4a3a      	ldr	r2, [pc, #232]	; (8001ea0 <CmdResp1Error+0xec>)
  * @brief  Checks for error conditions for R1 response.
  * @param  cmd: The sent command index.
  * @retval SD_Error: SD Card Error code.
  */
static SD_Error CmdResp1Error(uint8_t cmd)
{
 8001db6:	b538      	push	{r3, r4, r5, lr}
 8001db8:	4605      	mov	r5, r0

  status = SDIO->STA;

  while (!(status & (SDIO_FLAG_CCRCFAIL | SDIO_FLAG_CMDREND | SDIO_FLAG_CTIMEOUT)))
  {
    status = SDIO->STA;
 8001dba:	6b53      	ldr	r3, [r2, #52]	; 0x34
  uint32_t status;
  uint32_t response_r1;

  status = SDIO->STA;

  while (!(status & (SDIO_FLAG_CCRCFAIL | SDIO_FLAG_CMDREND | SDIO_FLAG_CTIMEOUT)))
 8001dbc:	f013 0f45 	tst.w	r3, #69	; 0x45
 8001dc0:	d0fb      	beq.n	8001dba <CmdResp1Error+0x6>
  {
    status = SDIO->STA;
  }

  if (status & SDIO_FLAG_CTIMEOUT)
 8001dc2:	0759      	lsls	r1, r3, #29
 8001dc4:	d504      	bpl.n	8001dd0 <CmdResp1Error+0x1c>
  {
    errorstatus = SD_CMD_RSP_TIMEOUT;
    SDIO_ClearFlag(SDIO_FLAG_CTIMEOUT);
 8001dc6:	2004      	movs	r0, #4
 8001dc8:	f001 f932 	bl	8003030 <SDIO_ClearFlag>
    return(errorstatus);
 8001dcc:	2003      	movs	r0, #3
 8001dce:	bd38      	pop	{r3, r4, r5, pc}
  }
  else if (status & SDIO_FLAG_CCRCFAIL)
 8001dd0:	f013 0401 	ands.w	r4, r3, #1
 8001dd4:	d004      	beq.n	8001de0 <CmdResp1Error+0x2c>
  {
    errorstatus = SD_CMD_CRC_FAIL;
    SDIO_ClearFlag(SDIO_FLAG_CCRCFAIL);
 8001dd6:	2001      	movs	r0, #1
 8001dd8:	f001 f92a 	bl	8003030 <SDIO_ClearFlag>
    return(errorstatus);
 8001ddc:	2001      	movs	r0, #1
 8001dde:	bd38      	pop	{r3, r4, r5, pc}
  }

  /*!< Check response received is of desired command */
  if (SDIO_GetCommandResponse() != cmd)
 8001de0:	f001 f8dc 	bl	8002f9c <SDIO_GetCommandResponse>
 8001de4:	42a8      	cmp	r0, r5
 8001de6:	d158      	bne.n	8001e9a <CmdResp1Error+0xe6>
    errorstatus = SD_ILLEGAL_CMD;
    return(errorstatus);
  }

  /*!< Clear all the static flags */
  SDIO_ClearFlag(SDIO_STATIC_FLAGS);
 8001de8:	f240 50ff 	movw	r0, #1535	; 0x5ff
 8001dec:	f001 f920 	bl	8003030 <SDIO_ClearFlag>

  /*!< We have received response, retrieve it for analysis  */
  response_r1 = SDIO_GetResponse(SDIO_RESP1);
 8001df0:	4620      	mov	r0, r4
 8001df2:	f001 f8d9 	bl	8002fa8 <SDIO_GetResponse>

  if ((response_r1 & SD_OCR_ERRORBITS) == SD_ALLZERO)
 8001df6:	4b2b      	ldr	r3, [pc, #172]	; (8001ea4 <CmdResp1Error+0xf0>)
 8001df8:	4003      	ands	r3, r0
 8001dfa:	2b00      	cmp	r3, #0
 8001dfc:	d029      	beq.n	8001e52 <CmdResp1Error+0x9e>
  {
    return(errorstatus);
  }

  if (response_r1 & SD_OCR_ADDR_OUT_OF_RANGE)
 8001dfe:	2800      	cmp	r0, #0
 8001e00:	db29      	blt.n	8001e56 <CmdResp1Error+0xa2>
  {
    return(SD_ADDR_OUT_OF_RANGE);
  }

  if (response_r1 & SD_OCR_ADDR_MISALIGNED)
 8001e02:	0042      	lsls	r2, r0, #1
 8001e04:	d429      	bmi.n	8001e5a <CmdResp1Error+0xa6>
  {
    return(SD_ADDR_MISALIGNED);
  }

  if (response_r1 & SD_OCR_BLOCK_LEN_ERR)
 8001e06:	0083      	lsls	r3, r0, #2
 8001e08:	d429      	bmi.n	8001e5e <CmdResp1Error+0xaa>
  {
    return(SD_BLOCK_LEN_ERR);
  }

  if (response_r1 & SD_OCR_ERASE_SEQ_ERR)
 8001e0a:	00c1      	lsls	r1, r0, #3
 8001e0c:	d429      	bmi.n	8001e62 <CmdResp1Error+0xae>
  {
    return(SD_ERASE_SEQ_ERR);
  }

  if (response_r1 & SD_OCR_BAD_ERASE_PARAM)
 8001e0e:	0102      	lsls	r2, r0, #4
 8001e10:	d429      	bmi.n	8001e66 <CmdResp1Error+0xb2>
  {
    return(SD_BAD_ERASE_PARAM);
  }

  if (response_r1 & SD_OCR_WRITE_PROT_VIOLATION)
 8001e12:	0143      	lsls	r3, r0, #5
 8001e14:	d429      	bmi.n	8001e6a <CmdResp1Error+0xb6>
  {
    return(SD_WRITE_PROT_VIOLATION);
  }

  if (response_r1 & SD_OCR_LOCK_UNLOCK_FAILED)
 8001e16:	01c1      	lsls	r1, r0, #7
 8001e18:	d429      	bmi.n	8001e6e <CmdResp1Error+0xba>
  {
    return(SD_LOCK_UNLOCK_FAILED);
  }

  if (response_r1 & SD_OCR_COM_CRC_FAILED)
 8001e1a:	0202      	lsls	r2, r0, #8
 8001e1c:	d429      	bmi.n	8001e72 <CmdResp1Error+0xbe>
  {
    return(SD_COM_CRC_FAILED);
  }

  if (response_r1 & SD_OCR_ILLEGAL_CMD)
 8001e1e:	0243      	lsls	r3, r0, #9
 8001e20:	d43b      	bmi.n	8001e9a <CmdResp1Error+0xe6>
  {
    return(SD_ILLEGAL_CMD);
  }

  if (response_r1 & SD_OCR_CARD_ECC_FAILED)
 8001e22:	0281      	lsls	r1, r0, #10
 8001e24:	d427      	bmi.n	8001e76 <CmdResp1Error+0xc2>
  {
    return(SD_CARD_ECC_FAILED);
  }

  if (response_r1 & SD_OCR_CC_ERROR)
 8001e26:	02c2      	lsls	r2, r0, #11
 8001e28:	d427      	bmi.n	8001e7a <CmdResp1Error+0xc6>
  {
    return(SD_CC_ERROR);
  }

  if (response_r1 & SD_OCR_GENERAL_UNKNOWN_ERROR)
 8001e2a:	0303      	lsls	r3, r0, #12
 8001e2c:	d427      	bmi.n	8001e7e <CmdResp1Error+0xca>
  {
    return(SD_GENERAL_UNKNOWN_ERROR);
  }

  if (response_r1 & SD_OCR_STREAM_READ_UNDERRUN)
 8001e2e:	0341      	lsls	r1, r0, #13
 8001e30:	d427      	bmi.n	8001e82 <CmdResp1Error+0xce>
  {
    return(SD_STREAM_READ_UNDERRUN);
  }

  if (response_r1 & SD_OCR_STREAM_WRITE_OVERRUN)
 8001e32:	0382      	lsls	r2, r0, #14
 8001e34:	d427      	bmi.n	8001e86 <CmdResp1Error+0xd2>
  {
    return(SD_STREAM_WRITE_OVERRUN);
  }

  if (response_r1 & SD_OCR_CID_CSD_OVERWRIETE)
 8001e36:	03c3      	lsls	r3, r0, #15
 8001e38:	d427      	bmi.n	8001e8a <CmdResp1Error+0xd6>
  {
    return(SD_CID_CSD_OVERWRITE);
  }

  if (response_r1 & SD_OCR_WP_ERASE_SKIP)
 8001e3a:	0401      	lsls	r1, r0, #16
 8001e3c:	d427      	bmi.n	8001e8e <CmdResp1Error+0xda>
  {
    return(SD_WP_ERASE_SKIP);
  }

  if (response_r1 & SD_OCR_CARD_ECC_DISABLED)
 8001e3e:	0442      	lsls	r2, r0, #17
 8001e40:	d427      	bmi.n	8001e92 <CmdResp1Error+0xde>
  {
    return(SD_CARD_ECC_DISABLED);
  }

  if (response_r1 & SD_OCR_ERASE_RESET)
 8001e42:	0483      	lsls	r3, r0, #18
 8001e44:	d427      	bmi.n	8001e96 <CmdResp1Error+0xe2>
    return(SD_ERASE_RESET);
  }

  if (response_r1 & SD_OCR_AKE_SEQ_ERROR)
  {
    return(SD_AKE_SEQ_ERROR);
 8001e46:	f010 0f08 	tst.w	r0, #8
 8001e4a:	bf0c      	ite	eq
 8001e4c:	2000      	moveq	r0, #0
 8001e4e:	201a      	movne	r0, #26
 8001e50:	bd38      	pop	{r3, r4, r5, pc}
  /*!< We have received response, retrieve it for analysis  */
  response_r1 = SDIO_GetResponse(SDIO_RESP1);

  if ((response_r1 & SD_OCR_ERRORBITS) == SD_ALLZERO)
  {
    return(errorstatus);
 8001e52:	4618      	mov	r0, r3
 8001e54:	bd38      	pop	{r3, r4, r5, pc}
  }

  if (response_r1 & SD_OCR_ADDR_OUT_OF_RANGE)
  {
    return(SD_ADDR_OUT_OF_RANGE);
 8001e56:	201c      	movs	r0, #28
 8001e58:	bd38      	pop	{r3, r4, r5, pc}
  }

  if (response_r1 & SD_OCR_ADDR_MISALIGNED)
  {
    return(SD_ADDR_MISALIGNED);
 8001e5a:	2009      	movs	r0, #9
 8001e5c:	bd38      	pop	{r3, r4, r5, pc}
  }

  if (response_r1 & SD_OCR_BLOCK_LEN_ERR)
  {
    return(SD_BLOCK_LEN_ERR);
 8001e5e:	200a      	movs	r0, #10
 8001e60:	bd38      	pop	{r3, r4, r5, pc}
  }

  if (response_r1 & SD_OCR_ERASE_SEQ_ERR)
  {
    return(SD_ERASE_SEQ_ERR);
 8001e62:	200b      	movs	r0, #11
 8001e64:	bd38      	pop	{r3, r4, r5, pc}
  }

  if (response_r1 & SD_OCR_BAD_ERASE_PARAM)
  {
    return(SD_BAD_ERASE_PARAM);
 8001e66:	200c      	movs	r0, #12
 8001e68:	bd38      	pop	{r3, r4, r5, pc}
  }

  if (response_r1 & SD_OCR_WRITE_PROT_VIOLATION)
  {
    return(SD_WRITE_PROT_VIOLATION);
 8001e6a:	200d      	movs	r0, #13
 8001e6c:	bd38      	pop	{r3, r4, r5, pc}
  }

  if (response_r1 & SD_OCR_LOCK_UNLOCK_FAILED)
  {
    return(SD_LOCK_UNLOCK_FAILED);
 8001e6e:	200e      	movs	r0, #14
 8001e70:	bd38      	pop	{r3, r4, r5, pc}
  }

  if (response_r1 & SD_OCR_COM_CRC_FAILED)
  {
    return(SD_COM_CRC_FAILED);
 8001e72:	200f      	movs	r0, #15
 8001e74:	bd38      	pop	{r3, r4, r5, pc}
    return(SD_ILLEGAL_CMD);
  }

  if (response_r1 & SD_OCR_CARD_ECC_FAILED)
  {
    return(SD_CARD_ECC_FAILED);
 8001e76:	2011      	movs	r0, #17
 8001e78:	bd38      	pop	{r3, r4, r5, pc}
  }

  if (response_r1 & SD_OCR_CC_ERROR)
  {
    return(SD_CC_ERROR);
 8001e7a:	2012      	movs	r0, #18
 8001e7c:	bd38      	pop	{r3, r4, r5, pc}
  }

  if (response_r1 & SD_OCR_GENERAL_UNKNOWN_ERROR)
  {
    return(SD_GENERAL_UNKNOWN_ERROR);
 8001e7e:	2013      	movs	r0, #19
 8001e80:	bd38      	pop	{r3, r4, r5, pc}
  }

  if (response_r1 & SD_OCR_STREAM_READ_UNDERRUN)
  {
    return(SD_STREAM_READ_UNDERRUN);
 8001e82:	2014      	movs	r0, #20
 8001e84:	bd38      	pop	{r3, r4, r5, pc}
  }

  if (response_r1 & SD_OCR_STREAM_WRITE_OVERRUN)
  {
    return(SD_STREAM_WRITE_OVERRUN);
 8001e86:	2015      	movs	r0, #21
 8001e88:	bd38      	pop	{r3, r4, r5, pc}
  }

  if (response_r1 & SD_OCR_CID_CSD_OVERWRIETE)
  {
    return(SD_CID_CSD_OVERWRITE);
 8001e8a:	2016      	movs	r0, #22
 8001e8c:	bd38      	pop	{r3, r4, r5, pc}
  }

  if (response_r1 & SD_OCR_WP_ERASE_SKIP)
  {
    return(SD_WP_ERASE_SKIP);
 8001e8e:	2017      	movs	r0, #23
 8001e90:	bd38      	pop	{r3, r4, r5, pc}
  }

  if (response_r1 & SD_OCR_CARD_ECC_DISABLED)
  {
    return(SD_CARD_ECC_DISABLED);
 8001e92:	2018      	movs	r0, #24
 8001e94:	bd38      	pop	{r3, r4, r5, pc}
  }

  if (response_r1 & SD_OCR_ERASE_RESET)
  {
    return(SD_ERASE_RESET);
 8001e96:	2019      	movs	r0, #25
 8001e98:	bd38      	pop	{r3, r4, r5, pc}

  /*!< Check response received is of desired command */
  if (SDIO_GetCommandResponse() != cmd)
  {
    errorstatus = SD_ILLEGAL_CMD;
    return(errorstatus);
 8001e9a:	2010      	movs	r0, #16
  if (response_r1 & SD_OCR_AKE_SEQ_ERROR)
  {
    return(SD_AKE_SEQ_ERROR);
  }
  return(errorstatus);
}
 8001e9c:	bd38      	pop	{r3, r4, r5, pc}
 8001e9e:	bf00      	nop
 8001ea0:	40012c00 	.word	0x40012c00
 8001ea4:	fdffe008 	.word	0xfdffe008

08001ea8 <SDEnWideBus>:
  * @param  NewState: new state of the SDIO wide bus mode.
  *   This parameter can be: ENABLE or DISABLE.
  * @retval SD_Error: SD Card Error code.
  */
static SD_Error SDEnWideBus(FunctionalState NewState)
{
 8001ea8:	e92d 4ff0 	stmdb	sp!, {r4, r5, r6, r7, r8, r9, sl, fp, lr}
 8001eac:	4681      	mov	r9, r0
 8001eae:	b085      	sub	sp, #20
  SD_Error errorstatus = SD_OK;

  uint32_t scr[2] = {0, 0};

  if (SDIO_GetResponse(SDIO_RESP1) & SD_CARD_LOCKED)
 8001eb0:	2000      	movs	r0, #0
 8001eb2:	f001 f879 	bl	8002fa8 <SDIO_GetResponse>
 8001eb6:	f010 7600 	ands.w	r6, r0, #33554432	; 0x2000000
 8001eba:	f040 80d7 	bne.w	800206c <SDEnWideBus+0x1c4>
  SD_Error errorstatus = SD_OK;
  uint32_t tempscr[2] = {0, 0};

  /*!< Set Block Size To 8 Bytes */
  /*!< Send CMD55 APP_CMD with argument as card's RCA */
  SDIO_CmdInitStructure.SDIO_Argument = (uint32_t)8;
 8001ebe:	4d6f      	ldr	r5, [pc, #444]	; (800207c <SDEnWideBus+0x1d4>)
  */
static SD_Error FindSCR(uint16_t rca, uint32_t *pscr)
{
  uint32_t index = 0;
  SD_Error errorstatus = SD_OK;
  uint32_t tempscr[2] = {0, 0};
 8001ec0:	9602      	str	r6, [sp, #8]

  /*!< Set Block Size To 8 Bytes */
  /*!< Send CMD55 APP_CMD with argument as card's RCA */
  SDIO_CmdInitStructure.SDIO_Argument = (uint32_t)8;
  SDIO_CmdInitStructure.SDIO_CmdIndex = SD_CMD_SET_BLOCKLEN;
 8001ec2:	2410      	movs	r4, #16
  SDIO_CmdInitStructure.SDIO_Response = SDIO_Response_Short;
  SDIO_CmdInitStructure.SDIO_Wait = SDIO_Wait_No;
  SDIO_CmdInitStructure.SDIO_CPSM = SDIO_CPSM_Enable;
  SDIO_SendCommand(&SDIO_CmdInitStructure);
 8001ec4:	4628      	mov	r0, r5
  SD_Error errorstatus = SD_OK;
  uint32_t tempscr[2] = {0, 0};

  /*!< Set Block Size To 8 Bytes */
  /*!< Send CMD55 APP_CMD with argument as card's RCA */
  SDIO_CmdInitStructure.SDIO_Argument = (uint32_t)8;
 8001ec6:	f04f 0a08 	mov.w	sl, #8
  SDIO_CmdInitStructure.SDIO_CmdIndex = SD_CMD_SET_BLOCKLEN;
  SDIO_CmdInitStructure.SDIO_Response = SDIO_Response_Short;
 8001eca:	f04f 0840 	mov.w	r8, #64	; 0x40
  SDIO_CmdInitStructure.SDIO_Wait = SDIO_Wait_No;
  SDIO_CmdInitStructure.SDIO_CPSM = SDIO_CPSM_Enable;
 8001ece:	f44f 6780 	mov.w	r7, #1024	; 0x400
  uint32_t tempscr[2] = {0, 0};

  /*!< Set Block Size To 8 Bytes */
  /*!< Send CMD55 APP_CMD with argument as card's RCA */
  SDIO_CmdInitStructure.SDIO_Argument = (uint32_t)8;
  SDIO_CmdInitStructure.SDIO_CmdIndex = SD_CMD_SET_BLOCKLEN;
 8001ed2:	606c      	str	r4, [r5, #4]
  */
static SD_Error FindSCR(uint16_t rca, uint32_t *pscr)
{
  uint32_t index = 0;
  SD_Error errorstatus = SD_OK;
  uint32_t tempscr[2] = {0, 0};
 8001ed4:	9603      	str	r6, [sp, #12]

  /*!< Set Block Size To 8 Bytes */
  /*!< Send CMD55 APP_CMD with argument as card's RCA */
  SDIO_CmdInitStructure.SDIO_Argument = (uint32_t)8;
 8001ed6:	f8c5 a000 	str.w	sl, [r5]
  SDIO_CmdInitStructure.SDIO_CmdIndex = SD_CMD_SET_BLOCKLEN;
  SDIO_CmdInitStructure.SDIO_Response = SDIO_Response_Short;
 8001eda:	f8c5 8008 	str.w	r8, [r5, #8]
  SDIO_CmdInitStructure.SDIO_Wait = SDIO_Wait_No;
 8001ede:	60ee      	str	r6, [r5, #12]
  SDIO_CmdInitStructure.SDIO_CPSM = SDIO_CPSM_Enable;
 8001ee0:	612f      	str	r7, [r5, #16]
  SDIO_SendCommand(&SDIO_CmdInitStructure);
 8001ee2:	f001 f845 	bl	8002f70 <SDIO_SendCommand>

  errorstatus = CmdResp1Error(SD_CMD_SET_BLOCKLEN);
 8001ee6:	4620      	mov	r0, r4
 8001ee8:	f7ff ff64 	bl	8001db4 <CmdResp1Error>
 8001eec:	4604      	mov	r4, r0

  if (errorstatus != SD_OK)
 8001eee:	2800      	cmp	r0, #0
 8001ef0:	d172      	bne.n	8001fd8 <SDEnWideBus+0x130>
  {
    return(errorstatus);
  }

  /*!< Send CMD55 APP_CMD with argument as card's RCA */
  SDIO_CmdInitStructure.SDIO_Argument = (uint32_t) RCA << 16;
 8001ef2:	4a63      	ldr	r2, [pc, #396]	; (8002080 <SDEnWideBus+0x1d8>)
  SDIO_CmdInitStructure.SDIO_CmdIndex = SD_CMD_APP_CMD;
  SDIO_CmdInitStructure.SDIO_Response = SDIO_Response_Short;
  SDIO_CmdInitStructure.SDIO_Wait = SDIO_Wait_No;
 8001ef4:	60e8      	str	r0, [r5, #12]
  {
    return(errorstatus);
  }

  /*!< Send CMD55 APP_CMD with argument as card's RCA */
  SDIO_CmdInitStructure.SDIO_Argument = (uint32_t) RCA << 16;
 8001ef6:	6812      	ldr	r2, [r2, #0]
  SDIO_CmdInitStructure.SDIO_CmdIndex = SD_CMD_APP_CMD;
  SDIO_CmdInitStructure.SDIO_Response = SDIO_Response_Short;
 8001ef8:	f8c5 8008 	str.w	r8, [r5, #8]
  {
    return(errorstatus);
  }

  /*!< Send CMD55 APP_CMD with argument as card's RCA */
  SDIO_CmdInitStructure.SDIO_Argument = (uint32_t) RCA << 16;
 8001efc:	0412      	lsls	r2, r2, #16
  SDIO_CmdInitStructure.SDIO_CmdIndex = SD_CMD_APP_CMD;
 8001efe:	2637      	movs	r6, #55	; 0x37
  SDIO_CmdInitStructure.SDIO_Response = SDIO_Response_Short;
  SDIO_CmdInitStructure.SDIO_Wait = SDIO_Wait_No;
  SDIO_CmdInitStructure.SDIO_CPSM = SDIO_CPSM_Enable;
  SDIO_SendCommand(&SDIO_CmdInitStructure);
 8001f00:	4628      	mov	r0, r5
    return(errorstatus);
  }

  /*!< Send CMD55 APP_CMD with argument as card's RCA */
  SDIO_CmdInitStructure.SDIO_Argument = (uint32_t) RCA << 16;
  SDIO_CmdInitStructure.SDIO_CmdIndex = SD_CMD_APP_CMD;
 8001f02:	e885 0044 	stmia.w	r5, {r2, r6}
  SDIO_CmdInitStructure.SDIO_Response = SDIO_Response_Short;
  SDIO_CmdInitStructure.SDIO_Wait = SDIO_Wait_No;
  SDIO_CmdInitStructure.SDIO_CPSM = SDIO_CPSM_Enable;
 8001f06:	612f      	str	r7, [r5, #16]
  SDIO_SendCommand(&SDIO_CmdInitStructure);
 8001f08:	9401      	str	r4, [sp, #4]
 8001f0a:	f001 f831 	bl	8002f70 <SDIO_SendCommand>

  errorstatus = CmdResp1Error(SD_CMD_APP_CMD);
 8001f0e:	4630      	mov	r0, r6
 8001f10:	f7ff ff50 	bl	8001db4 <CmdResp1Error>

  if (errorstatus != SD_OK)
 8001f14:	9b01      	ldr	r3, [sp, #4]
  SDIO_CmdInitStructure.SDIO_Response = SDIO_Response_Short;
  SDIO_CmdInitStructure.SDIO_Wait = SDIO_Wait_No;
  SDIO_CmdInitStructure.SDIO_CPSM = SDIO_CPSM_Enable;
  SDIO_SendCommand(&SDIO_CmdInitStructure);

  errorstatus = CmdResp1Error(SD_CMD_APP_CMD);
 8001f16:	4604      	mov	r4, r0
 8001f18:	4683      	mov	fp, r0

  if (errorstatus != SD_OK)
 8001f1a:	2800      	cmp	r0, #0
 8001f1c:	d15f      	bne.n	8001fde <SDEnWideBus+0x136>
  {
    return(errorstatus);
  }
  SDIO_DataInitStructure.SDIO_DataTimeOut = SD_DATATIMEOUT;
 8001f1e:	4859      	ldr	r0, [pc, #356]	; (8002084 <SDEnWideBus+0x1dc>)
 8001f20:	f04f 32ff 	mov.w	r2, #4294967295
  SDIO_DataInitStructure.SDIO_DataLength = 8;
 8001f24:	e880 0404 	stmia.w	r0, {r2, sl}
  SDIO_DataInitStructure.SDIO_DataBlockSize = SDIO_DataBlockSize_8b;
 8001f28:	2230      	movs	r2, #48	; 0x30
 8001f2a:	6082      	str	r2, [r0, #8]
  SDIO_DataInitStructure.SDIO_TransferDir = SDIO_TransferDir_ToSDIO;
 8001f2c:	2202      	movs	r2, #2
 8001f2e:	60c2      	str	r2, [r0, #12]
  SDIO_DataInitStructure.SDIO_TransferMode = SDIO_TransferMode_Block;
  SDIO_DataInitStructure.SDIO_DPSM = SDIO_DPSM_Enable;
 8001f30:	2201      	movs	r2, #1
 8001f32:	6142      	str	r2, [r0, #20]
  }
  SDIO_DataInitStructure.SDIO_DataTimeOut = SD_DATATIMEOUT;
  SDIO_DataInitStructure.SDIO_DataLength = 8;
  SDIO_DataInitStructure.SDIO_DataBlockSize = SDIO_DataBlockSize_8b;
  SDIO_DataInitStructure.SDIO_TransferDir = SDIO_TransferDir_ToSDIO;
  SDIO_DataInitStructure.SDIO_TransferMode = SDIO_TransferMode_Block;
 8001f34:	6104      	str	r4, [r0, #16]
  SDIO_DataConfig(&SDIO_DataInitStructure);


  /*!< Send ACMD51 SD_APP_SEND_SCR with argument as 0 */
  SDIO_CmdInitStructure.SDIO_Argument = 0x0;
  SDIO_CmdInitStructure.SDIO_CmdIndex = SD_CMD_SD_APP_SEND_SCR;
 8001f36:	2633      	movs	r6, #51	; 0x33
  SDIO_DataInitStructure.SDIO_DataLength = 8;
  SDIO_DataInitStructure.SDIO_DataBlockSize = SDIO_DataBlockSize_8b;
  SDIO_DataInitStructure.SDIO_TransferDir = SDIO_TransferDir_ToSDIO;
  SDIO_DataInitStructure.SDIO_TransferMode = SDIO_TransferMode_Block;
  SDIO_DataInitStructure.SDIO_DPSM = SDIO_DPSM_Enable;
  SDIO_DataConfig(&SDIO_DataInitStructure);
 8001f38:	f001 f842 	bl	8002fc0 <SDIO_DataConfig>
  SDIO_CmdInitStructure.SDIO_Argument = 0x0;
  SDIO_CmdInitStructure.SDIO_CmdIndex = SD_CMD_SD_APP_SEND_SCR;
  SDIO_CmdInitStructure.SDIO_Response = SDIO_Response_Short;
  SDIO_CmdInitStructure.SDIO_Wait = SDIO_Wait_No;
  SDIO_CmdInitStructure.SDIO_CPSM = SDIO_CPSM_Enable;
  SDIO_SendCommand(&SDIO_CmdInitStructure);
 8001f3c:	4628      	mov	r0, r5
  SDIO_DataInitStructure.SDIO_DPSM = SDIO_DPSM_Enable;
  SDIO_DataConfig(&SDIO_DataInitStructure);


  /*!< Send ACMD51 SD_APP_SEND_SCR with argument as 0 */
  SDIO_CmdInitStructure.SDIO_Argument = 0x0;
 8001f3e:	602c      	str	r4, [r5, #0]
  SDIO_CmdInitStructure.SDIO_CmdIndex = SD_CMD_SD_APP_SEND_SCR;
  SDIO_CmdInitStructure.SDIO_Response = SDIO_Response_Short;
  SDIO_CmdInitStructure.SDIO_Wait = SDIO_Wait_No;
 8001f40:	60ec      	str	r4, [r5, #12]
  SDIO_DataConfig(&SDIO_DataInitStructure);


  /*!< Send ACMD51 SD_APP_SEND_SCR with argument as 0 */
  SDIO_CmdInitStructure.SDIO_Argument = 0x0;
  SDIO_CmdInitStructure.SDIO_CmdIndex = SD_CMD_SD_APP_SEND_SCR;
 8001f42:	606e      	str	r6, [r5, #4]
  SDIO_CmdInitStructure.SDIO_Response = SDIO_Response_Short;
 8001f44:	f8c5 8008 	str.w	r8, [r5, #8]
  SDIO_CmdInitStructure.SDIO_Wait = SDIO_Wait_No;
  SDIO_CmdInitStructure.SDIO_CPSM = SDIO_CPSM_Enable;
 8001f48:	612f      	str	r7, [r5, #16]
  SDIO_SendCommand(&SDIO_CmdInitStructure);
 8001f4a:	f001 f811 	bl	8002f70 <SDIO_SendCommand>

  errorstatus = CmdResp1Error(SD_CMD_SD_APP_SEND_SCR);
 8001f4e:	4630      	mov	r0, r6
 8001f50:	f7ff ff30 	bl	8001db4 <CmdResp1Error>

  if (errorstatus != SD_OK)
 8001f54:	4604      	mov	r4, r0
 8001f56:	2800      	cmp	r0, #0
 8001f58:	d140      	bne.n	8001fdc <SDEnWideBus+0x134>
  * @brief  Enables or disables the SDIO wide bus mode.
  * @param  NewState: new state of the SDIO wide bus mode.
  *   This parameter can be: ENABLE or DISABLE.
  * @retval SD_Error: SD Card Error code.
  */
static SD_Error SDEnWideBus(FunctionalState NewState)
 8001f5a:	ad01      	add	r5, sp, #4
  if (errorstatus != SD_OK)
  {
    return(errorstatus);
  }

  while (!(SDIO->STA & (SDIO_FLAG_RXOVERR | SDIO_FLAG_DCRCFAIL | SDIO_FLAG_DTIMEOUT | SDIO_FLAG_DBCKEND | SDIO_FLAG_STBITERR)))
 8001f5c:	4e4a      	ldr	r6, [pc, #296]	; (8002088 <SDEnWideBus+0x1e0>)
 8001f5e:	e008      	b.n	8001f72 <SDEnWideBus+0xca>
  {
    if (SDIO_GetFlagStatus(SDIO_FLAG_RXDAVL) != RESET)
 8001f60:	f44f 1000 	mov.w	r0, #2097152	; 0x200000
 8001f64:	f001 f85a 	bl	800301c <SDIO_GetFlagStatus>
 8001f68:	b118      	cbz	r0, 8001f72 <SDEnWideBus+0xca>
    {
      *(tempscr + index) = SDIO_ReadData();
 8001f6a:	f001 f83f 	bl	8002fec <SDIO_ReadData>
 8001f6e:	f845 0f04 	str.w	r0, [r5, #4]!
  if (errorstatus != SD_OK)
  {
    return(errorstatus);
  }

  while (!(SDIO->STA & (SDIO_FLAG_RXOVERR | SDIO_FLAG_DCRCFAIL | SDIO_FLAG_DTIMEOUT | SDIO_FLAG_DBCKEND | SDIO_FLAG_STBITERR)))
 8001f72:	6b72      	ldr	r2, [r6, #52]	; 0x34
 8001f74:	f240 632a 	movw	r3, #1578	; 0x62a
 8001f78:	4013      	ands	r3, r2
 8001f7a:	2b00      	cmp	r3, #0
 8001f7c:	d0f0      	beq.n	8001f60 <SDEnWideBus+0xb8>
      *(tempscr + index) = SDIO_ReadData();
      index++;
    }
  }

  if (SDIO_GetFlagStatus(SDIO_FLAG_DTIMEOUT) != RESET)
 8001f7e:	2008      	movs	r0, #8
 8001f80:	f001 f84c 	bl	800301c <SDIO_GetFlagStatus>
 8001f84:	b120      	cbz	r0, 8001f90 <SDEnWideBus+0xe8>
  {
    SDIO_ClearFlag(SDIO_FLAG_DTIMEOUT);
 8001f86:	2008      	movs	r0, #8
 8001f88:	f001 f852 	bl	8003030 <SDIO_ClearFlag>
    errorstatus = SD_DATA_TIMEOUT;
    return(errorstatus);
 8001f8c:	2404      	movs	r4, #4
 8001f8e:	e070      	b.n	8002072 <SDEnWideBus+0x1ca>
  }
  else if (SDIO_GetFlagStatus(SDIO_FLAG_DCRCFAIL) != RESET)
 8001f90:	2002      	movs	r0, #2
 8001f92:	f001 f843 	bl	800301c <SDIO_GetFlagStatus>
 8001f96:	b120      	cbz	r0, 8001fa2 <SDEnWideBus+0xfa>
  {
    SDIO_ClearFlag(SDIO_FLAG_DCRCFAIL);
 8001f98:	2002      	movs	r0, #2
 8001f9a:	f001 f849 	bl	8003030 <SDIO_ClearFlag>
    errorstatus = SD_DATA_CRC_FAIL;
    return(errorstatus);
 8001f9e:	2402      	movs	r4, #2
 8001fa0:	e067      	b.n	8002072 <SDEnWideBus+0x1ca>
  }
  else if (SDIO_GetFlagStatus(SDIO_FLAG_RXOVERR) != RESET)
 8001fa2:	2020      	movs	r0, #32
 8001fa4:	f001 f83a 	bl	800301c <SDIO_GetFlagStatus>
 8001fa8:	b120      	cbz	r0, 8001fb4 <SDEnWideBus+0x10c>
  {
    SDIO_ClearFlag(SDIO_FLAG_RXOVERR);
 8001faa:	2020      	movs	r0, #32
 8001fac:	f001 f840 	bl	8003030 <SDIO_ClearFlag>
    errorstatus = SD_RX_OVERRUN;
    return(errorstatus);
 8001fb0:	2406      	movs	r4, #6
 8001fb2:	e05e      	b.n	8002072 <SDEnWideBus+0x1ca>
  }
  else if (SDIO_GetFlagStatus(SDIO_FLAG_STBITERR) != RESET)
 8001fb4:	f44f 7000 	mov.w	r0, #512	; 0x200
 8001fb8:	f001 f830 	bl	800301c <SDIO_GetFlagStatus>
 8001fbc:	b128      	cbz	r0, 8001fca <SDEnWideBus+0x122>
  {
    SDIO_ClearFlag(SDIO_FLAG_STBITERR);
 8001fbe:	f44f 7000 	mov.w	r0, #512	; 0x200
 8001fc2:	f001 f835 	bl	8003030 <SDIO_ClearFlag>
    errorstatus = SD_START_BIT_ERR;
    return(errorstatus);
 8001fc6:	2407      	movs	r4, #7
 8001fc8:	e053      	b.n	8002072 <SDEnWideBus+0x1ca>
  }

  /*!< Clear all the static flags */
  SDIO_ClearFlag(SDIO_STATIC_FLAGS);
 8001fca:	f240 50ff 	movw	r0, #1535	; 0x5ff
 8001fce:	f001 f82f 	bl	8003030 <SDIO_ClearFlag>
 8001fd2:	9b02      	ldr	r3, [sp, #8]
 8001fd4:	ba1b      	rev	r3, r3
 8001fd6:	e004      	b.n	8001fe2 <SDEnWideBus+0x13a>
  */
static SD_Error SDEnWideBus(FunctionalState NewState)
{
  SD_Error errorstatus = SD_OK;

  uint32_t scr[2] = {0, 0};
 8001fd8:	4633      	mov	r3, r6
 8001fda:	e000      	b.n	8001fde <SDEnWideBus+0x136>
 8001fdc:	465b      	mov	r3, fp
  }

  /*!< Get SCR Register */
  errorstatus = FindSCR(RCA, scr);

  if (errorstatus != SD_OK)
 8001fde:	2c00      	cmp	r4, #0
 8001fe0:	d147      	bne.n	8002072 <SDEnWideBus+0x1ca>
  {
    return(errorstatus);
  }

  /*!< If wide bus operation to be enabled */
  if (NewState == ENABLE)
 8001fe2:	f1b9 0f01 	cmp.w	r9, #1
 8001fe6:	d11a      	bne.n	800201e <SDEnWideBus+0x176>
  {
    /*!< If requested card supports wide bus operation */
    if ((scr[1] & SD_WIDE_BUS_SUPPORT) != SD_ALLZERO)
 8001fe8:	035b      	lsls	r3, r3, #13
 8001fea:	d541      	bpl.n	8002070 <SDEnWideBus+0x1c8>
    {
      /*!< Send CMD55 APP_CMD with argument as card's RCA.*/
      SDIO_CmdInitStructure.SDIO_Argument = (uint32_t) RCA << 16;
 8001fec:	4b24      	ldr	r3, [pc, #144]	; (8002080 <SDEnWideBus+0x1d8>)
 8001fee:	4d23      	ldr	r5, [pc, #140]	; (800207c <SDEnWideBus+0x1d4>)
 8001ff0:	681b      	ldr	r3, [r3, #0]
      SDIO_CmdInitStructure.SDIO_CmdIndex = SD_CMD_APP_CMD;
      SDIO_CmdInitStructure.SDIO_Response = SDIO_Response_Short;
      SDIO_CmdInitStructure.SDIO_Wait = SDIO_Wait_No;
 8001ff2:	60ec      	str	r4, [r5, #12]
  {
    /*!< If requested card supports wide bus operation */
    if ((scr[1] & SD_WIDE_BUS_SUPPORT) != SD_ALLZERO)
    {
      /*!< Send CMD55 APP_CMD with argument as card's RCA.*/
      SDIO_CmdInitStructure.SDIO_Argument = (uint32_t) RCA << 16;
 8001ff4:	041b      	lsls	r3, r3, #16
      SDIO_CmdInitStructure.SDIO_CmdIndex = SD_CMD_APP_CMD;
 8001ff6:	2637      	movs	r6, #55	; 0x37
      SDIO_CmdInitStructure.SDIO_Response = SDIO_Response_Short;
      SDIO_CmdInitStructure.SDIO_Wait = SDIO_Wait_No;
      SDIO_CmdInitStructure.SDIO_CPSM = SDIO_CPSM_Enable;
      SDIO_SendCommand(&SDIO_CmdInitStructure);
 8001ff8:	4628      	mov	r0, r5
    if ((scr[1] & SD_WIDE_BUS_SUPPORT) != SD_ALLZERO)
    {
      /*!< Send CMD55 APP_CMD with argument as card's RCA.*/
      SDIO_CmdInitStructure.SDIO_Argument = (uint32_t) RCA << 16;
      SDIO_CmdInitStructure.SDIO_CmdIndex = SD_CMD_APP_CMD;
      SDIO_CmdInitStructure.SDIO_Response = SDIO_Response_Short;
 8001ffa:	f04f 0840 	mov.w	r8, #64	; 0x40
      SDIO_CmdInitStructure.SDIO_Wait = SDIO_Wait_No;
      SDIO_CmdInitStructure.SDIO_CPSM = SDIO_CPSM_Enable;
 8001ffe:	f44f 6780 	mov.w	r7, #1024	; 0x400
    if ((scr[1] & SD_WIDE_BUS_SUPPORT) != SD_ALLZERO)
    {
      /*!< Send CMD55 APP_CMD with argument as card's RCA.*/
      SDIO_CmdInitStructure.SDIO_Argument = (uint32_t) RCA << 16;
      SDIO_CmdInitStructure.SDIO_CmdIndex = SD_CMD_APP_CMD;
      SDIO_CmdInitStructure.SDIO_Response = SDIO_Response_Short;
 8002002:	e885 0148 	stmia.w	r5, {r3, r6, r8}
      SDIO_CmdInitStructure.SDIO_Wait = SDIO_Wait_No;
      SDIO_CmdInitStructure.SDIO_CPSM = SDIO_CPSM_Enable;
 8002006:	612f      	str	r7, [r5, #16]
      SDIO_SendCommand(&SDIO_CmdInitStructure);
 8002008:	f000 ffb2 	bl	8002f70 <SDIO_SendCommand>

      errorstatus = CmdResp1Error(SD_CMD_APP_CMD);
 800200c:	4630      	mov	r0, r6
 800200e:	f7ff fed1 	bl	8001db4 <CmdResp1Error>

      if (errorstatus != SD_OK)
 8002012:	4604      	mov	r4, r0
 8002014:	2800      	cmp	r0, #0
 8002016:	d12c      	bne.n	8002072 <SDEnWideBus+0x1ca>
      {
        return(errorstatus);
      }

      /*!< Send ACMD6 APP_CMD with argument as 2 for wide bus mode */
      SDIO_CmdInitStructure.SDIO_Argument = 0x2;
 8002018:	2302      	movs	r3, #2
 800201a:	602b      	str	r3, [r5, #0]
 800201c:	e017      	b.n	800204e <SDEnWideBus+0x1a6>
    }
  }   /*!< If wide bus operation to be disabled */
  else
  {
    /*!< If requested card supports 1 bit mode operation */
    if ((scr[1] & SD_SINGLE_BUS_SUPPORT) != SD_ALLZERO)
 800201e:	03d8      	lsls	r0, r3, #15
 8002020:	d526      	bpl.n	8002070 <SDEnWideBus+0x1c8>
    {
      /*!< Send CMD55 APP_CMD with argument as card's RCA.*/
      SDIO_CmdInitStructure.SDIO_Argument = (uint32_t) RCA << 16;
 8002022:	4b17      	ldr	r3, [pc, #92]	; (8002080 <SDEnWideBus+0x1d8>)
 8002024:	4d15      	ldr	r5, [pc, #84]	; (800207c <SDEnWideBus+0x1d4>)
 8002026:	681b      	ldr	r3, [r3, #0]
      SDIO_CmdInitStructure.SDIO_CmdIndex = SD_CMD_APP_CMD;
      SDIO_CmdInitStructure.SDIO_Response = SDIO_Response_Short;
      SDIO_CmdInitStructure.SDIO_Wait = SDIO_Wait_No;
 8002028:	60ec      	str	r4, [r5, #12]
  {
    /*!< If requested card supports 1 bit mode operation */
    if ((scr[1] & SD_SINGLE_BUS_SUPPORT) != SD_ALLZERO)
    {
      /*!< Send CMD55 APP_CMD with argument as card's RCA.*/
      SDIO_CmdInitStructure.SDIO_Argument = (uint32_t) RCA << 16;
 800202a:	041b      	lsls	r3, r3, #16
      SDIO_CmdInitStructure.SDIO_CmdIndex = SD_CMD_APP_CMD;
 800202c:	2637      	movs	r6, #55	; 0x37
      SDIO_CmdInitStructure.SDIO_Response = SDIO_Response_Short;
      SDIO_CmdInitStructure.SDIO_Wait = SDIO_Wait_No;
      SDIO_CmdInitStructure.SDIO_CPSM = SDIO_CPSM_Enable;
      SDIO_SendCommand(&SDIO_CmdInitStructure);
 800202e:	4628      	mov	r0, r5
    if ((scr[1] & SD_SINGLE_BUS_SUPPORT) != SD_ALLZERO)
    {
      /*!< Send CMD55 APP_CMD with argument as card's RCA.*/
      SDIO_CmdInitStructure.SDIO_Argument = (uint32_t) RCA << 16;
      SDIO_CmdInitStructure.SDIO_CmdIndex = SD_CMD_APP_CMD;
      SDIO_CmdInitStructure.SDIO_Response = SDIO_Response_Short;
 8002030:	f04f 0840 	mov.w	r8, #64	; 0x40
      SDIO_CmdInitStructure.SDIO_Wait = SDIO_Wait_No;
      SDIO_CmdInitStructure.SDIO_CPSM = SDIO_CPSM_Enable;
 8002034:	f44f 6780 	mov.w	r7, #1024	; 0x400
    if ((scr[1] & SD_SINGLE_BUS_SUPPORT) != SD_ALLZERO)
    {
      /*!< Send CMD55 APP_CMD with argument as card's RCA.*/
      SDIO_CmdInitStructure.SDIO_Argument = (uint32_t) RCA << 16;
      SDIO_CmdInitStructure.SDIO_CmdIndex = SD_CMD_APP_CMD;
      SDIO_CmdInitStructure.SDIO_Response = SDIO_Response_Short;
 8002038:	e885 0148 	stmia.w	r5, {r3, r6, r8}
      SDIO_CmdInitStructure.SDIO_Wait = SDIO_Wait_No;
      SDIO_CmdInitStructure.SDIO_CPSM = SDIO_CPSM_Enable;
 800203c:	612f      	str	r7, [r5, #16]
      SDIO_SendCommand(&SDIO_CmdInitStructure);
 800203e:	f000 ff97 	bl	8002f70 <SDIO_SendCommand>


      errorstatus = CmdResp1Error(SD_CMD_APP_CMD);
 8002042:	4630      	mov	r0, r6
 8002044:	f7ff feb6 	bl	8001db4 <CmdResp1Error>

      if (errorstatus != SD_OK)
 8002048:	4604      	mov	r4, r0
 800204a:	b990      	cbnz	r0, 8002072 <SDEnWideBus+0x1ca>
      {
        return(errorstatus);
      }

      /*!< Send ACMD6 APP_CMD with argument as 2 for wide bus mode */
      SDIO_CmdInitStructure.SDIO_Argument = 0x00;
 800204c:	6028      	str	r0, [r5, #0]
      SDIO_CmdInitStructure.SDIO_CmdIndex = SD_CMD_APP_SD_SET_BUSWIDTH;
 800204e:	2606      	movs	r6, #6
      SDIO_CmdInitStructure.SDIO_Response = SDIO_Response_Short;
      SDIO_CmdInitStructure.SDIO_Wait = SDIO_Wait_No;
      SDIO_CmdInitStructure.SDIO_CPSM = SDIO_CPSM_Enable;
      SDIO_SendCommand(&SDIO_CmdInitStructure);
 8002050:	4628      	mov	r0, r5
        return(errorstatus);
      }

      /*!< Send ACMD6 APP_CMD with argument as 2 for wide bus mode */
      SDIO_CmdInitStructure.SDIO_Argument = 0x00;
      SDIO_CmdInitStructure.SDIO_CmdIndex = SD_CMD_APP_SD_SET_BUSWIDTH;
 8002052:	606e      	str	r6, [r5, #4]
      SDIO_CmdInitStructure.SDIO_Response = SDIO_Response_Short;
 8002054:	f8c5 8008 	str.w	r8, [r5, #8]
      SDIO_CmdInitStructure.SDIO_Wait = SDIO_Wait_No;
 8002058:	60ec      	str	r4, [r5, #12]
      SDIO_CmdInitStructure.SDIO_CPSM = SDIO_CPSM_Enable;
 800205a:	612f      	str	r7, [r5, #16]
      SDIO_SendCommand(&SDIO_CmdInitStructure);
 800205c:	f000 ff88 	bl	8002f70 <SDIO_SendCommand>

      errorstatus = CmdResp1Error(SD_CMD_APP_SD_SET_BUSWIDTH);
 8002060:	4630      	mov	r0, r6
    {
      errorstatus = SD_REQUEST_NOT_APPLICABLE;
      return(errorstatus);
    }
  }
}
 8002062:	b005      	add	sp, #20
 8002064:	e8bd 4ff0 	ldmia.w	sp!, {r4, r5, r6, r7, r8, r9, sl, fp, lr}
      SDIO_CmdInitStructure.SDIO_Response = SDIO_Response_Short;
      SDIO_CmdInitStructure.SDIO_Wait = SDIO_Wait_No;
      SDIO_CmdInitStructure.SDIO_CPSM = SDIO_CPSM_Enable;
      SDIO_SendCommand(&SDIO_CmdInitStructure);

      errorstatus = CmdResp1Error(SD_CMD_APP_SD_SET_BUSWIDTH);
 8002068:	f7ff bea4 	b.w	8001db4 <CmdResp1Error>
  uint32_t scr[2] = {0, 0};

  if (SDIO_GetResponse(SDIO_RESP1) & SD_CARD_LOCKED)
  {
    errorstatus = SD_LOCK_UNLOCK_FAILED;
    return(errorstatus);
 800206c:	240e      	movs	r4, #14
 800206e:	e000      	b.n	8002072 <SDEnWideBus+0x1ca>
      return(errorstatus);
    }
    else
    {
      errorstatus = SD_REQUEST_NOT_APPLICABLE;
      return(errorstatus);
 8002070:	2425      	movs	r4, #37	; 0x25
    {
      errorstatus = SD_REQUEST_NOT_APPLICABLE;
      return(errorstatus);
    }
  }
}
 8002072:	4620      	mov	r0, r4
 8002074:	b005      	add	sp, #20
 8002076:	e8bd 8ff0 	ldmia.w	sp!, {r4, r5, r6, r7, r8, r9, sl, fp, pc}
 800207a:	bf00      	nop
 800207c:	200004e8 	.word	0x200004e8
 8002080:	20000044 	.word	0x20000044
 8002084:	20000570 	.word	0x20000570
 8002088:	40012c00 	.word	0x40012c00

0800208c <SD_Detect>:
 * @brief  Detect if SD card is correctly plugged in the memory slot.
 * @param  None
 * @retval Return if SD is detected or not
 */
uint8_t SD_Detect(void)
{
 800208c:	b507      	push	{r0, r1, r2, lr}
  __IO uint8_t status = SD_PRESENT;
 800208e:	2301      	movs	r3, #1

  /*!< Check GPIO to detect SD */
  if (GPIO_ReadInputDataBit(SD_DETECT_GPIO_PORT, SD_DETECT_PIN) != Bit_RESET)
 8002090:	4806      	ldr	r0, [pc, #24]	; (80020ac <SD_Detect+0x20>)
 * @param  None
 * @retval Return if SD is detected or not
 */
uint8_t SD_Detect(void)
{
  __IO uint8_t status = SD_PRESENT;
 8002092:	f88d 3007 	strb.w	r3, [sp, #7]

  /*!< Check GPIO to detect SD */
  if (GPIO_ReadInputDataBit(SD_DETECT_GPIO_PORT, SD_DETECT_PIN) != Bit_RESET)
 8002096:	2104      	movs	r1, #4
 8002098:	f000 feee 	bl	8002e78 <GPIO_ReadInputDataBit>
 800209c:	b110      	cbz	r0, 80020a4 <SD_Detect+0x18>
  {
    status = SD_NOT_PRESENT;
 800209e:	2300      	movs	r3, #0
 80020a0:	f88d 3007 	strb.w	r3, [sp, #7]
  }
  return status;
 80020a4:	f89d 0007 	ldrb.w	r0, [sp, #7]
}
 80020a8:	bd0e      	pop	{r1, r2, r3, pc}
 80020aa:	bf00      	nop
 80020ac:	40020800 	.word	0x40020800

080020b0 <SD_PowerON>:
  *   clock controls.
  * @param  None
  * @retval SD_Error: SD Card Error code.
  */
SD_Error SD_PowerON(void)
{
 80020b0:	e92d 4ff7 	stmdb	sp!, {r0, r1, r2, r4, r5, r6, r7, r8, r9, sl, fp, lr}
  /*!< Power ON Sequence -----------------------------------------------------*/
  /*!< Configure the SDIO peripheral */
  /*!< SDIO_CK = SDIOCLK / (SDIO_INIT_CLK_DIV + 2) */
  /*!< on STM32F4xx devices, SDIOCLK is fixed to 48MHz */
  /*!< SDIO_CK for initialization should not exceed 400 KHz */
  SDIO_InitStructure.SDIO_ClockDiv = SDIO_INIT_CLK_DIV;
 80020b4:	4878      	ldr	r0, [pc, #480]	; (8002298 <SD_PowerON+0x1e8>)
  * @param  None
  * @retval SD_Error: SD Card Error code.
  */
SD_Error SD_PowerON(void)
{
  __IO SD_Error errorstatus = SD_OK;
 80020b6:	2400      	movs	r4, #0
  /*!< Power ON Sequence -----------------------------------------------------*/
  /*!< Configure the SDIO peripheral */
  /*!< SDIO_CK = SDIOCLK / (SDIO_INIT_CLK_DIV + 2) */
  /*!< on STM32F4xx devices, SDIOCLK is fixed to 48MHz */
  /*!< SDIO_CK for initialization should not exceed 400 KHz */
  SDIO_InitStructure.SDIO_ClockDiv = SDIO_INIT_CLK_DIV;
 80020b8:	2376      	movs	r3, #118	; 0x76
 80020ba:	7503      	strb	r3, [r0, #20]
  SDIO_InitStructure.SDIO_ClockEdge = SDIO_ClockEdge_Rising;
 80020bc:	6004      	str	r4, [r0, #0]
  SDIO_InitStructure.SDIO_ClockBypass = SDIO_ClockBypass_Disable;
 80020be:	6044      	str	r4, [r0, #4]
  SDIO_InitStructure.SDIO_ClockPowerSave = SDIO_ClockPowerSave_Disable;
 80020c0:	6084      	str	r4, [r0, #8]
  SDIO_InitStructure.SDIO_BusWide = SDIO_BusWide_1b;
 80020c2:	60c4      	str	r4, [r0, #12]
  SDIO_InitStructure.SDIO_HardwareFlowControl = SDIO_HardwareFlowControl_Disable;
 80020c4:	6104      	str	r4, [r0, #16]
  * @param  None
  * @retval SD_Error: SD Card Error code.
  */
SD_Error SD_PowerON(void)
{
  __IO SD_Error errorstatus = SD_OK;
 80020c6:	f88d 4007 	strb.w	r4, [sp, #7]
  SDIO_InitStructure.SDIO_ClockEdge = SDIO_ClockEdge_Rising;
  SDIO_InitStructure.SDIO_ClockBypass = SDIO_ClockBypass_Disable;
  SDIO_InitStructure.SDIO_ClockPowerSave = SDIO_ClockPowerSave_Disable;
  SDIO_InitStructure.SDIO_BusWide = SDIO_BusWide_1b;
  SDIO_InitStructure.SDIO_HardwareFlowControl = SDIO_HardwareFlowControl_Disable;
  SDIO_Init(&SDIO_InitStructure);
 80020ca:	f000 ff25 	bl	8002f18 <SDIO_Init>

  /*!< Set Power State to ON */
  SDIO_SetPowerState(SDIO_PowerState_ON);
 80020ce:	2003      	movs	r0, #3
 80020d0:	f000 ff40 	bl	8002f54 <SDIO_SetPowerState>

  /*!< Enable SDIO Clock */
  SDIO_ClockCmd(ENABLE);
 80020d4:	2001      	movs	r0, #1
 80020d6:	f000 ff37 	bl	8002f48 <SDIO_ClockCmd>

  /*!< CMD0: GO_IDLE_STATE ---------------------------------------------------*/
  /*!< No CMD response required */
  SDIO_CmdInitStructure.SDIO_Argument = 0x0;
 80020da:	4870      	ldr	r0, [pc, #448]	; (800229c <SD_PowerON+0x1ec>)
  SDIO_CmdInitStructure.SDIO_CmdIndex = SD_CMD_GO_IDLE_STATE;
  SDIO_CmdInitStructure.SDIO_Response = SDIO_Response_No;
  SDIO_CmdInitStructure.SDIO_Wait = SDIO_Wait_No;
  SDIO_CmdInitStructure.SDIO_CPSM = SDIO_CPSM_Enable;
 80020dc:	f44f 6380 	mov.w	r3, #1024	; 0x400
  /*!< Enable SDIO Clock */
  SDIO_ClockCmd(ENABLE);

  /*!< CMD0: GO_IDLE_STATE ---------------------------------------------------*/
  /*!< No CMD response required */
  SDIO_CmdInitStructure.SDIO_Argument = 0x0;
 80020e0:	6004      	str	r4, [r0, #0]
  SDIO_CmdInitStructure.SDIO_CmdIndex = SD_CMD_GO_IDLE_STATE;
 80020e2:	6044      	str	r4, [r0, #4]
  SDIO_CmdInitStructure.SDIO_Response = SDIO_Response_No;
 80020e4:	6084      	str	r4, [r0, #8]
  SDIO_CmdInitStructure.SDIO_Wait = SDIO_Wait_No;
 80020e6:	60c4      	str	r4, [r0, #12]
  SDIO_CmdInitStructure.SDIO_CPSM = SDIO_CPSM_Enable;
 80020e8:	6103      	str	r3, [r0, #16]
  SDIO_SendCommand(&SDIO_CmdInitStructure);
 80020ea:	f44f 3480 	mov.w	r4, #65536	; 0x10000
 80020ee:	f000 ff3f 	bl	8002f70 <SDIO_SendCommand>
 80020f2:	e001      	b.n	80020f8 <SD_PowerON+0x48>
  SD_Error errorstatus = SD_OK;
  uint32_t timeout;

  timeout = SDIO_CMD0TIMEOUT; /*!< 10000 */

  while ((timeout > 0) && (SDIO_GetFlagStatus(SDIO_FLAG_CMDSENT) == RESET))
 80020f4:	3c01      	subs	r4, #1
 80020f6:	d005      	beq.n	8002104 <SD_PowerON+0x54>
 80020f8:	2080      	movs	r0, #128	; 0x80
 80020fa:	f000 ff8f 	bl	800301c <SDIO_GetFlagStatus>
 80020fe:	2800      	cmp	r0, #0
 8002100:	d0f8      	beq.n	80020f4 <SD_PowerON+0x44>
 8002102:	e0c1      	b.n	8002288 <SD_PowerON+0x1d8>
  }

  if (timeout == 0)
  {
    errorstatus = SD_CMD_RSP_TIMEOUT;
    return(errorstatus);
 8002104:	2303      	movs	r3, #3
  SDIO_CmdInitStructure.SDIO_Response = SDIO_Response_No;
  SDIO_CmdInitStructure.SDIO_Wait = SDIO_Wait_No;
  SDIO_CmdInitStructure.SDIO_CPSM = SDIO_CPSM_Enable;
  SDIO_SendCommand(&SDIO_CmdInitStructure);

  errorstatus = CmdError();
 8002106:	f88d 3007 	strb.w	r3, [sp, #7]

  if (errorstatus != SD_OK)
 800210a:	f89d 3007 	ldrb.w	r3, [sp, #7]
 800210e:	b103      	cbz	r3, 8002112 <SD_PowerON+0x62>
 8002110:	e0b7      	b.n	8002282 <SD_PowerON+0x1d2>
  /*!< Send CMD8 to verify SD card interface operating condition */
  /*!< Argument: - [31:12]: Reserved (shall be set to '0')
               - [11:8]: Supply Voltage (VHS) 0x1 (Range: 2.7-3.6 V)
               - [7:0]: Check Pattern (recommended 0xAA) */
  /*!< CMD Response: R7 */
  SDIO_CmdInitStructure.SDIO_Argument = SD_CHECK_PATTERN;
 8002112:	4862      	ldr	r0, [pc, #392]	; (800229c <SD_PowerON+0x1ec>)
  SDIO_CmdInitStructure.SDIO_CmdIndex = SDIO_SEND_IF_COND;
  SDIO_CmdInitStructure.SDIO_Response = SDIO_Response_Short;
 8002114:	f44f 71d5 	mov.w	r1, #426	; 0x1aa
 8002118:	2208      	movs	r2, #8
  SDIO_CmdInitStructure.SDIO_Wait = SDIO_Wait_No;
 800211a:	60c3      	str	r3, [r0, #12]
               - [11:8]: Supply Voltage (VHS) 0x1 (Range: 2.7-3.6 V)
               - [7:0]: Check Pattern (recommended 0xAA) */
  /*!< CMD Response: R7 */
  SDIO_CmdInitStructure.SDIO_Argument = SD_CHECK_PATTERN;
  SDIO_CmdInitStructure.SDIO_CmdIndex = SDIO_SEND_IF_COND;
  SDIO_CmdInitStructure.SDIO_Response = SDIO_Response_Short;
 800211c:	2440      	movs	r4, #64	; 0x40
  SDIO_CmdInitStructure.SDIO_Wait = SDIO_Wait_No;
  SDIO_CmdInitStructure.SDIO_CPSM = SDIO_CPSM_Enable;
 800211e:	f44f 6380 	mov.w	r3, #1024	; 0x400
               - [11:8]: Supply Voltage (VHS) 0x1 (Range: 2.7-3.6 V)
               - [7:0]: Check Pattern (recommended 0xAA) */
  /*!< CMD Response: R7 */
  SDIO_CmdInitStructure.SDIO_Argument = SD_CHECK_PATTERN;
  SDIO_CmdInitStructure.SDIO_CmdIndex = SDIO_SEND_IF_COND;
  SDIO_CmdInitStructure.SDIO_Response = SDIO_Response_Short;
 8002122:	e880 0016 	stmia.w	r0, {r1, r2, r4}
  SDIO_CmdInitStructure.SDIO_Wait = SDIO_Wait_No;
  SDIO_CmdInitStructure.SDIO_CPSM = SDIO_CPSM_Enable;
 8002126:	6103      	str	r3, [r0, #16]
  SDIO_SendCommand(&SDIO_CmdInitStructure);
 8002128:	f000 ff22 	bl	8002f70 <SDIO_SendCommand>
{
  SD_Error errorstatus = SD_OK;
  uint32_t status;
  uint32_t timeout = SDIO_CMD0TIMEOUT;

  status = SDIO->STA;
 800212c:	495c      	ldr	r1, [pc, #368]	; (80022a0 <SD_PowerON+0x1f0>)
  */
static SD_Error CmdResp7Error(void)
{
  SD_Error errorstatus = SD_OK;
  uint32_t status;
  uint32_t timeout = SDIO_CMD0TIMEOUT;
 800212e:	f44f 3280 	mov.w	r2, #65536	; 0x10000

  status = SDIO->STA;
 8002132:	6b4b      	ldr	r3, [r1, #52]	; 0x34
 8002134:	e001      	b.n	800213a <SD_PowerON+0x8a>

  while (!(status & (SDIO_FLAG_CCRCFAIL | SDIO_FLAG_CMDREND | SDIO_FLAG_CTIMEOUT)) && (timeout > 0))
  {
    timeout--;
    status = SDIO->STA;
 8002136:	6b4b      	ldr	r3, [r1, #52]	; 0x34

  status = SDIO->STA;

  while (!(status & (SDIO_FLAG_CCRCFAIL | SDIO_FLAG_CMDREND | SDIO_FLAG_CTIMEOUT)) && (timeout > 0))
  {
    timeout--;
 8002138:	3a01      	subs	r2, #1
  uint32_t status;
  uint32_t timeout = SDIO_CMD0TIMEOUT;

  status = SDIO->STA;

  while (!(status & (SDIO_FLAG_CCRCFAIL | SDIO_FLAG_CMDREND | SDIO_FLAG_CTIMEOUT)) && (timeout > 0))
 800213a:	f013 0f45 	tst.w	r3, #69	; 0x45
 800213e:	d102      	bne.n	8002146 <SD_PowerON+0x96>
 8002140:	2a00      	cmp	r2, #0
 8002142:	d1f8      	bne.n	8002136 <SD_PowerON+0x86>
 8002144:	e003      	b.n	800214e <SD_PowerON+0x9e>
  {
    timeout--;
    status = SDIO->STA;
  }

  if ((timeout == 0) || (status & SDIO_FLAG_CTIMEOUT))
 8002146:	b112      	cbz	r2, 800214e <SD_PowerON+0x9e>
 8002148:	f013 0404 	ands.w	r4, r3, #4
 800214c:	d004      	beq.n	8002158 <SD_PowerON+0xa8>
  {
    /*!< Card is not V2.0 complient or card does not support the set voltage range */
    errorstatus = SD_CMD_RSP_TIMEOUT;
    SDIO_ClearFlag(SDIO_FLAG_CTIMEOUT);
 800214e:	2004      	movs	r0, #4
 8002150:	f000 ff6e 	bl	8003030 <SDIO_ClearFlag>
    return(errorstatus);
 8002154:	2303      	movs	r3, #3
 8002156:	e006      	b.n	8002166 <SD_PowerON+0xb6>
  }

  if (status & SDIO_FLAG_CMDREND)
 8002158:	f013 0340 	ands.w	r3, r3, #64	; 0x40
 800215c:	d003      	beq.n	8002166 <SD_PowerON+0xb6>
  {
    /*!< Card is SD V2.0 compliant */
    errorstatus = SD_OK;
    SDIO_ClearFlag(SDIO_FLAG_CMDREND);
 800215e:	2040      	movs	r0, #64	; 0x40
 8002160:	f000 ff66 	bl	8003030 <SDIO_ClearFlag>
    return(errorstatus);
 8002164:	4623      	mov	r3, r4
  SDIO_CmdInitStructure.SDIO_Response = SDIO_Response_Short;
  SDIO_CmdInitStructure.SDIO_Wait = SDIO_Wait_No;
  SDIO_CmdInitStructure.SDIO_CPSM = SDIO_CPSM_Enable;
  SDIO_SendCommand(&SDIO_CmdInitStructure);

  errorstatus = CmdResp7Error();
 8002166:	f88d 3007 	strb.w	r3, [sp, #7]

  if (errorstatus == SD_OK)
 800216a:	f89d 3007 	ldrb.w	r3, [sp, #7]
 800216e:	b92b      	cbnz	r3, 800217c <SD_PowerON+0xcc>
  {
    CardType = SDIO_STD_CAPACITY_SD_CARD_V2_0; /*!< SD Card 2.0 */
 8002170:	4b4c      	ldr	r3, [pc, #304]	; (80022a4 <SD_PowerON+0x1f4>)
 8002172:	2201      	movs	r2, #1
 8002174:	601a      	str	r2, [r3, #0]
    SDType = SD_HIGH_CAPACITY;
 8002176:	f04f 4480 	mov.w	r4, #1073741824	; 0x40000000
 800217a:	e011      	b.n	80021a0 <SD_PowerON+0xf0>
  }
  else
  {
    /*!< CMD55 */
    SDIO_CmdInitStructure.SDIO_Argument = 0x00;
 800217c:	4847      	ldr	r0, [pc, #284]	; (800229c <SD_PowerON+0x1ec>)
    SDIO_CmdInitStructure.SDIO_CmdIndex = SD_CMD_APP_CMD;
    SDIO_CmdInitStructure.SDIO_Response = SDIO_Response_Short;
 800217e:	2240      	movs	r2, #64	; 0x40
 8002180:	6082      	str	r2, [r0, #8]
  }
  else
  {
    /*!< CMD55 */
    SDIO_CmdInitStructure.SDIO_Argument = 0x00;
    SDIO_CmdInitStructure.SDIO_CmdIndex = SD_CMD_APP_CMD;
 8002182:	2400      	movs	r4, #0
    SDIO_CmdInitStructure.SDIO_Response = SDIO_Response_Short;
    SDIO_CmdInitStructure.SDIO_Wait = SDIO_Wait_No;
    SDIO_CmdInitStructure.SDIO_CPSM = SDIO_CPSM_Enable;
 8002184:	f44f 6280 	mov.w	r2, #1024	; 0x400
  }
  else
  {
    /*!< CMD55 */
    SDIO_CmdInitStructure.SDIO_Argument = 0x00;
    SDIO_CmdInitStructure.SDIO_CmdIndex = SD_CMD_APP_CMD;
 8002188:	2537      	movs	r5, #55	; 0x37
    SDIO_CmdInitStructure.SDIO_Response = SDIO_Response_Short;
    SDIO_CmdInitStructure.SDIO_Wait = SDIO_Wait_No;
    SDIO_CmdInitStructure.SDIO_CPSM = SDIO_CPSM_Enable;
 800218a:	6102      	str	r2, [r0, #16]
  }
  else
  {
    /*!< CMD55 */
    SDIO_CmdInitStructure.SDIO_Argument = 0x00;
    SDIO_CmdInitStructure.SDIO_CmdIndex = SD_CMD_APP_CMD;
 800218c:	e880 0030 	stmia.w	r0, {r4, r5}
    SDIO_CmdInitStructure.SDIO_Response = SDIO_Response_Short;
    SDIO_CmdInitStructure.SDIO_Wait = SDIO_Wait_No;
 8002190:	60c4      	str	r4, [r0, #12]
    SDIO_CmdInitStructure.SDIO_CPSM = SDIO_CPSM_Enable;
    SDIO_SendCommand(&SDIO_CmdInitStructure);
 8002192:	f000 feed 	bl	8002f70 <SDIO_SendCommand>
    errorstatus = CmdResp1Error(SD_CMD_APP_CMD);
 8002196:	4628      	mov	r0, r5
 8002198:	f7ff fe0c 	bl	8001db4 <CmdResp1Error>
 800219c:	f88d 0007 	strb.w	r0, [sp, #7]
  }
  /*!< CMD55 */
  SDIO_CmdInitStructure.SDIO_Argument = 0x00;
 80021a0:	483e      	ldr	r0, [pc, #248]	; (800229c <SD_PowerON+0x1ec>)
  SDIO_CmdInitStructure.SDIO_CmdIndex = SD_CMD_APP_CMD;
 80021a2:	2200      	movs	r2, #0
 80021a4:	2537      	movs	r5, #55	; 0x37
 80021a6:	e880 0024 	stmia.w	r0, {r2, r5}
  SDIO_CmdInitStructure.SDIO_Response = SDIO_Response_Short;
 80021aa:	2140      	movs	r1, #64	; 0x40
  SDIO_CmdInitStructure.SDIO_Wait = SDIO_Wait_No;
 80021ac:	60c2      	str	r2, [r0, #12]
  SDIO_CmdInitStructure.SDIO_CPSM = SDIO_CPSM_Enable;
 80021ae:	f44f 6280 	mov.w	r2, #1024	; 0x400
    errorstatus = CmdResp1Error(SD_CMD_APP_CMD);
  }
  /*!< CMD55 */
  SDIO_CmdInitStructure.SDIO_Argument = 0x00;
  SDIO_CmdInitStructure.SDIO_CmdIndex = SD_CMD_APP_CMD;
  SDIO_CmdInitStructure.SDIO_Response = SDIO_Response_Short;
 80021b2:	6081      	str	r1, [r0, #8]
  SDIO_CmdInitStructure.SDIO_Wait = SDIO_Wait_No;
  SDIO_CmdInitStructure.SDIO_CPSM = SDIO_CPSM_Enable;
 80021b4:	6102      	str	r2, [r0, #16]
  SDIO_SendCommand(&SDIO_CmdInitStructure);
 80021b6:	f000 fedb 	bl	8002f70 <SDIO_SendCommand>
  errorstatus = CmdResp1Error(SD_CMD_APP_CMD);
 80021ba:	4628      	mov	r0, r5
 80021bc:	f7ff fdfa 	bl	8001db4 <CmdResp1Error>
 80021c0:	f88d 0007 	strb.w	r0, [sp, #7]

  /*!< If errorstatus is Command TimeOut, it is a MMC card */
  /*!< If errorstatus is SD_OK it is a SD card: SD card 2.0 (voltage range mismatch)
     or SD card 1.x */
  if (errorstatus == SD_OK)
 80021c4:	f89d 5007 	ldrb.w	r5, [sp, #7]
 80021c8:	2d00      	cmp	r5, #0
 80021ca:	d041      	beq.n	8002250 <SD_PowerON+0x1a0>
 80021cc:	e059      	b.n	8002282 <SD_PowerON+0x1d2>
    /*!< Send ACMD41 SD_APP_OP_COND with Argument 0x80100000 */
    while ((!validvoltage) && (count < SD_MAX_VOLT_TRIAL))
    {

      /*!< SEND CMD55 APP_CMD with RCA as 0 */
      SDIO_CmdInitStructure.SDIO_Argument = 0x00;
 80021ce:	4c33      	ldr	r4, [pc, #204]	; (800229c <SD_PowerON+0x1ec>)
      SDIO_CmdInitStructure.SDIO_CmdIndex = SD_CMD_APP_CMD;
 80021d0:	f04f 0b37 	mov.w	fp, #55	; 0x37
      SDIO_CmdInitStructure.SDIO_Response = SDIO_Response_Short;
      SDIO_CmdInitStructure.SDIO_Wait = SDIO_Wait_No;
      SDIO_CmdInitStructure.SDIO_CPSM = SDIO_CPSM_Enable;
      SDIO_SendCommand(&SDIO_CmdInitStructure);
 80021d4:	4620      	mov	r0, r4
    {

      /*!< SEND CMD55 APP_CMD with RCA as 0 */
      SDIO_CmdInitStructure.SDIO_Argument = 0x00;
      SDIO_CmdInitStructure.SDIO_CmdIndex = SD_CMD_APP_CMD;
      SDIO_CmdInitStructure.SDIO_Response = SDIO_Response_Short;
 80021d6:	f04f 0a40 	mov.w	sl, #64	; 0x40
      SDIO_CmdInitStructure.SDIO_Wait = SDIO_Wait_No;
      SDIO_CmdInitStructure.SDIO_CPSM = SDIO_CPSM_Enable;
 80021da:	f44f 6780 	mov.w	r7, #1024	; 0x400
    while ((!validvoltage) && (count < SD_MAX_VOLT_TRIAL))
    {

      /*!< SEND CMD55 APP_CMD with RCA as 0 */
      SDIO_CmdInitStructure.SDIO_Argument = 0x00;
      SDIO_CmdInitStructure.SDIO_CmdIndex = SD_CMD_APP_CMD;
 80021de:	e884 0820 	stmia.w	r4, {r5, fp}
      SDIO_CmdInitStructure.SDIO_Response = SDIO_Response_Short;
 80021e2:	f8c4 a008 	str.w	sl, [r4, #8]
      SDIO_CmdInitStructure.SDIO_Wait = SDIO_Wait_No;
 80021e6:	60e5      	str	r5, [r4, #12]
      SDIO_CmdInitStructure.SDIO_CPSM = SDIO_CPSM_Enable;
 80021e8:	6127      	str	r7, [r4, #16]
      SDIO_SendCommand(&SDIO_CmdInitStructure);
 80021ea:	f000 fec1 	bl	8002f70 <SDIO_SendCommand>

      errorstatus = CmdResp1Error(SD_CMD_APP_CMD);
 80021ee:	4658      	mov	r0, fp
 80021f0:	f7ff fde0 	bl	8001db4 <CmdResp1Error>
 80021f4:	f88d 0007 	strb.w	r0, [sp, #7]

      if (errorstatus != SD_OK)
 80021f8:	f89d 3007 	ldrb.w	r3, [sp, #7]
 80021fc:	b103      	cbz	r3, 8002200 <SD_PowerON+0x150>
 80021fe:	e040      	b.n	8002282 <SD_PowerON+0x1d2>
      {
        return(errorstatus);
      }
      SDIO_CmdInitStructure.SDIO_Argument = SD_VOLTAGE_WINDOW_SD | SDType;
      SDIO_CmdInitStructure.SDIO_CmdIndex = SD_CMD_SD_APP_OP_COND;
 8002200:	2329      	movs	r3, #41	; 0x29
      SDIO_CmdInitStructure.SDIO_Response = SDIO_Response_Short;
      SDIO_CmdInitStructure.SDIO_Wait = SDIO_Wait_No;
      SDIO_CmdInitStructure.SDIO_CPSM = SDIO_CPSM_Enable;
      SDIO_SendCommand(&SDIO_CmdInitStructure);
 8002202:	4620      	mov	r0, r4

      if (errorstatus != SD_OK)
      {
        return(errorstatus);
      }
      SDIO_CmdInitStructure.SDIO_Argument = SD_VOLTAGE_WINDOW_SD | SDType;
 8002204:	f8c4 9000 	str.w	r9, [r4]
      SDIO_CmdInitStructure.SDIO_CmdIndex = SD_CMD_SD_APP_OP_COND;
 8002208:	6063      	str	r3, [r4, #4]
      SDIO_CmdInitStructure.SDIO_Response = SDIO_Response_Short;
 800220a:	f8c4 a008 	str.w	sl, [r4, #8]
      SDIO_CmdInitStructure.SDIO_Wait = SDIO_Wait_No;
 800220e:	60e5      	str	r5, [r4, #12]
      SDIO_CmdInitStructure.SDIO_CPSM = SDIO_CPSM_Enable;
 8002210:	6127      	str	r7, [r4, #16]
      SDIO_SendCommand(&SDIO_CmdInitStructure);
 8002212:	f000 fead 	bl	8002f70 <SDIO_SendCommand>
static SD_Error CmdResp3Error(void)
{
  SD_Error errorstatus = SD_OK;
  uint32_t status;

  status = SDIO->STA;
 8002216:	4a22      	ldr	r2, [pc, #136]	; (80022a0 <SD_PowerON+0x1f0>)

  while (!(status & (SDIO_FLAG_CCRCFAIL | SDIO_FLAG_CMDREND | SDIO_FLAG_CTIMEOUT)))
  {
    status = SDIO->STA;
 8002218:	6b53      	ldr	r3, [r2, #52]	; 0x34
  SD_Error errorstatus = SD_OK;
  uint32_t status;

  status = SDIO->STA;

  while (!(status & (SDIO_FLAG_CCRCFAIL | SDIO_FLAG_CMDREND | SDIO_FLAG_CTIMEOUT)))
 800221a:	f013 0f45 	tst.w	r3, #69	; 0x45
 800221e:	d0fb      	beq.n	8002218 <SD_PowerON+0x168>
  {
    status = SDIO->STA;
  }

  if (status & SDIO_FLAG_CTIMEOUT)
 8002220:	f013 0404 	ands.w	r4, r3, #4
 8002224:	d004      	beq.n	8002230 <SD_PowerON+0x180>
  {
    errorstatus = SD_CMD_RSP_TIMEOUT;
    SDIO_ClearFlag(SDIO_FLAG_CTIMEOUT);
 8002226:	2004      	movs	r0, #4
 8002228:	f000 ff02 	bl	8003030 <SDIO_ClearFlag>
    return(errorstatus);
 800222c:	2303      	movs	r3, #3
 800222e:	e004      	b.n	800223a <SD_PowerON+0x18a>
  }
  /*!< Clear all the static flags */
  SDIO_ClearFlag(SDIO_STATIC_FLAGS);
 8002230:	f240 50ff 	movw	r0, #1535	; 0x5ff
 8002234:	f000 fefc 	bl	8003030 <SDIO_ClearFlag>
  return(errorstatus);
 8002238:	4623      	mov	r3, r4
      SDIO_CmdInitStructure.SDIO_Response = SDIO_Response_Short;
      SDIO_CmdInitStructure.SDIO_Wait = SDIO_Wait_No;
      SDIO_CmdInitStructure.SDIO_CPSM = SDIO_CPSM_Enable;
      SDIO_SendCommand(&SDIO_CmdInitStructure);

      errorstatus = CmdResp3Error();
 800223a:	f88d 3007 	strb.w	r3, [sp, #7]
      if (errorstatus != SD_OK)
 800223e:	f89d 0007 	ldrb.w	r0, [sp, #7]
 8002242:	b100      	cbz	r0, 8002246 <SD_PowerON+0x196>
 8002244:	e01d      	b.n	8002282 <SD_PowerON+0x1d2>
      {
        return(errorstatus);
      }

      response = SDIO_GetResponse(SDIO_RESP1);
 8002246:	f000 feaf 	bl	8002fa8 <SDIO_GetResponse>
      validvoltage = (((response >> 31) == 1) ? 1 : 0);
      count++;
 800224a:	3601      	adds	r6, #1
      {
        return(errorstatus);
      }

      response = SDIO_GetResponse(SDIO_RESP1);
      validvoltage = (((response >> 31) == 1) ? 1 : 0);
 800224c:	0fc5      	lsrs	r5, r0, #31
 800224e:	e007      	b.n	8002260 <SD_PowerON+0x1b0>

      if (errorstatus != SD_OK)
      {
        return(errorstatus);
      }
      SDIO_CmdInitStructure.SDIO_Argument = SD_VOLTAGE_WINDOW_SD | SDType;
 8002250:	f044 4400 	orr.w	r4, r4, #2147483648	; 0x80000000
  errorstatus = CmdResp1Error(SD_CMD_APP_CMD);

  /*!< If errorstatus is Command TimeOut, it is a MMC card */
  /*!< If errorstatus is SD_OK it is a SD card: SD card 2.0 (voltage range mismatch)
     or SD card 1.x */
  if (errorstatus == SD_OK)
 8002254:	462e      	mov	r6, r5
 8002256:	4628      	mov	r0, r5
 8002258:	f64f 78ff 	movw	r8, #65535	; 0xffff

      if (errorstatus != SD_OK)
      {
        return(errorstatus);
      }
      SDIO_CmdInitStructure.SDIO_Argument = SD_VOLTAGE_WINDOW_SD | SDType;
 800225c:	f444 1980 	orr.w	r9, r4, #1048576	; 0x100000
     or SD card 1.x */
  if (errorstatus == SD_OK)
  {
    /*!< SD CARD */
    /*!< Send ACMD41 SD_APP_OP_COND with Argument 0x80100000 */
    while ((!validvoltage) && (count < SD_MAX_VOLT_TRIAL))
 8002260:	b915      	cbnz	r5, 8002268 <SD_PowerON+0x1b8>
 8002262:	4546      	cmp	r6, r8
 8002264:	d1b3      	bne.n	80021ce <SD_PowerON+0x11e>
 8002266:	e003      	b.n	8002270 <SD_PowerON+0x1c0>

      response = SDIO_GetResponse(SDIO_RESP1);
      validvoltage = (((response >> 31) == 1) ? 1 : 0);
      count++;
    }
    if (count >= SD_MAX_VOLT_TRIAL)
 8002268:	f64f 73ff 	movw	r3, #65535	; 0xffff
 800226c:	429e      	cmp	r6, r3
 800226e:	d103      	bne.n	8002278 <SD_PowerON+0x1c8>
    {
      errorstatus = SD_INVALID_VOLTRANGE;
 8002270:	231b      	movs	r3, #27
 8002272:	f88d 3007 	strb.w	r3, [sp, #7]
 8002276:	e004      	b.n	8002282 <SD_PowerON+0x1d2>
      return(errorstatus);
    }

    if (response &= SD_HIGH_CAPACITY)
 8002278:	0042      	lsls	r2, r0, #1
 800227a:	d502      	bpl.n	8002282 <SD_PowerON+0x1d2>
    {
      CardType = SDIO_HIGH_CAPACITY_SD_CARD;
 800227c:	4b09      	ldr	r3, [pc, #36]	; (80022a4 <SD_PowerON+0x1f4>)
 800227e:	2202      	movs	r2, #2
 8002280:	601a      	str	r2, [r3, #0]
    }

  }/*!< else MMC Card */

  return(errorstatus);
 8002282:	f89d 0007 	ldrb.w	r0, [sp, #7]
 8002286:	e005      	b.n	8002294 <SD_PowerON+0x1e4>
    errorstatus = SD_CMD_RSP_TIMEOUT;
    return(errorstatus);
  }

  /*!< Clear all the static flags */
  SDIO_ClearFlag(SDIO_STATIC_FLAGS);
 8002288:	f240 50ff 	movw	r0, #1535	; 0x5ff
 800228c:	f000 fed0 	bl	8003030 <SDIO_ClearFlag>

  return(errorstatus);
 8002290:	2300      	movs	r3, #0
 8002292:	e738      	b.n	8002106 <SD_PowerON+0x56>
    }

  }/*!< else MMC Card */

  return(errorstatus);
}
 8002294:	e8bd 8ffe 	ldmia.w	sp!, {r1, r2, r3, r4, r5, r6, r7, r8, r9, sl, fp, pc}
 8002298:	20000558 	.word	0x20000558
 800229c:	200004e8 	.word	0x200004e8
 80022a0:	40012c00 	.word	0x40012c00
 80022a4:	2000002c 	.word	0x2000002c

080022a8 <SD_InitializeCards>:
  *         into standby state.
  * @param  None
  * @retval SD_Error: SD Card Error code.
  */
SD_Error SD_InitializeCards(void)
{
 80022a8:	b538      	push	{r3, r4, r5, lr}
  SD_Error errorstatus = SD_OK;
  uint16_t rca = 0x01;

  if (SDIO_GetPowerState() == SDIO_PowerState_OFF)
 80022aa:	f000 fe59 	bl	8002f60 <SDIO_GetPowerState>
 80022ae:	2800      	cmp	r0, #0
 80022b0:	f000 8090 	beq.w	80023d4 <SD_InitializeCards+0x12c>
  {
    errorstatus = SD_REQUEST_NOT_APPLICABLE;
    return(errorstatus);
  }

  if (SDIO_SECURE_DIGITAL_IO_CARD != CardType)
 80022b4:	4b4d      	ldr	r3, [pc, #308]	; (80023ec <SD_InitializeCards+0x144>)
 80022b6:	681b      	ldr	r3, [r3, #0]
 80022b8:	2b04      	cmp	r3, #4
 80022ba:	d022      	beq.n	8002302 <SD_InitializeCards+0x5a>
  {
    /*!< Send CMD2 ALL_SEND_CID */
    SDIO_CmdInitStructure.SDIO_Argument = 0x0;
 80022bc:	484c      	ldr	r0, [pc, #304]	; (80023f0 <SD_InitializeCards+0x148>)
 80022be:	2300      	movs	r3, #0
    SDIO_CmdInitStructure.SDIO_CmdIndex = SD_CMD_ALL_SEND_CID;
 80022c0:	2202      	movs	r2, #2
  }

  if (SDIO_SECURE_DIGITAL_IO_CARD != CardType)
  {
    /*!< Send CMD2 ALL_SEND_CID */
    SDIO_CmdInitStructure.SDIO_Argument = 0x0;
 80022c2:	6003      	str	r3, [r0, #0]
    SDIO_CmdInitStructure.SDIO_CmdIndex = SD_CMD_ALL_SEND_CID;
 80022c4:	6042      	str	r2, [r0, #4]
    SDIO_CmdInitStructure.SDIO_Response = SDIO_Response_Long;
    SDIO_CmdInitStructure.SDIO_Wait = SDIO_Wait_No;
 80022c6:	60c3      	str	r3, [r0, #12]
  if (SDIO_SECURE_DIGITAL_IO_CARD != CardType)
  {
    /*!< Send CMD2 ALL_SEND_CID */
    SDIO_CmdInitStructure.SDIO_Argument = 0x0;
    SDIO_CmdInitStructure.SDIO_CmdIndex = SD_CMD_ALL_SEND_CID;
    SDIO_CmdInitStructure.SDIO_Response = SDIO_Response_Long;
 80022c8:	22c0      	movs	r2, #192	; 0xc0
    SDIO_CmdInitStructure.SDIO_Wait = SDIO_Wait_No;
    SDIO_CmdInitStructure.SDIO_CPSM = SDIO_CPSM_Enable;
 80022ca:	f44f 6380 	mov.w	r3, #1024	; 0x400
  if (SDIO_SECURE_DIGITAL_IO_CARD != CardType)
  {
    /*!< Send CMD2 ALL_SEND_CID */
    SDIO_CmdInitStructure.SDIO_Argument = 0x0;
    SDIO_CmdInitStructure.SDIO_CmdIndex = SD_CMD_ALL_SEND_CID;
    SDIO_CmdInitStructure.SDIO_Response = SDIO_Response_Long;
 80022ce:	6082      	str	r2, [r0, #8]
    SDIO_CmdInitStructure.SDIO_Wait = SDIO_Wait_No;
    SDIO_CmdInitStructure.SDIO_CPSM = SDIO_CPSM_Enable;
 80022d0:	6103      	str	r3, [r0, #16]
    SDIO_SendCommand(&SDIO_CmdInitStructure);
 80022d2:	f000 fe4d 	bl	8002f70 <SDIO_SendCommand>

    errorstatus = CmdResp2Error();
 80022d6:	f7ff fd4f 	bl	8001d78 <CmdResp2Error>

    if (SD_OK != errorstatus)
 80022da:	4604      	mov	r4, r0
 80022dc:	2800      	cmp	r0, #0
 80022de:	f040 8082 	bne.w	80023e6 <SD_InitializeCards+0x13e>
    {
      return(errorstatus);
    }

    CID_Tab[0] = SDIO_GetResponse(SDIO_RESP1);
 80022e2:	f000 fe61 	bl	8002fa8 <SDIO_GetResponse>
 80022e6:	4c43      	ldr	r4, [pc, #268]	; (80023f4 <SD_InitializeCards+0x14c>)
 80022e8:	6020      	str	r0, [r4, #0]
    CID_Tab[1] = SDIO_GetResponse(SDIO_RESP2);
 80022ea:	2004      	movs	r0, #4
 80022ec:	f000 fe5c 	bl	8002fa8 <SDIO_GetResponse>
 80022f0:	6060      	str	r0, [r4, #4]
    CID_Tab[2] = SDIO_GetResponse(SDIO_RESP3);
 80022f2:	2008      	movs	r0, #8
 80022f4:	f000 fe58 	bl	8002fa8 <SDIO_GetResponse>
 80022f8:	60a0      	str	r0, [r4, #8]
    CID_Tab[3] = SDIO_GetResponse(SDIO_RESP4);
 80022fa:	200c      	movs	r0, #12
 80022fc:	f000 fe54 	bl	8002fa8 <SDIO_GetResponse>
 8002300:	60e0      	str	r0, [r4, #12]
  }
  if ((SDIO_STD_CAPACITY_SD_CARD_V1_1 == CardType) ||  (SDIO_STD_CAPACITY_SD_CARD_V2_0 == CardType) ||  (SDIO_SECURE_DIGITAL_IO_COMBO_CARD == CardType)
 8002302:	4b3a      	ldr	r3, [pc, #232]	; (80023ec <SD_InitializeCards+0x144>)
 8002304:	681b      	ldr	r3, [r3, #0]
 8002306:	2b01      	cmp	r3, #1
 8002308:	d903      	bls.n	8002312 <SD_InitializeCards+0x6a>
 800230a:	2b06      	cmp	r3, #6
 800230c:	d001      	beq.n	8002312 <SD_InitializeCards+0x6a>
      ||  (SDIO_HIGH_CAPACITY_SD_CARD == CardType))
 800230e:	2b02      	cmp	r3, #2
 8002310:	d136      	bne.n	8002380 <SD_InitializeCards+0xd8>
  {
    /*!< Send CMD3 SET_REL_ADDR with argument 0 */
    /*!< SD Card publishes its RCA. */
    SDIO_CmdInitStructure.SDIO_Argument = 0x00;
 8002312:	4837      	ldr	r0, [pc, #220]	; (80023f0 <SD_InitializeCards+0x148>)
 8002314:	2300      	movs	r3, #0
    SDIO_CmdInitStructure.SDIO_CmdIndex = SD_CMD_SET_REL_ADDR;
 8002316:	2203      	movs	r2, #3
  if ((SDIO_STD_CAPACITY_SD_CARD_V1_1 == CardType) ||  (SDIO_STD_CAPACITY_SD_CARD_V2_0 == CardType) ||  (SDIO_SECURE_DIGITAL_IO_COMBO_CARD == CardType)
      ||  (SDIO_HIGH_CAPACITY_SD_CARD == CardType))
  {
    /*!< Send CMD3 SET_REL_ADDR with argument 0 */
    /*!< SD Card publishes its RCA. */
    SDIO_CmdInitStructure.SDIO_Argument = 0x00;
 8002318:	6003      	str	r3, [r0, #0]
    SDIO_CmdInitStructure.SDIO_CmdIndex = SD_CMD_SET_REL_ADDR;
 800231a:	6042      	str	r2, [r0, #4]
    SDIO_CmdInitStructure.SDIO_Response = SDIO_Response_Short;
    SDIO_CmdInitStructure.SDIO_Wait = SDIO_Wait_No;
 800231c:	60c3      	str	r3, [r0, #12]
  {
    /*!< Send CMD3 SET_REL_ADDR with argument 0 */
    /*!< SD Card publishes its RCA. */
    SDIO_CmdInitStructure.SDIO_Argument = 0x00;
    SDIO_CmdInitStructure.SDIO_CmdIndex = SD_CMD_SET_REL_ADDR;
    SDIO_CmdInitStructure.SDIO_Response = SDIO_Response_Short;
 800231e:	2240      	movs	r2, #64	; 0x40
    SDIO_CmdInitStructure.SDIO_Wait = SDIO_Wait_No;
    SDIO_CmdInitStructure.SDIO_CPSM = SDIO_CPSM_Enable;
 8002320:	f44f 6380 	mov.w	r3, #1024	; 0x400
 8002324:	6103      	str	r3, [r0, #16]
  {
    /*!< Send CMD3 SET_REL_ADDR with argument 0 */
    /*!< SD Card publishes its RCA. */
    SDIO_CmdInitStructure.SDIO_Argument = 0x00;
    SDIO_CmdInitStructure.SDIO_CmdIndex = SD_CMD_SET_REL_ADDR;
    SDIO_CmdInitStructure.SDIO_Response = SDIO_Response_Short;
 8002326:	6082      	str	r2, [r0, #8]
    SDIO_CmdInitStructure.SDIO_Wait = SDIO_Wait_No;
    SDIO_CmdInitStructure.SDIO_CPSM = SDIO_CPSM_Enable;
    SDIO_SendCommand(&SDIO_CmdInitStructure);
 8002328:	f000 fe22 	bl	8002f70 <SDIO_SendCommand>
{
  SD_Error errorstatus = SD_OK;
  uint32_t status;
  uint32_t response_r1;

  status = SDIO->STA;
 800232c:	4b32      	ldr	r3, [pc, #200]	; (80023f8 <SD_InitializeCards+0x150>)

  while (!(status & (SDIO_FLAG_CCRCFAIL | SDIO_FLAG_CTIMEOUT | SDIO_FLAG_CMDREND)))
  {
    status = SDIO->STA;
 800232e:	6b58      	ldr	r0, [r3, #52]	; 0x34
  uint32_t status;
  uint32_t response_r1;

  status = SDIO->STA;

  while (!(status & (SDIO_FLAG_CCRCFAIL | SDIO_FLAG_CTIMEOUT | SDIO_FLAG_CMDREND)))
 8002330:	f010 0f45 	tst.w	r0, #69	; 0x45
 8002334:	d0fb      	beq.n	800232e <SD_InitializeCards+0x86>
  {
    status = SDIO->STA;
  }

  if (status & SDIO_FLAG_CTIMEOUT)
 8002336:	0744      	lsls	r4, r0, #29
 8002338:	d504      	bpl.n	8002344 <SD_InitializeCards+0x9c>
  {
    errorstatus = SD_CMD_RSP_TIMEOUT;
    SDIO_ClearFlag(SDIO_FLAG_CTIMEOUT);
 800233a:	2004      	movs	r0, #4
 800233c:	f000 fe78 	bl	8003030 <SDIO_ClearFlag>
    return(errorstatus);
 8002340:	2403      	movs	r4, #3
 8002342:	e050      	b.n	80023e6 <SD_InitializeCards+0x13e>
  }
  else if (status & SDIO_FLAG_CCRCFAIL)
 8002344:	f010 0401 	ands.w	r4, r0, #1
 8002348:	d004      	beq.n	8002354 <SD_InitializeCards+0xac>
  {
    errorstatus = SD_CMD_CRC_FAIL;
    SDIO_ClearFlag(SDIO_FLAG_CCRCFAIL);
 800234a:	2001      	movs	r0, #1
 800234c:	f000 fe70 	bl	8003030 <SDIO_ClearFlag>
    return(errorstatus);
 8002350:	2401      	movs	r4, #1
 8002352:	e048      	b.n	80023e6 <SD_InitializeCards+0x13e>
  }

  /*!< Check response received is of desired command */
  if (SDIO_GetCommandResponse() != cmd)
 8002354:	f000 fe22 	bl	8002f9c <SDIO_GetCommandResponse>
 8002358:	2803      	cmp	r0, #3
 800235a:	d13f      	bne.n	80023dc <SD_InitializeCards+0x134>
    errorstatus = SD_ILLEGAL_CMD;
    return(errorstatus);
  }

  /*!< Clear all the static flags */
  SDIO_ClearFlag(SDIO_STATIC_FLAGS);
 800235c:	f240 50ff 	movw	r0, #1535	; 0x5ff
 8002360:	f000 fe66 	bl	8003030 <SDIO_ClearFlag>

  /*!< We have received response, retrieve it.  */
  response_r1 = SDIO_GetResponse(SDIO_RESP1);
 8002364:	4620      	mov	r0, r4
 8002366:	f000 fe1f 	bl	8002fa8 <SDIO_GetResponse>

  if (SD_ALLZERO == (response_r1 & (SD_R6_GENERAL_UNKNOWN_ERROR | SD_R6_ILLEGAL_CMD | SD_R6_COM_CRC_FAILED)))
 800236a:	f410 4f60 	tst.w	r0, #57344	; 0xe000
 800236e:	d101      	bne.n	8002374 <SD_InitializeCards+0xcc>
  {
    *prca = (uint16_t) (response_r1 >> 16);
 8002370:	0c03      	lsrs	r3, r0, #16
 8002372:	e006      	b.n	8002382 <SD_InitializeCards+0xda>
    return(errorstatus);
  }

  if (response_r1 & SD_R6_GENERAL_UNKNOWN_ERROR)
 8002374:	0481      	lsls	r1, r0, #18
 8002376:	d433      	bmi.n	80023e0 <SD_InitializeCards+0x138>
  {
    return(SD_GENERAL_UNKNOWN_ERROR);
  }

  if (response_r1 & SD_R6_ILLEGAL_CMD)
 8002378:	0442      	lsls	r2, r0, #17
 800237a:	d42f      	bmi.n	80023dc <SD_InitializeCards+0x134>
  {
    return(SD_ILLEGAL_CMD);
  }

  if (response_r1 & SD_R6_COM_CRC_FAILED)
 800237c:	0403      	lsls	r3, r0, #16
 800237e:	d431      	bmi.n	80023e4 <SD_InitializeCards+0x13c>
  * @retval SD_Error: SD Card Error code.
  */
SD_Error SD_InitializeCards(void)
{
  SD_Error errorstatus = SD_OK;
  uint16_t rca = 0x01;
 8002380:	2301      	movs	r3, #1
    {
      return(errorstatus);
    }
  }

  if (SDIO_SECURE_DIGITAL_IO_CARD != CardType)
 8002382:	4a1a      	ldr	r2, [pc, #104]	; (80023ec <SD_InitializeCards+0x144>)
 8002384:	6812      	ldr	r2, [r2, #0]
 8002386:	2a04      	cmp	r2, #4
 8002388:	d026      	beq.n	80023d8 <SD_InitializeCards+0x130>
  {
    RCA = rca;
 800238a:	4a1c      	ldr	r2, [pc, #112]	; (80023fc <SD_InitializeCards+0x154>)

    /*!< Send CMD9 SEND_CSD with argument as card's RCA */
    SDIO_CmdInitStructure.SDIO_Argument = (uint32_t)(rca << 16);
 800238c:	4818      	ldr	r0, [pc, #96]	; (80023f0 <SD_InitializeCards+0x148>)
    }
  }

  if (SDIO_SECURE_DIGITAL_IO_CARD != CardType)
  {
    RCA = rca;
 800238e:	6013      	str	r3, [r2, #0]

    /*!< Send CMD9 SEND_CSD with argument as card's RCA */
    SDIO_CmdInitStructure.SDIO_Argument = (uint32_t)(rca << 16);
 8002390:	041b      	lsls	r3, r3, #16
 8002392:	6003      	str	r3, [r0, #0]
    SDIO_CmdInitStructure.SDIO_CmdIndex = SD_CMD_SEND_CSD;
 8002394:	2309      	movs	r3, #9
 8002396:	6043      	str	r3, [r0, #4]
    SDIO_CmdInitStructure.SDIO_Response = SDIO_Response_Long;
 8002398:	23c0      	movs	r3, #192	; 0xc0
 800239a:	6083      	str	r3, [r0, #8]
    SDIO_CmdInitStructure.SDIO_Wait = SDIO_Wait_No;
 800239c:	2300      	movs	r3, #0
 800239e:	60c3      	str	r3, [r0, #12]
    SDIO_CmdInitStructure.SDIO_CPSM = SDIO_CPSM_Enable;
 80023a0:	f44f 6380 	mov.w	r3, #1024	; 0x400
 80023a4:	6103      	str	r3, [r0, #16]
    SDIO_SendCommand(&SDIO_CmdInitStructure);
 80023a6:	f000 fde3 	bl	8002f70 <SDIO_SendCommand>

    errorstatus = CmdResp2Error();
 80023aa:	f7ff fce5 	bl	8001d78 <CmdResp2Error>

    if (SD_OK != errorstatus)
 80023ae:	4604      	mov	r4, r0
 80023b0:	b9c8      	cbnz	r0, 80023e6 <SD_InitializeCards+0x13e>
    {
      return(errorstatus);
    }

    CSD_Tab[0] = SDIO_GetResponse(SDIO_RESP1);
 80023b2:	f000 fdf9 	bl	8002fa8 <SDIO_GetResponse>
 80023b6:	4d12      	ldr	r5, [pc, #72]	; (8002400 <SD_InitializeCards+0x158>)
 80023b8:	6028      	str	r0, [r5, #0]
    CSD_Tab[1] = SDIO_GetResponse(SDIO_RESP2);
 80023ba:	2004      	movs	r0, #4
 80023bc:	f000 fdf4 	bl	8002fa8 <SDIO_GetResponse>
 80023c0:	6068      	str	r0, [r5, #4]
    CSD_Tab[2] = SDIO_GetResponse(SDIO_RESP3);
 80023c2:	2008      	movs	r0, #8
 80023c4:	f000 fdf0 	bl	8002fa8 <SDIO_GetResponse>
 80023c8:	60a8      	str	r0, [r5, #8]
    CSD_Tab[3] = SDIO_GetResponse(SDIO_RESP4);
 80023ca:	200c      	movs	r0, #12
 80023cc:	f000 fdec 	bl	8002fa8 <SDIO_GetResponse>
 80023d0:	60e8      	str	r0, [r5, #12]
 80023d2:	e008      	b.n	80023e6 <SD_InitializeCards+0x13e>
  uint16_t rca = 0x01;

  if (SDIO_GetPowerState() == SDIO_PowerState_OFF)
  {
    errorstatus = SD_REQUEST_NOT_APPLICABLE;
    return(errorstatus);
 80023d4:	2425      	movs	r4, #37	; 0x25
 80023d6:	e006      	b.n	80023e6 <SD_InitializeCards+0x13e>
    CSD_Tab[3] = SDIO_GetResponse(SDIO_RESP4);
  }

  errorstatus = SD_OK; /*!< All cards get intialized */

  return(errorstatus);
 80023d8:	2400      	movs	r4, #0
 80023da:	e004      	b.n	80023e6 <SD_InitializeCards+0x13e>

  /*!< Check response received is of desired command */
  if (SDIO_GetCommandResponse() != cmd)
  {
    errorstatus = SD_ILLEGAL_CMD;
    return(errorstatus);
 80023dc:	2410      	movs	r4, #16
 80023de:	e002      	b.n	80023e6 <SD_InitializeCards+0x13e>
    return(errorstatus);
  }

  if (response_r1 & SD_R6_GENERAL_UNKNOWN_ERROR)
  {
    return(SD_GENERAL_UNKNOWN_ERROR);
 80023e0:	2413      	movs	r4, #19
 80023e2:	e000      	b.n	80023e6 <SD_InitializeCards+0x13e>
    return(SD_ILLEGAL_CMD);
  }

  if (response_r1 & SD_R6_COM_CRC_FAILED)
  {
    return(SD_COM_CRC_FAILED);
 80023e4:	240f      	movs	r4, #15
  }

  errorstatus = SD_OK; /*!< All cards get intialized */

  return(errorstatus);
}
 80023e6:	4620      	mov	r0, r4
 80023e8:	bd38      	pop	{r3, r4, r5, pc}
 80023ea:	bf00      	nop
 80023ec:	2000002c 	.word	0x2000002c
 80023f0:	200004e8 	.word	0x200004e8
 80023f4:	20000030 	.word	0x20000030
 80023f8:	40012c00 	.word	0x40012c00
 80023fc:	20000044 	.word	0x20000044
 8002400:	2000001c 	.word	0x2000001c

08002404 <SD_GetCardInfo>:
SD_Error SD_GetCardInfo(SD_CardInfo *cardinfo)
{
  SD_Error errorstatus = SD_OK;
  uint8_t tmp = 0;

  cardinfo->CardType = (uint8_t)CardType;
 8002404:	4b9c      	ldr	r3, [pc, #624]	; (8002678 <SD_GetCardInfo+0x274>)
  * @param  cardinfo: pointer to a SD_CardInfo structure that contains all SD card
  *         information.
  * @retval SD_Error: SD Card Error code.
  */
SD_Error SD_GetCardInfo(SD_CardInfo *cardinfo)
{
 8002406:	b570      	push	{r4, r5, r6, lr}
  SD_Error errorstatus = SD_OK;
  uint8_t tmp = 0;

  cardinfo->CardType = (uint8_t)CardType;
 8002408:	681d      	ldr	r5, [r3, #0]
  cardinfo->RCA = (uint16_t)RCA;
 800240a:	4b9c      	ldr	r3, [pc, #624]	; (800267c <SD_GetCardInfo+0x278>)

  /*!< Byte 0 */
  tmp = (uint8_t)((CSD_Tab[0] & 0xFF000000) >> 24);
 800240c:	4c9c      	ldr	r4, [pc, #624]	; (8002680 <SD_GetCardInfo+0x27c>)
{
  SD_Error errorstatus = SD_OK;
  uint8_t tmp = 0;

  cardinfo->CardType = (uint8_t)CardType;
  cardinfo->RCA = (uint16_t)RCA;
 800240e:	681b      	ldr	r3, [r3, #0]
SD_Error SD_GetCardInfo(SD_CardInfo *cardinfo)
{
  SD_Error errorstatus = SD_OK;
  uint8_t tmp = 0;

  cardinfo->CardType = (uint8_t)CardType;
 8002410:	f880 5056 	strb.w	r5, [r0, #86]	; 0x56
  cardinfo->RCA = (uint16_t)RCA;
 8002414:	f8a0 3054 	strh.w	r3, [r0, #84]	; 0x54

  /*!< Byte 0 */
  tmp = (uint8_t)((CSD_Tab[0] & 0xFF000000) >> 24);
 8002418:	6823      	ldr	r3, [r4, #0]
  * @param  cardinfo: pointer to a SD_CardInfo structure that contains all SD card
  *         information.
  * @retval SD_Error: SD Card Error code.
  */
SD_Error SD_GetCardInfo(SD_CardInfo *cardinfo)
{
 800241a:	4601      	mov	r1, r0

  cardinfo->CardType = (uint8_t)CardType;
  cardinfo->RCA = (uint16_t)RCA;

  /*!< Byte 0 */
  tmp = (uint8_t)((CSD_Tab[0] & 0xFF000000) >> 24);
 800241c:	0e1a      	lsrs	r2, r3, #24
  cardinfo->SD_csd.CSDStruct = (tmp & 0xC0) >> 6;
 800241e:	0990      	lsrs	r0, r2, #6
 8002420:	7008      	strb	r0, [r1, #0]
  cardinfo->SD_csd.SysSpecVersion = (tmp & 0x3C) >> 2;
 8002422:	f3c2 0083 	ubfx	r0, r2, #2, #4
  cardinfo->SD_csd.Reserved1 = tmp & 0x03;
 8002426:	f002 0203 	and.w	r2, r2, #3
  cardinfo->RCA = (uint16_t)RCA;

  /*!< Byte 0 */
  tmp = (uint8_t)((CSD_Tab[0] & 0xFF000000) >> 24);
  cardinfo->SD_csd.CSDStruct = (tmp & 0xC0) >> 6;
  cardinfo->SD_csd.SysSpecVersion = (tmp & 0x3C) >> 2;
 800242a:	7048      	strb	r0, [r1, #1]
  cardinfo->SD_csd.Reserved1 = tmp & 0x03;
 800242c:	708a      	strb	r2, [r1, #2]

  /*!< Byte 1 */
  tmp = (uint8_t)((CSD_Tab[0] & 0x00FF0000) >> 16);
 800242e:	f3c3 4207 	ubfx	r2, r3, #16, #8
  cardinfo->SD_csd.TAAC = tmp;
 8002432:	70ca      	strb	r2, [r1, #3]

  /*!< Byte 2 */
  tmp = (uint8_t)((CSD_Tab[0] & 0x0000FF00) >> 8);
 8002434:	f3c3 2207 	ubfx	r2, r3, #8, #8
  cardinfo->SD_csd.NSAC = tmp;
 8002438:	710a      	strb	r2, [r1, #4]

  /*!< Byte 3 */
  tmp = (uint8_t)(CSD_Tab[0] & 0x000000FF);
  cardinfo->SD_csd.MaxBusClkFrec = tmp;
 800243a:	714b      	strb	r3, [r1, #5]

  /*!< Byte 4 */
  tmp = (uint8_t)((CSD_Tab[1] & 0xFF000000) >> 24);
 800243c:	6863      	ldr	r3, [r4, #4]
  cardinfo->SD_csd.CardComdClasses = tmp << 4;
 800243e:	0e1a      	lsrs	r2, r3, #24
 8002440:	0112      	lsls	r2, r2, #4
 8002442:	80ca      	strh	r2, [r1, #6]

  /*!< Byte 5 */
  tmp = (uint8_t)((CSD_Tab[1] & 0x00FF0000) >> 16);
  cardinfo->SD_csd.CardComdClasses |= (tmp & 0xF0) >> 4;
 8002444:	88c8      	ldrh	r0, [r1, #6]
  /*!< Byte 4 */
  tmp = (uint8_t)((CSD_Tab[1] & 0xFF000000) >> 24);
  cardinfo->SD_csd.CardComdClasses = tmp << 4;

  /*!< Byte 5 */
  tmp = (uint8_t)((CSD_Tab[1] & 0x00FF0000) >> 16);
 8002446:	f3c3 4207 	ubfx	r2, r3, #16, #8
  cardinfo->SD_csd.CardComdClasses |= (tmp & 0xF0) >> 4;
 800244a:	b280      	uxth	r0, r0
 800244c:	ea40 1012 	orr.w	r0, r0, r2, lsr #4
  cardinfo->SD_csd.RdBlockLen = tmp & 0x0F;
 8002450:	f002 020f 	and.w	r2, r2, #15
  tmp = (uint8_t)((CSD_Tab[1] & 0xFF000000) >> 24);
  cardinfo->SD_csd.CardComdClasses = tmp << 4;

  /*!< Byte 5 */
  tmp = (uint8_t)((CSD_Tab[1] & 0x00FF0000) >> 16);
  cardinfo->SD_csd.CardComdClasses |= (tmp & 0xF0) >> 4;
 8002454:	80c8      	strh	r0, [r1, #6]
  cardinfo->SD_csd.RdBlockLen = tmp & 0x0F;
 8002456:	720a      	strb	r2, [r1, #8]

  /*!< Byte 6 */
  tmp = (uint8_t)((CSD_Tab[1] & 0x0000FF00) >> 8);
 8002458:	f3c3 2207 	ubfx	r2, r3, #8, #8
 800245c:	b2d0      	uxtb	r0, r2
  cardinfo->SD_csd.PartBlockRead = (tmp & 0x80) >> 7;
 800245e:	09c6      	lsrs	r6, r0, #7
 8002460:	724e      	strb	r6, [r1, #9]
  cardinfo->SD_csd.WrBlockMisalign = (tmp & 0x40) >> 6;
 8002462:	f3c2 1680 	ubfx	r6, r2, #6, #1
 8002466:	728e      	strb	r6, [r1, #10]
  cardinfo->SD_csd.RdBlockMisalign = (tmp & 0x20) >> 5;
 8002468:	f3c2 1640 	ubfx	r6, r2, #5, #1
 800246c:	72ce      	strb	r6, [r1, #11]
  cardinfo->SD_csd.DSRImpl = (tmp & 0x10) >> 4;
 800246e:	f3c2 1600 	ubfx	r6, r2, #4, #1
 8002472:	730e      	strb	r6, [r1, #12]
  cardinfo->SD_csd.Reserved2 = 0; /*!< Reserved */
 8002474:	2600      	movs	r6, #0

  if ((CardType == SDIO_STD_CAPACITY_SD_CARD_V1_1) || (CardType == SDIO_STD_CAPACITY_SD_CARD_V2_0))
 8002476:	2d01      	cmp	r5, #1
  tmp = (uint8_t)((CSD_Tab[1] & 0x0000FF00) >> 8);
  cardinfo->SD_csd.PartBlockRead = (tmp & 0x80) >> 7;
  cardinfo->SD_csd.WrBlockMisalign = (tmp & 0x40) >> 6;
  cardinfo->SD_csd.RdBlockMisalign = (tmp & 0x20) >> 5;
  cardinfo->SD_csd.DSRImpl = (tmp & 0x10) >> 4;
  cardinfo->SD_csd.Reserved2 = 0; /*!< Reserved */
 8002478:	734e      	strb	r6, [r1, #13]

  if ((CardType == SDIO_STD_CAPACITY_SD_CARD_V1_1) || (CardType == SDIO_STD_CAPACITY_SD_CARD_V2_0))
 800247a:	d83c      	bhi.n	80024f6 <SD_GetCardInfo+0xf2>
  {
    cardinfo->SD_csd.DeviceSize = (tmp & 0x03) << 10;
 800247c:	f002 0203 	and.w	r2, r2, #3
 8002480:	0292      	lsls	r2, r2, #10
 8002482:	610a      	str	r2, [r1, #16]

    /*!< Byte 7 */
    tmp = (uint8_t)(CSD_Tab[1] & 0x000000FF);
    cardinfo->SD_csd.DeviceSize |= (tmp) << 2;
 8002484:	690a      	ldr	r2, [r1, #16]

    /*!< Byte 8 */
    tmp = (uint8_t)((CSD_Tab[2] & 0xFF000000) >> 24);
 8002486:	68a0      	ldr	r0, [r4, #8]
  {
    NumberOfBytes >>= 1;
    count++;
  }
  return(count);
}
 8002488:	b2db      	uxtb	r3, r3
  {
    cardinfo->SD_csd.DeviceSize = (tmp & 0x03) << 10;

    /*!< Byte 7 */
    tmp = (uint8_t)(CSD_Tab[1] & 0x000000FF);
    cardinfo->SD_csd.DeviceSize |= (tmp) << 2;
 800248a:	ea42 0383 	orr.w	r3, r2, r3, lsl #2
 800248e:	610b      	str	r3, [r1, #16]

    /*!< Byte 8 */
    tmp = (uint8_t)((CSD_Tab[2] & 0xFF000000) >> 24);
    cardinfo->SD_csd.DeviceSize |= (tmp & 0xC0) >> 6;
 8002490:	690a      	ldr	r2, [r1, #16]
    /*!< Byte 7 */
    tmp = (uint8_t)(CSD_Tab[1] & 0x000000FF);
    cardinfo->SD_csd.DeviceSize |= (tmp) << 2;

    /*!< Byte 8 */
    tmp = (uint8_t)((CSD_Tab[2] & 0xFF000000) >> 24);
 8002492:	0e03      	lsrs	r3, r0, #24
    cardinfo->SD_csd.DeviceSize |= (tmp & 0xC0) >> 6;
 8002494:	ea42 1293 	orr.w	r2, r2, r3, lsr #6
 8002498:	610a      	str	r2, [r1, #16]

    cardinfo->SD_csd.MaxRdCurrentVDDMin = (tmp & 0x38) >> 3;
 800249a:	f3c3 02c2 	ubfx	r2, r3, #3, #3
    cardinfo->SD_csd.MaxRdCurrentVDDMax = (tmp & 0x07);
 800249e:	f003 0307 	and.w	r3, r3, #7

    /*!< Byte 8 */
    tmp = (uint8_t)((CSD_Tab[2] & 0xFF000000) >> 24);
    cardinfo->SD_csd.DeviceSize |= (tmp & 0xC0) >> 6;

    cardinfo->SD_csd.MaxRdCurrentVDDMin = (tmp & 0x38) >> 3;
 80024a2:	750a      	strb	r2, [r1, #20]
    cardinfo->SD_csd.MaxRdCurrentVDDMax = (tmp & 0x07);
 80024a4:	754b      	strb	r3, [r1, #21]

    /*!< Byte 9 */
    tmp = (uint8_t)((CSD_Tab[2] & 0x00FF0000) >> 16);
 80024a6:	f3c0 4307 	ubfx	r3, r0, #16, #8
    cardinfo->SD_csd.MaxWrCurrentVDDMin = (tmp & 0xE0) >> 5;
 80024aa:	095a      	lsrs	r2, r3, #5
 80024ac:	758a      	strb	r2, [r1, #22]
    cardinfo->SD_csd.MaxWrCurrentVDDMax = (tmp & 0x1C) >> 2;
 80024ae:	f3c3 0282 	ubfx	r2, r3, #2, #3
    cardinfo->SD_csd.DeviceSizeMul = (tmp & 0x03) << 1;
 80024b2:	f003 0303 	and.w	r3, r3, #3
 80024b6:	005b      	lsls	r3, r3, #1
    cardinfo->SD_csd.MaxRdCurrentVDDMax = (tmp & 0x07);

    /*!< Byte 9 */
    tmp = (uint8_t)((CSD_Tab[2] & 0x00FF0000) >> 16);
    cardinfo->SD_csd.MaxWrCurrentVDDMin = (tmp & 0xE0) >> 5;
    cardinfo->SD_csd.MaxWrCurrentVDDMax = (tmp & 0x1C) >> 2;
 80024b8:	75ca      	strb	r2, [r1, #23]
    cardinfo->SD_csd.DeviceSizeMul = (tmp & 0x03) << 1;
 80024ba:	760b      	strb	r3, [r1, #24]
    /*!< Byte 10 */
    tmp = (uint8_t)((CSD_Tab[2] & 0x0000FF00) >> 8);
    cardinfo->SD_csd.DeviceSizeMul |= (tmp & 0x80) >> 7;
 80024bc:	7e0b      	ldrb	r3, [r1, #24]
    tmp = (uint8_t)((CSD_Tab[2] & 0x00FF0000) >> 16);
    cardinfo->SD_csd.MaxWrCurrentVDDMin = (tmp & 0xE0) >> 5;
    cardinfo->SD_csd.MaxWrCurrentVDDMax = (tmp & 0x1C) >> 2;
    cardinfo->SD_csd.DeviceSizeMul = (tmp & 0x03) << 1;
    /*!< Byte 10 */
    tmp = (uint8_t)((CSD_Tab[2] & 0x0000FF00) >> 8);
 80024be:	f3c0 2007 	ubfx	r0, r0, #8, #8
    cardinfo->SD_csd.DeviceSizeMul |= (tmp & 0x80) >> 7;
 80024c2:	ea43 13d0 	orr.w	r3, r3, r0, lsr #7
 80024c6:	760b      	strb	r3, [r1, #24]

    cardinfo->CardCapacity = (cardinfo->SD_csd.DeviceSize + 1) ;
 80024c8:	690e      	ldr	r6, [r1, #16]
    cardinfo->CardCapacity *= (1 << (cardinfo->SD_csd.DeviceSizeMul + 2));
 80024ca:	7e0a      	ldrb	r2, [r1, #24]
    cardinfo->CardBlockSize = 1 << (cardinfo->SD_csd.RdBlockLen);
 80024cc:	7a0c      	ldrb	r4, [r1, #8]
 80024ce:	2301      	movs	r3, #1
    /*!< Byte 10 */
    tmp = (uint8_t)((CSD_Tab[2] & 0x0000FF00) >> 8);
    cardinfo->SD_csd.DeviceSizeMul |= (tmp & 0x80) >> 7;

    cardinfo->CardCapacity = (cardinfo->SD_csd.DeviceSize + 1) ;
    cardinfo->CardCapacity *= (1 << (cardinfo->SD_csd.DeviceSizeMul + 2));
 80024d0:	3202      	adds	r2, #2
    cardinfo->CardBlockSize = 1 << (cardinfo->SD_csd.RdBlockLen);
 80024d2:	fa03 f404 	lsl.w	r4, r3, r4
    /*!< Byte 10 */
    tmp = (uint8_t)((CSD_Tab[2] & 0x0000FF00) >> 8);
    cardinfo->SD_csd.DeviceSizeMul |= (tmp & 0x80) >> 7;

    cardinfo->CardCapacity = (cardinfo->SD_csd.DeviceSize + 1) ;
    cardinfo->CardCapacity *= (1 << (cardinfo->SD_csd.DeviceSizeMul + 2));
 80024d6:	fa03 f202 	lsl.w	r2, r3, r2
 80024da:	17d5      	asrs	r5, r2, #31
    cardinfo->SD_csd.DeviceSizeMul = (tmp & 0x03) << 1;
    /*!< Byte 10 */
    tmp = (uint8_t)((CSD_Tab[2] & 0x0000FF00) >> 8);
    cardinfo->SD_csd.DeviceSizeMul |= (tmp & 0x80) >> 7;

    cardinfo->CardCapacity = (cardinfo->SD_csd.DeviceSize + 1) ;
 80024dc:	3601      	adds	r6, #1
    cardinfo->CardCapacity *= (1 << (cardinfo->SD_csd.DeviceSizeMul + 2));
 80024de:	fba2 2304 	umull	r2, r3, r2, r4
 80024e2:	fb04 3305 	mla	r3, r4, r5, r3
    cardinfo->CardBlockSize = 1 << (cardinfo->SD_csd.RdBlockLen);
 80024e6:	650c      	str	r4, [r1, #80]	; 0x50
    cardinfo->CardCapacity *= cardinfo->CardBlockSize;
 80024e8:	fba2 4506 	umull	r4, r5, r2, r6
 80024ec:	fb06 5503 	mla	r5, r6, r3, r5
 80024f0:	e9c1 4512 	strd	r4, r5, [r1, #72]	; 0x48
 80024f4:	e01b      	b.n	800252e <SD_GetCardInfo+0x12a>
  }
  else if (CardType == SDIO_HIGH_CAPACITY_SD_CARD)
 80024f6:	2d02      	cmp	r5, #2
 80024f8:	d119      	bne.n	800252e <SD_GetCardInfo+0x12a>
  {
    /*!< Byte 7 */
    tmp = (uint8_t)(CSD_Tab[1] & 0x000000FF);
    cardinfo->SD_csd.DeviceSize = (tmp & 0x3F) << 16;
 80024fa:	f003 033f 	and.w	r3, r3, #63	; 0x3f
 80024fe:	041b      	lsls	r3, r3, #16
 8002500:	610b      	str	r3, [r1, #16]

    /*!< Byte 8 */
    tmp = (uint8_t)((CSD_Tab[2] & 0xFF000000) >> 24);
 8002502:	68a0      	ldr	r0, [r4, #8]

    cardinfo->SD_csd.DeviceSize |= (tmp << 8);
 8002504:	690b      	ldr	r3, [r1, #16]
  {
    NumberOfBytes >>= 1;
    count++;
  }
  return(count);
}
 8002506:	0e02      	lsrs	r2, r0, #24
    cardinfo->SD_csd.DeviceSize = (tmp & 0x3F) << 16;

    /*!< Byte 8 */
    tmp = (uint8_t)((CSD_Tab[2] & 0xFF000000) >> 24);

    cardinfo->SD_csd.DeviceSize |= (tmp << 8);
 8002508:	ea43 2302 	orr.w	r3, r3, r2, lsl #8
 800250c:	610b      	str	r3, [r1, #16]

    /*!< Byte 9 */
    tmp = (uint8_t)((CSD_Tab[2] & 0x00FF0000) >> 16);

    cardinfo->SD_csd.DeviceSize |= (tmp);
 800250e:	690b      	ldr	r3, [r1, #16]
    tmp = (uint8_t)((CSD_Tab[2] & 0xFF000000) >> 24);

    cardinfo->SD_csd.DeviceSize |= (tmp << 8);

    /*!< Byte 9 */
    tmp = (uint8_t)((CSD_Tab[2] & 0x00FF0000) >> 16);
 8002510:	f3c0 4207 	ubfx	r2, r0, #16, #8

    cardinfo->SD_csd.DeviceSize |= (tmp);
 8002514:	4313      	orrs	r3, r2
 8002516:	610b      	str	r3, [r1, #16]

    /*!< Byte 10 */
    tmp = (uint8_t)((CSD_Tab[2] & 0x0000FF00) >> 8);

    cardinfo->CardCapacity = (uint64_t)(cardinfo->SD_csd.DeviceSize + 1) * (uint64_t)(512 * 1024);
 8002518:	690b      	ldr	r3, [r1, #16]
 800251a:	3301      	adds	r3, #1
 800251c:	0b5a      	lsrs	r2, r3, #13
 800251e:	04db      	lsls	r3, r3, #19
 8002520:	648b      	str	r3, [r1, #72]	; 0x48
    cardinfo->CardBlockSize = 512;
 8002522:	f44f 7300 	mov.w	r3, #512	; 0x200
    tmp = (uint8_t)((CSD_Tab[2] & 0x00FF0000) >> 16);

    cardinfo->SD_csd.DeviceSize |= (tmp);

    /*!< Byte 10 */
    tmp = (uint8_t)((CSD_Tab[2] & 0x0000FF00) >> 8);
 8002526:	f3c0 2007 	ubfx	r0, r0, #8, #8

    cardinfo->CardCapacity = (uint64_t)(cardinfo->SD_csd.DeviceSize + 1) * (uint64_t)(512 * 1024);
 800252a:	64ca      	str	r2, [r1, #76]	; 0x4c
    cardinfo->CardBlockSize = 512;
 800252c:	650b      	str	r3, [r1, #80]	; 0x50
  }


  cardinfo->SD_csd.EraseGrSize = (tmp & 0x40) >> 6;
 800252e:	f3c0 1380 	ubfx	r3, r0, #6, #1
 8002532:	764b      	strb	r3, [r1, #25]
  cardinfo->SD_csd.EraseGrMul = (tmp & 0x3F) << 1;
 8002534:	f000 003f 	and.w	r0, r0, #63	; 0x3f

  /*!< Byte 11 */
  tmp = (uint8_t)(CSD_Tab[2] & 0x000000FF);
 8002538:	4b51      	ldr	r3, [pc, #324]	; (8002680 <SD_GetCardInfo+0x27c>)
    cardinfo->CardBlockSize = 512;
  }


  cardinfo->SD_csd.EraseGrSize = (tmp & 0x40) >> 6;
  cardinfo->SD_csd.EraseGrMul = (tmp & 0x3F) << 1;
 800253a:	0040      	lsls	r0, r0, #1
 800253c:	7688      	strb	r0, [r1, #26]

  /*!< Byte 11 */
  tmp = (uint8_t)(CSD_Tab[2] & 0x000000FF);
 800253e:	689a      	ldr	r2, [r3, #8]
  cardinfo->SD_csd.EraseGrMul |= (tmp & 0x80) >> 7;
 8002540:	7e8c      	ldrb	r4, [r1, #26]
 8002542:	f3c2 10c0 	ubfx	r0, r2, #7, #1
 8002546:	4320      	orrs	r0, r4
  cardinfo->SD_csd.WrProtectGrSize = (tmp & 0x7F);
 8002548:	f002 027f 	and.w	r2, r2, #127	; 0x7f
  cardinfo->SD_csd.EraseGrSize = (tmp & 0x40) >> 6;
  cardinfo->SD_csd.EraseGrMul = (tmp & 0x3F) << 1;

  /*!< Byte 11 */
  tmp = (uint8_t)(CSD_Tab[2] & 0x000000FF);
  cardinfo->SD_csd.EraseGrMul |= (tmp & 0x80) >> 7;
 800254c:	7688      	strb	r0, [r1, #26]
  cardinfo->SD_csd.WrProtectGrSize = (tmp & 0x7F);
 800254e:	76ca      	strb	r2, [r1, #27]

  /*!< Byte 12 */
  tmp = (uint8_t)((CSD_Tab[3] & 0xFF000000) >> 24);
 8002550:	68da      	ldr	r2, [r3, #12]
 8002552:	0e13      	lsrs	r3, r2, #24
  cardinfo->SD_csd.WrProtectGrEnable = (tmp & 0x80) >> 7;
 8002554:	09d8      	lsrs	r0, r3, #7
 8002556:	7708      	strb	r0, [r1, #28]
  cardinfo->SD_csd.ManDeflECC = (tmp & 0x60) >> 5;
 8002558:	f3c3 1041 	ubfx	r0, r3, #5, #2
 800255c:	7748      	strb	r0, [r1, #29]
  cardinfo->SD_csd.WrSpeedFact = (tmp & 0x1C) >> 2;
 800255e:	f3c3 0082 	ubfx	r0, r3, #2, #3
  cardinfo->SD_csd.MaxWrBlockLen = (tmp & 0x03) << 2;
 8002562:	f003 0303 	and.w	r3, r3, #3
 8002566:	009b      	lsls	r3, r3, #2

  /*!< Byte 12 */
  tmp = (uint8_t)((CSD_Tab[3] & 0xFF000000) >> 24);
  cardinfo->SD_csd.WrProtectGrEnable = (tmp & 0x80) >> 7;
  cardinfo->SD_csd.ManDeflECC = (tmp & 0x60) >> 5;
  cardinfo->SD_csd.WrSpeedFact = (tmp & 0x1C) >> 2;
 8002568:	7788      	strb	r0, [r1, #30]
  cardinfo->SD_csd.MaxWrBlockLen = (tmp & 0x03) << 2;
 800256a:	77cb      	strb	r3, [r1, #31]

  /*!< Byte 13 */
  tmp = (uint8_t)((CSD_Tab[3] & 0x00FF0000) >> 16);
  cardinfo->SD_csd.MaxWrBlockLen |= (tmp & 0xC0) >> 6;
 800256c:	7fc8      	ldrb	r0, [r1, #31]
  cardinfo->SD_csd.ManDeflECC = (tmp & 0x60) >> 5;
  cardinfo->SD_csd.WrSpeedFact = (tmp & 0x1C) >> 2;
  cardinfo->SD_csd.MaxWrBlockLen = (tmp & 0x03) << 2;

  /*!< Byte 13 */
  tmp = (uint8_t)((CSD_Tab[3] & 0x00FF0000) >> 16);
 800256e:	f3c2 4307 	ubfx	r3, r2, #16, #8
  cardinfo->SD_csd.MaxWrBlockLen |= (tmp & 0xC0) >> 6;
 8002572:	ea40 1093 	orr.w	r0, r0, r3, lsr #6
 8002576:	77c8      	strb	r0, [r1, #31]
  cardinfo->SD_csd.WriteBlockPaPartial = (tmp & 0x20) >> 5;
 8002578:	f3c3 1040 	ubfx	r0, r3, #5, #1
 800257c:	f881 0020 	strb.w	r0, [r1, #32]
  cardinfo->SD_csd.Reserved3 = 0;
  cardinfo->SD_csd.ContentProtectAppli = (tmp & 0x01);
 8002580:	f003 0301 	and.w	r3, r3, #1

  /*!< Byte 13 */
  tmp = (uint8_t)((CSD_Tab[3] & 0x00FF0000) >> 16);
  cardinfo->SD_csd.MaxWrBlockLen |= (tmp & 0xC0) >> 6;
  cardinfo->SD_csd.WriteBlockPaPartial = (tmp & 0x20) >> 5;
  cardinfo->SD_csd.Reserved3 = 0;
 8002584:	2000      	movs	r0, #0
 8002586:	f881 0021 	strb.w	r0, [r1, #33]	; 0x21
  cardinfo->SD_csd.ContentProtectAppli = (tmp & 0x01);
 800258a:	f881 3022 	strb.w	r3, [r1, #34]	; 0x22

  /*!< Byte 14 */
  tmp = (uint8_t)((CSD_Tab[3] & 0x0000FF00) >> 8);
 800258e:	f3c2 2307 	ubfx	r3, r2, #8, #8
  cardinfo->SD_csd.FileFormatGrouop = (tmp & 0x80) >> 7;
 8002592:	09dc      	lsrs	r4, r3, #7
 8002594:	f881 4023 	strb.w	r4, [r1, #35]	; 0x23
  cardinfo->SD_csd.CopyFlag = (tmp & 0x40) >> 6;
 8002598:	f3c3 1480 	ubfx	r4, r3, #6, #1
 800259c:	f881 4024 	strb.w	r4, [r1, #36]	; 0x24
  cardinfo->SD_csd.PermWrProtect = (tmp & 0x20) >> 5;
 80025a0:	f3c3 1440 	ubfx	r4, r3, #5, #1
 80025a4:	f881 4025 	strb.w	r4, [r1, #37]	; 0x25
  cardinfo->SD_csd.TempWrProtect = (tmp & 0x10) >> 4;
 80025a8:	f3c3 1400 	ubfx	r4, r3, #4, #1
 80025ac:	f881 4026 	strb.w	r4, [r1, #38]	; 0x26
  cardinfo->SD_csd.FileFormat = (tmp & 0x0C) >> 2;
 80025b0:	f3c3 0481 	ubfx	r4, r3, #2, #2
  cardinfo->SD_csd.ECC = (tmp & 0x03);
 80025b4:	f003 0303 	and.w	r3, r3, #3
  tmp = (uint8_t)((CSD_Tab[3] & 0x0000FF00) >> 8);
  cardinfo->SD_csd.FileFormatGrouop = (tmp & 0x80) >> 7;
  cardinfo->SD_csd.CopyFlag = (tmp & 0x40) >> 6;
  cardinfo->SD_csd.PermWrProtect = (tmp & 0x20) >> 5;
  cardinfo->SD_csd.TempWrProtect = (tmp & 0x10) >> 4;
  cardinfo->SD_csd.FileFormat = (tmp & 0x0C) >> 2;
 80025b8:	f881 4027 	strb.w	r4, [r1, #39]	; 0x27
  cardinfo->SD_csd.ECC = (tmp & 0x03);
 80025bc:	f881 3028 	strb.w	r3, [r1, #40]	; 0x28
  cardinfo->SD_csd.CSD_CRC = (tmp & 0xFE) >> 1;
  cardinfo->SD_csd.Reserved4 = 1;


  /*!< Byte 0 */
  tmp = (uint8_t)((CID_Tab[0] & 0xFF000000) >> 24);
 80025c0:	4b30      	ldr	r3, [pc, #192]	; (8002684 <SD_GetCardInfo+0x280>)
  cardinfo->SD_csd.FileFormat = (tmp & 0x0C) >> 2;
  cardinfo->SD_csd.ECC = (tmp & 0x03);

  /*!< Byte 15 */
  tmp = (uint8_t)(CSD_Tab[3] & 0x000000FF);
  cardinfo->SD_csd.CSD_CRC = (tmp & 0xFE) >> 1;
 80025c2:	f3c2 0246 	ubfx	r2, r2, #1, #7
 80025c6:	f881 2029 	strb.w	r2, [r1, #41]	; 0x29
  cardinfo->SD_csd.Reserved4 = 1;


  /*!< Byte 0 */
  tmp = (uint8_t)((CID_Tab[0] & 0xFF000000) >> 24);
 80025ca:	681a      	ldr	r2, [r3, #0]
  cardinfo->SD_csd.ECC = (tmp & 0x03);

  /*!< Byte 15 */
  tmp = (uint8_t)(CSD_Tab[3] & 0x000000FF);
  cardinfo->SD_csd.CSD_CRC = (tmp & 0xFE) >> 1;
  cardinfo->SD_csd.Reserved4 = 1;
 80025cc:	2401      	movs	r4, #1


  /*!< Byte 0 */
  tmp = (uint8_t)((CID_Tab[0] & 0xFF000000) >> 24);
 80025ce:	0e15      	lsrs	r5, r2, #24
  cardinfo->SD_csd.ECC = (tmp & 0x03);

  /*!< Byte 15 */
  tmp = (uint8_t)(CSD_Tab[3] & 0x000000FF);
  cardinfo->SD_csd.CSD_CRC = (tmp & 0xFE) >> 1;
  cardinfo->SD_csd.Reserved4 = 1;
 80025d0:	f881 402a 	strb.w	r4, [r1, #42]	; 0x2a


  /*!< Byte 0 */
  tmp = (uint8_t)((CID_Tab[0] & 0xFF000000) >> 24);
  cardinfo->SD_cid.ManufacturerID = tmp;
 80025d4:	f881 502c 	strb.w	r5, [r1, #44]	; 0x2c

  /*!< Byte 1 */
  tmp = (uint8_t)((CID_Tab[0] & 0x00FF0000) >> 16);
 80025d8:	f3c2 4507 	ubfx	r5, r2, #16, #8
  cardinfo->SD_cid.OEM_AppliID = tmp << 8;
 80025dc:	022d      	lsls	r5, r5, #8
 80025de:	85cd      	strh	r5, [r1, #46]	; 0x2e

  /*!< Byte 2 */
  tmp = (uint8_t)((CID_Tab[0] & 0x000000FF00) >> 8);
  cardinfo->SD_cid.OEM_AppliID |= tmp;
 80025e0:	8dcd      	ldrh	r5, [r1, #46]	; 0x2e
  /*!< Byte 1 */
  tmp = (uint8_t)((CID_Tab[0] & 0x00FF0000) >> 16);
  cardinfo->SD_cid.OEM_AppliID = tmp << 8;

  /*!< Byte 2 */
  tmp = (uint8_t)((CID_Tab[0] & 0x000000FF00) >> 8);
 80025e2:	f3c2 2607 	ubfx	r6, r2, #8, #8
  cardinfo->SD_cid.OEM_AppliID |= tmp;
 80025e6:	b2ad      	uxth	r5, r5
 80025e8:	4335      	orrs	r5, r6

  /*!< Byte 3 */
  tmp = (uint8_t)(CID_Tab[0] & 0x000000FF);
  cardinfo->SD_cid.ProdName1 = tmp << 24;
 80025ea:	0612      	lsls	r2, r2, #24
  tmp = (uint8_t)((CID_Tab[0] & 0x00FF0000) >> 16);
  cardinfo->SD_cid.OEM_AppliID = tmp << 8;

  /*!< Byte 2 */
  tmp = (uint8_t)((CID_Tab[0] & 0x000000FF00) >> 8);
  cardinfo->SD_cid.OEM_AppliID |= tmp;
 80025ec:	85cd      	strh	r5, [r1, #46]	; 0x2e

  /*!< Byte 3 */
  tmp = (uint8_t)(CID_Tab[0] & 0x000000FF);
  cardinfo->SD_cid.ProdName1 = tmp << 24;
 80025ee:	630a      	str	r2, [r1, #48]	; 0x30

  /*!< Byte 4 */
  tmp = (uint8_t)((CID_Tab[1] & 0xFF000000) >> 24);
 80025f0:	685a      	ldr	r2, [r3, #4]
  cardinfo->SD_cid.ProdName1 |= tmp << 16;
 80025f2:	6b0d      	ldr	r5, [r1, #48]	; 0x30
  {
    NumberOfBytes >>= 1;
    count++;
  }
  return(count);
}
 80025f4:	0e16      	lsrs	r6, r2, #24
  tmp = (uint8_t)(CID_Tab[0] & 0x000000FF);
  cardinfo->SD_cid.ProdName1 = tmp << 24;

  /*!< Byte 4 */
  tmp = (uint8_t)((CID_Tab[1] & 0xFF000000) >> 24);
  cardinfo->SD_cid.ProdName1 |= tmp << 16;
 80025f6:	ea45 4506 	orr.w	r5, r5, r6, lsl #16
 80025fa:	630d      	str	r5, [r1, #48]	; 0x30

  /*!< Byte 5 */
  tmp = (uint8_t)((CID_Tab[1] & 0x00FF0000) >> 16);
  cardinfo->SD_cid.ProdName1 |= tmp << 8;
 80025fc:	6b0d      	ldr	r5, [r1, #48]	; 0x30
  /*!< Byte 4 */
  tmp = (uint8_t)((CID_Tab[1] & 0xFF000000) >> 24);
  cardinfo->SD_cid.ProdName1 |= tmp << 16;

  /*!< Byte 5 */
  tmp = (uint8_t)((CID_Tab[1] & 0x00FF0000) >> 16);
 80025fe:	f3c2 4607 	ubfx	r6, r2, #16, #8
  cardinfo->SD_cid.ProdName1 |= tmp << 8;
 8002602:	ea45 2506 	orr.w	r5, r5, r6, lsl #8
 8002606:	630d      	str	r5, [r1, #48]	; 0x30

  /*!< Byte 6 */
  tmp = (uint8_t)((CID_Tab[1] & 0x0000FF00) >> 8);
  cardinfo->SD_cid.ProdName1 |= tmp;
 8002608:	6b0d      	ldr	r5, [r1, #48]	; 0x30
  /*!< Byte 5 */
  tmp = (uint8_t)((CID_Tab[1] & 0x00FF0000) >> 16);
  cardinfo->SD_cid.ProdName1 |= tmp << 8;

  /*!< Byte 6 */
  tmp = (uint8_t)((CID_Tab[1] & 0x0000FF00) >> 8);
 800260a:	f3c2 2607 	ubfx	r6, r2, #8, #8
  cardinfo->SD_cid.ProdName1 |= tmp;
 800260e:	4335      	orrs	r5, r6
 8002610:	630d      	str	r5, [r1, #48]	; 0x30

  /*!< Byte 7 */
  tmp = (uint8_t)(CID_Tab[1] & 0x000000FF);
  cardinfo->SD_cid.ProdName2 = tmp;
 8002612:	f881 2034 	strb.w	r2, [r1, #52]	; 0x34

  /*!< Byte 8 */
  tmp = (uint8_t)((CID_Tab[2] & 0xFF000000) >> 24);
 8002616:	689a      	ldr	r2, [r3, #8]
  /*!< Byte 11 */
  tmp = (uint8_t)(CID_Tab[2] & 0x000000FF);
  cardinfo->SD_cid.ProdSN |= tmp << 8;

  /*!< Byte 12 */
  tmp = (uint8_t)((CID_Tab[3] & 0xFF000000) >> 24);
 8002618:	68db      	ldr	r3, [r3, #12]
  /*!< Byte 7 */
  tmp = (uint8_t)(CID_Tab[1] & 0x000000FF);
  cardinfo->SD_cid.ProdName2 = tmp;

  /*!< Byte 8 */
  tmp = (uint8_t)((CID_Tab[2] & 0xFF000000) >> 24);
 800261a:	0e15      	lsrs	r5, r2, #24
  cardinfo->SD_cid.ProdRev = tmp;
 800261c:	f881 5035 	strb.w	r5, [r1, #53]	; 0x35

  /*!< Byte 9 */
  tmp = (uint8_t)((CID_Tab[2] & 0x00FF0000) >> 16);
 8002620:	f3c2 4507 	ubfx	r5, r2, #16, #8
  cardinfo->SD_cid.ProdSN = tmp << 24;
 8002624:	062d      	lsls	r5, r5, #24
 8002626:	638d      	str	r5, [r1, #56]	; 0x38

  /*!< Byte 10 */
  tmp = (uint8_t)((CID_Tab[2] & 0x0000FF00) >> 8);
  cardinfo->SD_cid.ProdSN |= tmp << 16;
 8002628:	6b8d      	ldr	r5, [r1, #56]	; 0x38
  /*!< Byte 9 */
  tmp = (uint8_t)((CID_Tab[2] & 0x00FF0000) >> 16);
  cardinfo->SD_cid.ProdSN = tmp << 24;

  /*!< Byte 10 */
  tmp = (uint8_t)((CID_Tab[2] & 0x0000FF00) >> 8);
 800262a:	f3c2 2607 	ubfx	r6, r2, #8, #8
  cardinfo->SD_cid.ProdSN |= tmp << 16;
 800262e:	ea45 4506 	orr.w	r5, r5, r6, lsl #16
 8002632:	638d      	str	r5, [r1, #56]	; 0x38

  /*!< Byte 11 */
  tmp = (uint8_t)(CID_Tab[2] & 0x000000FF);
  cardinfo->SD_cid.ProdSN |= tmp << 8;
 8002634:	6b8d      	ldr	r5, [r1, #56]	; 0x38
  {
    NumberOfBytes >>= 1;
    count++;
  }
  return(count);
}
 8002636:	b2d2      	uxtb	r2, r2
  tmp = (uint8_t)((CID_Tab[2] & 0x0000FF00) >> 8);
  cardinfo->SD_cid.ProdSN |= tmp << 16;

  /*!< Byte 11 */
  tmp = (uint8_t)(CID_Tab[2] & 0x000000FF);
  cardinfo->SD_cid.ProdSN |= tmp << 8;
 8002638:	ea45 2202 	orr.w	r2, r5, r2, lsl #8
 800263c:	638a      	str	r2, [r1, #56]	; 0x38

  /*!< Byte 12 */
  tmp = (uint8_t)((CID_Tab[3] & 0xFF000000) >> 24);
  cardinfo->SD_cid.ProdSN |= tmp;
 800263e:	6b8a      	ldr	r2, [r1, #56]	; 0x38
 8002640:	ea42 6213 	orr.w	r2, r2, r3, lsr #24
 8002644:	638a      	str	r2, [r1, #56]	; 0x38

  /*!< Byte 13 */
  tmp = (uint8_t)((CID_Tab[3] & 0x00FF0000) >> 16);
  cardinfo->SD_cid.Reserved1 |= (tmp & 0xF0) >> 4;
 8002646:	f891 503c 	ldrb.w	r5, [r1, #60]	; 0x3c
  /*!< Byte 12 */
  tmp = (uint8_t)((CID_Tab[3] & 0xFF000000) >> 24);
  cardinfo->SD_cid.ProdSN |= tmp;

  /*!< Byte 13 */
  tmp = (uint8_t)((CID_Tab[3] & 0x00FF0000) >> 16);
 800264a:	f3c3 4207 	ubfx	r2, r3, #16, #8
  cardinfo->SD_cid.Reserved1 |= (tmp & 0xF0) >> 4;
 800264e:	ea45 1512 	orr.w	r5, r5, r2, lsr #4
  cardinfo->SD_cid.ManufactDate = (tmp & 0x0F) << 8;
 8002652:	f002 020f 	and.w	r2, r2, #15
 8002656:	0212      	lsls	r2, r2, #8
  tmp = (uint8_t)((CID_Tab[3] & 0xFF000000) >> 24);
  cardinfo->SD_cid.ProdSN |= tmp;

  /*!< Byte 13 */
  tmp = (uint8_t)((CID_Tab[3] & 0x00FF0000) >> 16);
  cardinfo->SD_cid.Reserved1 |= (tmp & 0xF0) >> 4;
 8002658:	f881 503c 	strb.w	r5, [r1, #60]	; 0x3c
  cardinfo->SD_cid.ManufactDate = (tmp & 0x0F) << 8;
 800265c:	87ca      	strh	r2, [r1, #62]	; 0x3e

  /*!< Byte 14 */
  tmp = (uint8_t)((CID_Tab[3] & 0x0000FF00) >> 8);
  cardinfo->SD_cid.ManufactDate |= tmp;
 800265e:	8fca      	ldrh	r2, [r1, #62]	; 0x3e
  tmp = (uint8_t)((CID_Tab[3] & 0x00FF0000) >> 16);
  cardinfo->SD_cid.Reserved1 |= (tmp & 0xF0) >> 4;
  cardinfo->SD_cid.ManufactDate = (tmp & 0x0F) << 8;

  /*!< Byte 14 */
  tmp = (uint8_t)((CID_Tab[3] & 0x0000FF00) >> 8);
 8002660:	f3c3 2507 	ubfx	r5, r3, #8, #8
  cardinfo->SD_cid.ManufactDate |= tmp;
 8002664:	b292      	uxth	r2, r2
 8002666:	432a      	orrs	r2, r5

  /*!< Byte 15 */
  tmp = (uint8_t)(CID_Tab[3] & 0x000000FF);
  cardinfo->SD_cid.CID_CRC = (tmp & 0xFE) >> 1;
 8002668:	f3c3 0346 	ubfx	r3, r3, #1, #7
  cardinfo->SD_cid.Reserved1 |= (tmp & 0xF0) >> 4;
  cardinfo->SD_cid.ManufactDate = (tmp & 0x0F) << 8;

  /*!< Byte 14 */
  tmp = (uint8_t)((CID_Tab[3] & 0x0000FF00) >> 8);
  cardinfo->SD_cid.ManufactDate |= tmp;
 800266c:	87ca      	strh	r2, [r1, #62]	; 0x3e

  /*!< Byte 15 */
  tmp = (uint8_t)(CID_Tab[3] & 0x000000FF);
  cardinfo->SD_cid.CID_CRC = (tmp & 0xFE) >> 1;
 800266e:	f881 3040 	strb.w	r3, [r1, #64]	; 0x40
  cardinfo->SD_cid.Reserved2 = 1;
 8002672:	f881 4041 	strb.w	r4, [r1, #65]	; 0x41

  return(errorstatus);
}
 8002676:	bd70      	pop	{r4, r5, r6, pc}
 8002678:	2000002c 	.word	0x2000002c
 800267c:	20000044 	.word	0x20000044
 8002680:	2000001c 	.word	0x2000001c
 8002684:	20000030 	.word	0x20000030

08002688 <SD_EnableWideBusOperation>:
  *     @arg SDIO_BusWide_4b: 4-bit data transfer
  *     @arg SDIO_BusWide_1b: 1-bit data transfer
  * @retval SD_Error: SD Card Error code.
  */
SD_Error SD_EnableWideBusOperation(uint32_t WideMode)
{
 8002688:	b538      	push	{r3, r4, r5, lr}
  SD_Error errorstatus = SD_OK;

  /*!< MMC Card doesn't support this feature */
  if (SDIO_MULTIMEDIA_CARD == CardType)
 800268a:	4b16      	ldr	r3, [pc, #88]	; (80026e4 <SD_EnableWideBusOperation+0x5c>)
 800268c:	681b      	ldr	r3, [r3, #0]
 800268e:	2b03      	cmp	r3, #3
  *     @arg SDIO_BusWide_4b: 4-bit data transfer
  *     @arg SDIO_BusWide_1b: 1-bit data transfer
  * @retval SD_Error: SD Card Error code.
  */
SD_Error SD_EnableWideBusOperation(uint32_t WideMode)
{
 8002690:	4605      	mov	r5, r0
  SD_Error errorstatus = SD_OK;

  /*!< MMC Card doesn't support this feature */
  if (SDIO_MULTIMEDIA_CARD == CardType)
 8002692:	d024      	beq.n	80026de <SD_EnableWideBusOperation+0x56>
  {
    errorstatus = SD_UNSUPPORTED_FEATURE;
    return(errorstatus);
  }
  else if ((SDIO_STD_CAPACITY_SD_CARD_V1_1 == CardType) || (SDIO_STD_CAPACITY_SD_CARD_V2_0 == CardType) || (SDIO_HIGH_CAPACITY_SD_CARD == CardType))
 8002694:	2b02      	cmp	r3, #2
 8002696:	d820      	bhi.n	80026da <SD_EnableWideBusOperation+0x52>
  {
    if (SDIO_BusWide_8b == WideMode)
 8002698:	f5b0 5f80 	cmp.w	r0, #4096	; 0x1000
 800269c:	d01f      	beq.n	80026de <SD_EnableWideBusOperation+0x56>
    {
      errorstatus = SD_UNSUPPORTED_FEATURE;
      return(errorstatus);
    }
    else if (SDIO_BusWide_4b == WideMode)
 800269e:	f5b0 6f00 	cmp.w	r0, #2048	; 0x800
 80026a2:	d10b      	bne.n	80026bc <SD_EnableWideBusOperation+0x34>
    {
      errorstatus = SDEnWideBus(ENABLE);
 80026a4:	2001      	movs	r0, #1
 80026a6:	f7ff fbff 	bl	8001ea8 <SDEnWideBus>

      if (SD_OK == errorstatus)
 80026aa:	4604      	mov	r4, r0
 80026ac:	b9c0      	cbnz	r0, 80026e0 <SD_EnableWideBusOperation+0x58>
      {
        /*!< Configure the SDIO peripheral */
        SDIO_InitStructure.SDIO_ClockDiv = SDIO_TRANSFER_CLK_DIV;
 80026ae:	480e      	ldr	r0, [pc, #56]	; (80026e8 <SD_EnableWideBusOperation+0x60>)
 80026b0:	7504      	strb	r4, [r0, #20]
        SDIO_InitStructure.SDIO_ClockEdge = SDIO_ClockEdge_Rising;
 80026b2:	6004      	str	r4, [r0, #0]
        SDIO_InitStructure.SDIO_ClockBypass = SDIO_ClockBypass_Disable;
 80026b4:	6044      	str	r4, [r0, #4]
        SDIO_InitStructure.SDIO_ClockPowerSave = SDIO_ClockPowerSave_Disable;
 80026b6:	6084      	str	r4, [r0, #8]
        SDIO_InitStructure.SDIO_BusWide = SDIO_BusWide_4b;
 80026b8:	60c5      	str	r5, [r0, #12]
 80026ba:	e00a      	b.n	80026d2 <SD_EnableWideBusOperation+0x4a>
        SDIO_Init(&SDIO_InitStructure);
      }
    }
    else
    {
      errorstatus = SDEnWideBus(DISABLE);
 80026bc:	2000      	movs	r0, #0
 80026be:	f7ff fbf3 	bl	8001ea8 <SDEnWideBus>

      if (SD_OK == errorstatus)
 80026c2:	4604      	mov	r4, r0
 80026c4:	b960      	cbnz	r0, 80026e0 <SD_EnableWideBusOperation+0x58>
      {
        /*!< Configure the SDIO peripheral */
        SDIO_InitStructure.SDIO_ClockDiv = SDIO_TRANSFER_CLK_DIV;
 80026c6:	4808      	ldr	r0, [pc, #32]	; (80026e8 <SD_EnableWideBusOperation+0x60>)
 80026c8:	7504      	strb	r4, [r0, #20]
        SDIO_InitStructure.SDIO_ClockEdge = SDIO_ClockEdge_Rising;
 80026ca:	6004      	str	r4, [r0, #0]
        SDIO_InitStructure.SDIO_ClockBypass = SDIO_ClockBypass_Disable;
 80026cc:	6044      	str	r4, [r0, #4]
        SDIO_InitStructure.SDIO_ClockPowerSave = SDIO_ClockPowerSave_Disable;
 80026ce:	6084      	str	r4, [r0, #8]
        SDIO_InitStructure.SDIO_BusWide = SDIO_BusWide_1b;
 80026d0:	60c4      	str	r4, [r0, #12]
        SDIO_InitStructure.SDIO_HardwareFlowControl = SDIO_HardwareFlowControl_Disable;
 80026d2:	6104      	str	r4, [r0, #16]
        SDIO_Init(&SDIO_InitStructure);
 80026d4:	f000 fc20 	bl	8002f18 <SDIO_Init>
 80026d8:	e002      	b.n	80026e0 <SD_EnableWideBusOperation+0x58>
  *     @arg SDIO_BusWide_1b: 1-bit data transfer
  * @retval SD_Error: SD Card Error code.
  */
SD_Error SD_EnableWideBusOperation(uint32_t WideMode)
{
  SD_Error errorstatus = SD_OK;
 80026da:	2400      	movs	r4, #0
 80026dc:	e000      	b.n	80026e0 <SD_EnableWideBusOperation+0x58>

  /*!< MMC Card doesn't support this feature */
  if (SDIO_MULTIMEDIA_CARD == CardType)
  {
    errorstatus = SD_UNSUPPORTED_FEATURE;
    return(errorstatus);
 80026de:	2427      	movs	r4, #39	; 0x27
      }
    }
  }

  return(errorstatus);
}
 80026e0:	4620      	mov	r0, r4
 80026e2:	bd38      	pop	{r3, r4, r5, pc}
 80026e4:	2000002c 	.word	0x2000002c
 80026e8:	20000558 	.word	0x20000558

080026ec <SD_SelectDeselect>:
SD_Error SD_SelectDeselect(uint32_t addr)
{
  SD_Error errorstatus = SD_OK;

  /*!< Send CMD7 SDIO_SEL_DESEL_CARD */
  SDIO_CmdInitStructure.SDIO_Argument =  addr;
 80026ec:	4b09      	ldr	r3, [pc, #36]	; (8002714 <SD_SelectDeselect+0x28>)
  SDIO_CmdInitStructure.SDIO_CmdIndex = SD_CMD_SEL_DESEL_CARD;
  SDIO_CmdInitStructure.SDIO_Response = SDIO_Response_Short;
 80026ee:	2240      	movs	r2, #64	; 0x40
  * @brief  Selects od Deselects the corresponding card.
  * @param  addr: Address of the Card to be selected.
  * @retval SD_Error: SD Card Error code.
  */
SD_Error SD_SelectDeselect(uint32_t addr)
{
 80026f0:	b510      	push	{r4, lr}
  SD_Error errorstatus = SD_OK;

  /*!< Send CMD7 SDIO_SEL_DESEL_CARD */
  SDIO_CmdInitStructure.SDIO_Argument =  addr;
  SDIO_CmdInitStructure.SDIO_CmdIndex = SD_CMD_SEL_DESEL_CARD;
  SDIO_CmdInitStructure.SDIO_Response = SDIO_Response_Short;
 80026f2:	609a      	str	r2, [r3, #8]
  SDIO_CmdInitStructure.SDIO_Wait = SDIO_Wait_No;
 80026f4:	2200      	movs	r2, #0
SD_Error SD_SelectDeselect(uint32_t addr)
{
  SD_Error errorstatus = SD_OK;

  /*!< Send CMD7 SDIO_SEL_DESEL_CARD */
  SDIO_CmdInitStructure.SDIO_Argument =  addr;
 80026f6:	6018      	str	r0, [r3, #0]
  SDIO_CmdInitStructure.SDIO_CmdIndex = SD_CMD_SEL_DESEL_CARD;
 80026f8:	2407      	movs	r4, #7
  SDIO_CmdInitStructure.SDIO_Response = SDIO_Response_Short;
  SDIO_CmdInitStructure.SDIO_Wait = SDIO_Wait_No;
 80026fa:	60da      	str	r2, [r3, #12]
  SDIO_CmdInitStructure.SDIO_CPSM = SDIO_CPSM_Enable;
  SDIO_SendCommand(&SDIO_CmdInitStructure);
 80026fc:	4618      	mov	r0, r3
  /*!< Send CMD7 SDIO_SEL_DESEL_CARD */
  SDIO_CmdInitStructure.SDIO_Argument =  addr;
  SDIO_CmdInitStructure.SDIO_CmdIndex = SD_CMD_SEL_DESEL_CARD;
  SDIO_CmdInitStructure.SDIO_Response = SDIO_Response_Short;
  SDIO_CmdInitStructure.SDIO_Wait = SDIO_Wait_No;
  SDIO_CmdInitStructure.SDIO_CPSM = SDIO_CPSM_Enable;
 80026fe:	f44f 6280 	mov.w	r2, #1024	; 0x400
{
  SD_Error errorstatus = SD_OK;

  /*!< Send CMD7 SDIO_SEL_DESEL_CARD */
  SDIO_CmdInitStructure.SDIO_Argument =  addr;
  SDIO_CmdInitStructure.SDIO_CmdIndex = SD_CMD_SEL_DESEL_CARD;
 8002702:	605c      	str	r4, [r3, #4]
  SDIO_CmdInitStructure.SDIO_Response = SDIO_Response_Short;
  SDIO_CmdInitStructure.SDIO_Wait = SDIO_Wait_No;
  SDIO_CmdInitStructure.SDIO_CPSM = SDIO_CPSM_Enable;
 8002704:	611a      	str	r2, [r3, #16]
  SDIO_SendCommand(&SDIO_CmdInitStructure);
 8002706:	f000 fc33 	bl	8002f70 <SDIO_SendCommand>

  errorstatus = CmdResp1Error(SD_CMD_SEL_DESEL_CARD);
 800270a:	4620      	mov	r0, r4

  return(errorstatus);
}
 800270c:	e8bd 4010 	ldmia.w	sp!, {r4, lr}
  SDIO_CmdInitStructure.SDIO_Response = SDIO_Response_Short;
  SDIO_CmdInitStructure.SDIO_Wait = SDIO_Wait_No;
  SDIO_CmdInitStructure.SDIO_CPSM = SDIO_CPSM_Enable;
  SDIO_SendCommand(&SDIO_CmdInitStructure);

  errorstatus = CmdResp1Error(SD_CMD_SEL_DESEL_CARD);
 8002710:	f7ff bb50 	b.w	8001db4 <CmdResp1Error>
 8002714:	200004e8 	.word	0x200004e8

08002718 <SD_Init>:
  *         transfer).
  * @param  None
  * @retval SD_Error: SD Card Error code.
  */
SD_Error SD_Init(void)
{
 8002718:	b513      	push	{r0, r1, r4, lr}
  __IO SD_Error errorstatus = SD_OK;
 800271a:	2300      	movs	r3, #0
 800271c:	f88d 3007 	strb.w	r3, [sp, #7]

  /* SDIO Peripheral Low Level Init */
  SD_LowLevel_Init();
 8002720:	f7ff fa34 	bl	8001b8c <SD_LowLevel_Init>

  SDIO_DeInit();
 8002724:	f000 fbea 	bl	8002efc <SDIO_DeInit>

  errorstatus = SD_PowerON();
 8002728:	f7ff fcc2 	bl	80020b0 <SD_PowerON>
 800272c:	f88d 0007 	strb.w	r0, [sp, #7]

  if (errorstatus != SD_OK)
 8002730:	f89d 3007 	ldrb.w	r3, [sp, #7]
 8002734:	b103      	cbz	r3, 8002738 <SD_Init+0x20>
 8002736:	e029      	b.n	800278c <SD_Init+0x74>
  {
    /*!< CMD Response TimeOut (wait for CMDSENT flag) */
    return(errorstatus);
  }

  errorstatus = SD_InitializeCards();
 8002738:	f7ff fdb6 	bl	80022a8 <SD_InitializeCards>
 800273c:	f88d 0007 	strb.w	r0, [sp, #7]

  if (errorstatus != SD_OK)
 8002740:	f89d 2007 	ldrb.w	r2, [sp, #7]
 8002744:	b102      	cbz	r2, 8002748 <SD_Init+0x30>
 8002746:	e021      	b.n	800278c <SD_Init+0x74>
  }

  /*!< Configure the SDIO peripheral */
  /*!< SDIO_CK = SDIOCLK / (SDIO_TRANSFER_CLK_DIV + 2) */
  /*!< on STM32F4xx devices, SDIOCLK is fixed to 48MHz */
  SDIO_InitStructure.SDIO_ClockDiv = SDIO_TRANSFER_CLK_DIV;
 8002748:	4812      	ldr	r0, [pc, #72]	; (8002794 <SD_Init+0x7c>)
  SDIO_InitStructure.SDIO_BusWide = SDIO_BusWide_1b;
  SDIO_InitStructure.SDIO_HardwareFlowControl = SDIO_HardwareFlowControl_Disable;
  SDIO_Init(&SDIO_InitStructure);

  /*----------------- Read CSD/CID MSD registers ------------------*/
  errorstatus = SD_GetCardInfo(&SDCardInfo);
 800274a:	4c13      	ldr	r4, [pc, #76]	; (8002798 <SD_Init+0x80>)
  }

  /*!< Configure the SDIO peripheral */
  /*!< SDIO_CK = SDIOCLK / (SDIO_TRANSFER_CLK_DIV + 2) */
  /*!< on STM32F4xx devices, SDIOCLK is fixed to 48MHz */
  SDIO_InitStructure.SDIO_ClockDiv = SDIO_TRANSFER_CLK_DIV;
 800274c:	7502      	strb	r2, [r0, #20]
  SDIO_InitStructure.SDIO_ClockEdge = SDIO_ClockEdge_Rising;
 800274e:	6002      	str	r2, [r0, #0]
  SDIO_InitStructure.SDIO_ClockBypass = SDIO_ClockBypass_Disable;
 8002750:	6042      	str	r2, [r0, #4]
  SDIO_InitStructure.SDIO_ClockPowerSave = SDIO_ClockPowerSave_Disable;
 8002752:	6082      	str	r2, [r0, #8]
  SDIO_InitStructure.SDIO_BusWide = SDIO_BusWide_1b;
 8002754:	60c2      	str	r2, [r0, #12]
  SDIO_InitStructure.SDIO_HardwareFlowControl = SDIO_HardwareFlowControl_Disable;
 8002756:	6102      	str	r2, [r0, #16]
  SDIO_Init(&SDIO_InitStructure);
 8002758:	f000 fbde 	bl	8002f18 <SDIO_Init>

  /*----------------- Read CSD/CID MSD registers ------------------*/
  errorstatus = SD_GetCardInfo(&SDCardInfo);
 800275c:	4620      	mov	r0, r4
 800275e:	f7ff fe51 	bl	8002404 <SD_GetCardInfo>
 8002762:	f88d 0007 	strb.w	r0, [sp, #7]

  if (errorstatus == SD_OK)
 8002766:	f89d 3007 	ldrb.w	r3, [sp, #7]
 800276a:	b933      	cbnz	r3, 800277a <SD_Init+0x62>
  {
    /*----------------- Select Card --------------------------------*/
    errorstatus = SD_SelectDeselect((uint32_t) (SDCardInfo.RCA << 16));
 800276c:	f8b4 0054 	ldrh.w	r0, [r4, #84]	; 0x54
 8002770:	0400      	lsls	r0, r0, #16
 8002772:	f7ff ffbb 	bl	80026ec <SD_SelectDeselect>
 8002776:	f88d 0007 	strb.w	r0, [sp, #7]
  }

  if (errorstatus == SD_OK)
 800277a:	f89d 3007 	ldrb.w	r3, [sp, #7]
 800277e:	b92b      	cbnz	r3, 800278c <SD_Init+0x74>
  {
    errorstatus = SD_EnableWideBusOperation(SDIO_BusWide_4b);
 8002780:	f44f 6000 	mov.w	r0, #2048	; 0x800
 8002784:	f7ff ff80 	bl	8002688 <SD_EnableWideBusOperation>
 8002788:	f88d 0007 	strb.w	r0, [sp, #7]
  }

  return(errorstatus);
 800278c:	f89d 0007 	ldrb.w	r0, [sp, #7]
}
 8002790:	bd1c      	pop	{r2, r3, r4, pc}
 8002792:	bf00      	nop
 8002794:	20000558 	.word	0x20000558
 8002798:	20000500 	.word	0x20000500

0800279c <SD_ReadMultiBlocksFIXED>:
}

// FIXED Version where ReadAddr is in BLOCKS NOT BYTES, permits SDHC media >4GB

SD_Error SD_ReadMultiBlocksFIXED(uint8_t *readbuff, uint32_t ReadAddr, uint32_t BlockSize, uint32_t NumberOfBlocks)
{
 800279c:	e92d 4ff7 	stmdb	sp!, {r0, r1, r2, r4, r5, r6, r7, r8, r9, sl, fp, lr}
 80027a0:	4688      	mov	r8, r1
  SD_Error errorstatus = SD_OK;
  TransferError = SD_OK;
 80027a2:	492e      	ldr	r1, [pc, #184]	; (800285c <SD_ReadMultiBlocksFIXED+0xc0>)
}

// FIXED Version where ReadAddr is in BLOCKS NOT BYTES, permits SDHC media >4GB

SD_Error SD_ReadMultiBlocksFIXED(uint8_t *readbuff, uint32_t ReadAddr, uint32_t BlockSize, uint32_t NumberOfBlocks)
{
 80027a4:	9001      	str	r0, [sp, #4]
 80027a6:	4617      	mov	r7, r2
  SD_Error errorstatus = SD_OK;
  TransferError = SD_OK;
 80027a8:	2200      	movs	r2, #0
 80027aa:	700a      	strb	r2, [r1, #0]
  TransferEnd = 0;
 80027ac:	492c      	ldr	r1, [pc, #176]	; (8002860 <SD_ReadMultiBlocksFIXED+0xc4>)
    BlockSize = 512;
  else
    ReadAddr *= BlockSize; // Convert to Bytes for NON SDHC

  /*!< Set Block Size for Card */
  SDIO_CmdInitStructure.SDIO_Argument = (uint32_t) BlockSize;
 80027ae:	4c2d      	ldr	r4, [pc, #180]	; (8002864 <SD_ReadMultiBlocksFIXED+0xc8>)

SD_Error SD_ReadMultiBlocksFIXED(uint8_t *readbuff, uint32_t ReadAddr, uint32_t BlockSize, uint32_t NumberOfBlocks)
{
  SD_Error errorstatus = SD_OK;
  TransferError = SD_OK;
  TransferEnd = 0;
 80027b0:	600a      	str	r2, [r1, #0]
  StopCondition = 1;
 80027b2:	492d      	ldr	r1, [pc, #180]	; (8002868 <SD_ReadMultiBlocksFIXED+0xcc>)
 80027b4:	2001      	movs	r0, #1
 80027b6:	6008      	str	r0, [r1, #0]

  SDIO->DCTRL = 0x0;
 80027b8:	492c      	ldr	r1, [pc, #176]	; (800286c <SD_ReadMultiBlocksFIXED+0xd0>)
 80027ba:	62ca      	str	r2, [r1, #44]	; 0x2c

  if (CardType == SDIO_HIGH_CAPACITY_SD_CARD)
 80027bc:	4a2c      	ldr	r2, [pc, #176]	; (8002870 <SD_ReadMultiBlocksFIXED+0xd4>)
 80027be:	6812      	ldr	r2, [r2, #0]
 80027c0:	2a02      	cmp	r2, #2
    BlockSize = 512;
 80027c2:	bf0c      	ite	eq
 80027c4:	f44f 7700 	moveq.w	r7, #512	; 0x200
  else
    ReadAddr *= BlockSize; // Convert to Bytes for NON SDHC
 80027c8:	fb07 f808 	mulne.w	r8, r7, r8
  SDIO_CmdInitStructure.SDIO_Argument = (uint32_t) BlockSize;
  SDIO_CmdInitStructure.SDIO_CmdIndex = SD_CMD_SET_BLOCKLEN;
  SDIO_CmdInitStructure.SDIO_Response = SDIO_Response_Short;
  SDIO_CmdInitStructure.SDIO_Wait = SDIO_Wait_No;
  SDIO_CmdInitStructure.SDIO_CPSM = SDIO_CPSM_Enable;
  SDIO_SendCommand(&SDIO_CmdInitStructure);
 80027cc:	4620      	mov	r0, r4

  /*!< Set Block Size for Card */
  SDIO_CmdInitStructure.SDIO_Argument = (uint32_t) BlockSize;
  SDIO_CmdInitStructure.SDIO_CmdIndex = SD_CMD_SET_BLOCKLEN;
  SDIO_CmdInitStructure.SDIO_Response = SDIO_Response_Short;
  SDIO_CmdInitStructure.SDIO_Wait = SDIO_Wait_No;
 80027ce:	2200      	movs	r2, #0
  else
    ReadAddr *= BlockSize; // Convert to Bytes for NON SDHC

  /*!< Set Block Size for Card */
  SDIO_CmdInitStructure.SDIO_Argument = (uint32_t) BlockSize;
  SDIO_CmdInitStructure.SDIO_CmdIndex = SD_CMD_SET_BLOCKLEN;
 80027d0:	2510      	movs	r5, #16
  SDIO_CmdInitStructure.SDIO_Response = SDIO_Response_Short;
 80027d2:	f04f 0a40 	mov.w	sl, #64	; 0x40
  SDIO_CmdInitStructure.SDIO_Wait = SDIO_Wait_No;
  SDIO_CmdInitStructure.SDIO_CPSM = SDIO_CPSM_Enable;
 80027d6:	f44f 6980 	mov.w	r9, #1024	; 0x400
}

// FIXED Version where ReadAddr is in BLOCKS NOT BYTES, permits SDHC media >4GB

SD_Error SD_ReadMultiBlocksFIXED(uint8_t *readbuff, uint32_t ReadAddr, uint32_t BlockSize, uint32_t NumberOfBlocks)
{
 80027da:	469b      	mov	fp, r3

  /*!< Set Block Size for Card */
  SDIO_CmdInitStructure.SDIO_Argument = (uint32_t) BlockSize;
  SDIO_CmdInitStructure.SDIO_CmdIndex = SD_CMD_SET_BLOCKLEN;
  SDIO_CmdInitStructure.SDIO_Response = SDIO_Response_Short;
  SDIO_CmdInitStructure.SDIO_Wait = SDIO_Wait_No;
 80027dc:	60e2      	str	r2, [r4, #12]
    BlockSize = 512;
  else
    ReadAddr *= BlockSize; // Convert to Bytes for NON SDHC

  /*!< Set Block Size for Card */
  SDIO_CmdInitStructure.SDIO_Argument = (uint32_t) BlockSize;
 80027de:	6027      	str	r7, [r4, #0]
  SDIO_CmdInitStructure.SDIO_CmdIndex = SD_CMD_SET_BLOCKLEN;
 80027e0:	6065      	str	r5, [r4, #4]
  SDIO_CmdInitStructure.SDIO_Response = SDIO_Response_Short;
 80027e2:	f8c4 a008 	str.w	sl, [r4, #8]
  SDIO_CmdInitStructure.SDIO_Wait = SDIO_Wait_No;
  SDIO_CmdInitStructure.SDIO_CPSM = SDIO_CPSM_Enable;
 80027e6:	f8c4 9010 	str.w	r9, [r4, #16]
  SDIO_SendCommand(&SDIO_CmdInitStructure);
 80027ea:	f000 fbc1 	bl	8002f70 <SDIO_SendCommand>

  errorstatus = CmdResp1Error(SD_CMD_SET_BLOCKLEN);
 80027ee:	4628      	mov	r0, r5
 80027f0:	f7ff fae0 	bl	8001db4 <CmdResp1Error>

  if (SD_OK != errorstatus)
 80027f4:	4606      	mov	r6, r0
 80027f6:	bb70      	cbnz	r0, 8002856 <SD_ReadMultiBlocksFIXED+0xba>
  {
    return(errorstatus);
  }

  SDIO_DataInitStructure.SDIO_DataTimeOut = SD_DATATIMEOUT;
 80027f8:	481e      	ldr	r0, [pc, #120]	; (8002874 <SD_ReadMultiBlocksFIXED+0xd8>)
  SDIO_DataInitStructure.SDIO_DataLength = NumberOfBlocks * BlockSize;
  SDIO_DataInitStructure.SDIO_DataBlockSize = (uint32_t) 9 << 4;
 80027fa:	2390      	movs	r3, #144	; 0x90
  if (SD_OK != errorstatus)
  {
    return(errorstatus);
  }

  SDIO_DataInitStructure.SDIO_DataTimeOut = SD_DATATIMEOUT;
 80027fc:	f04f 32ff 	mov.w	r2, #4294967295
  SDIO_DataInitStructure.SDIO_DataLength = NumberOfBlocks * BlockSize;
  SDIO_DataInitStructure.SDIO_DataBlockSize = (uint32_t) 9 << 4;
 8002800:	6083      	str	r3, [r0, #8]
  {
    return(errorstatus);
  }

  SDIO_DataInitStructure.SDIO_DataTimeOut = SD_DATATIMEOUT;
  SDIO_DataInitStructure.SDIO_DataLength = NumberOfBlocks * BlockSize;
 8002802:	fb0b f707 	mul.w	r7, fp, r7
  SDIO_DataInitStructure.SDIO_DataBlockSize = (uint32_t) 9 << 4;
  SDIO_DataInitStructure.SDIO_TransferDir = SDIO_TransferDir_ToSDIO;
 8002806:	2302      	movs	r3, #2
  SDIO_DataInitStructure.SDIO_TransferMode = SDIO_TransferMode_Block;
  SDIO_DataInitStructure.SDIO_DPSM = SDIO_DPSM_Enable;
 8002808:	f04f 0b01 	mov.w	fp, #1
  if (SD_OK != errorstatus)
  {
    return(errorstatus);
  }

  SDIO_DataInitStructure.SDIO_DataTimeOut = SD_DATATIMEOUT;
 800280c:	6002      	str	r2, [r0, #0]
  SDIO_DataInitStructure.SDIO_DataLength = NumberOfBlocks * BlockSize;
  SDIO_DataInitStructure.SDIO_DataBlockSize = (uint32_t) 9 << 4;
  SDIO_DataInitStructure.SDIO_TransferDir = SDIO_TransferDir_ToSDIO;
 800280e:	60c3      	str	r3, [r0, #12]
  SDIO_DataInitStructure.SDIO_TransferMode = SDIO_TransferMode_Block;
 8002810:	6106      	str	r6, [r0, #16]
  {
    return(errorstatus);
  }

  SDIO_DataInitStructure.SDIO_DataTimeOut = SD_DATATIMEOUT;
  SDIO_DataInitStructure.SDIO_DataLength = NumberOfBlocks * BlockSize;
 8002812:	6047      	str	r7, [r0, #4]
  SDIO_DataInitStructure.SDIO_DataBlockSize = (uint32_t) 9 << 4;
  SDIO_DataInitStructure.SDIO_TransferDir = SDIO_TransferDir_ToSDIO;
  SDIO_DataInitStructure.SDIO_TransferMode = SDIO_TransferMode_Block;
  SDIO_DataInitStructure.SDIO_DPSM = SDIO_DPSM_Enable;
 8002814:	f8c0 b014 	str.w	fp, [r0, #20]
  SDIO_DataConfig(&SDIO_DataInitStructure);

  /*!< Send CMD18 READ_MULT_BLOCK with argument data address */
  SDIO_CmdInitStructure.SDIO_Argument = (uint32_t)ReadAddr;
  SDIO_CmdInitStructure.SDIO_CmdIndex = SD_CMD_READ_MULT_BLOCK;
 8002818:	2512      	movs	r5, #18
  SDIO_DataInitStructure.SDIO_DataLength = NumberOfBlocks * BlockSize;
  SDIO_DataInitStructure.SDIO_DataBlockSize = (uint32_t) 9 << 4;
  SDIO_DataInitStructure.SDIO_TransferDir = SDIO_TransferDir_ToSDIO;
  SDIO_DataInitStructure.SDIO_TransferMode = SDIO_TransferMode_Block;
  SDIO_DataInitStructure.SDIO_DPSM = SDIO_DPSM_Enable;
  SDIO_DataConfig(&SDIO_DataInitStructure);
 800281a:	f000 fbd1 	bl	8002fc0 <SDIO_DataConfig>
  SDIO_CmdInitStructure.SDIO_Argument = (uint32_t)ReadAddr;
  SDIO_CmdInitStructure.SDIO_CmdIndex = SD_CMD_READ_MULT_BLOCK;
  SDIO_CmdInitStructure.SDIO_Response = SDIO_Response_Short;
  SDIO_CmdInitStructure.SDIO_Wait = SDIO_Wait_No;
  SDIO_CmdInitStructure.SDIO_CPSM = SDIO_CPSM_Enable;
  SDIO_SendCommand(&SDIO_CmdInitStructure);
 800281e:	4620      	mov	r0, r4

  /*!< Send CMD18 READ_MULT_BLOCK with argument data address */
  SDIO_CmdInitStructure.SDIO_Argument = (uint32_t)ReadAddr;
  SDIO_CmdInitStructure.SDIO_CmdIndex = SD_CMD_READ_MULT_BLOCK;
  SDIO_CmdInitStructure.SDIO_Response = SDIO_Response_Short;
  SDIO_CmdInitStructure.SDIO_Wait = SDIO_Wait_No;
 8002820:	60e6      	str	r6, [r4, #12]
  SDIO_DataInitStructure.SDIO_TransferMode = SDIO_TransferMode_Block;
  SDIO_DataInitStructure.SDIO_DPSM = SDIO_DPSM_Enable;
  SDIO_DataConfig(&SDIO_DataInitStructure);

  /*!< Send CMD18 READ_MULT_BLOCK with argument data address */
  SDIO_CmdInitStructure.SDIO_Argument = (uint32_t)ReadAddr;
 8002822:	f8c4 8000 	str.w	r8, [r4]
  SDIO_CmdInitStructure.SDIO_CmdIndex = SD_CMD_READ_MULT_BLOCK;
 8002826:	6065      	str	r5, [r4, #4]
  SDIO_CmdInitStructure.SDIO_Response = SDIO_Response_Short;
 8002828:	f8c4 a008 	str.w	sl, [r4, #8]
  SDIO_CmdInitStructure.SDIO_Wait = SDIO_Wait_No;
  SDIO_CmdInitStructure.SDIO_CPSM = SDIO_CPSM_Enable;
 800282c:	f8c4 9010 	str.w	r9, [r4, #16]
  SDIO_SendCommand(&SDIO_CmdInitStructure);
 8002830:	f000 fb9e 	bl	8002f70 <SDIO_SendCommand>

  errorstatus = CmdResp1Error(SD_CMD_READ_MULT_BLOCK);
 8002834:	4628      	mov	r0, r5
 8002836:	f7ff fabd 	bl	8001db4 <CmdResp1Error>

  if (errorstatus != SD_OK)
 800283a:	4606      	mov	r6, r0
 800283c:	b958      	cbnz	r0, 8002856 <SD_ReadMultiBlocksFIXED+0xba>
  {
    return(errorstatus);
  }

  SDIO_ITConfig(SDIO_IT_DCRCFAIL | SDIO_IT_DTIMEOUT | SDIO_IT_DATAEND | SDIO_IT_RXOVERR | SDIO_IT_STBITERR, ENABLE);
 800283e:	4659      	mov	r1, fp
 8002840:	f240 302a 	movw	r0, #810	; 0x32a
 8002844:	f000 fbde 	bl	8003004 <SDIO_ITConfig>
  SDIO_DMACmd(ENABLE);
 8002848:	4658      	mov	r0, fp
 800284a:	f000 fbd5 	bl	8002ff8 <SDIO_DMACmd>
  SD_LowLevel_DMA_RxConfig((uint32_t *)readbuff, (NumberOfBlocks * BlockSize));
 800284e:	9801      	ldr	r0, [sp, #4]
 8002850:	4639      	mov	r1, r7
 8002852:	f7ff fa49 	bl	8001ce8 <SD_LowLevel_DMA_RxConfig>

  return(errorstatus);
}
 8002856:	4630      	mov	r0, r6
 8002858:	e8bd 8ffe 	ldmia.w	sp!, {r1, r2, r3, r4, r5, r6, r7, r8, r9, sl, fp, pc}
 800285c:	20000018 	.word	0x20000018
 8002860:	20000048 	.word	0x20000048
 8002864:	200004e8 	.word	0x200004e8
 8002868:	2000004c 	.word	0x2000004c
 800286c:	40012c00 	.word	0x40012c00
 8002870:	2000002c 	.word	0x2000002c
 8002874:	20000570 	.word	0x20000570

08002878 <SD_WriteMultiBlocksFIXED>:
}

// FIXED Version where WriteAddr is in BLOCKS NOT BYTES, permits SDHC media >4GB

SD_Error SD_WriteMultiBlocksFIXED(uint8_t *writebuff, uint32_t WriteAddr, uint32_t BlockSize, uint32_t NumberOfBlocks)
{
 8002878:	e92d 4ff7 	stmdb	sp!, {r0, r1, r2, r4, r5, r6, r7, r8, r9, sl, fp, lr}
 800287c:	4616      	mov	r6, r2
  SD_Error errorstatus = SD_OK;

  TransferError = SD_OK;
 800287e:	4a41      	ldr	r2, [pc, #260]	; (8002984 <SD_WriteMultiBlocksFIXED+0x10c>)
    BlockSize = 512;
  else
    WriteAddr *= BlockSize; // Convert to Bytes for NON SDHC

  /* Set Block Size for Card */
  SDIO_CmdInitStructure.SDIO_Argument = (uint32_t) BlockSize;
 8002880:	4c41      	ldr	r4, [pc, #260]	; (8002988 <SD_WriteMultiBlocksFIXED+0x110>)
}

// FIXED Version where WriteAddr is in BLOCKS NOT BYTES, permits SDHC media >4GB

SD_Error SD_WriteMultiBlocksFIXED(uint8_t *writebuff, uint32_t WriteAddr, uint32_t BlockSize, uint32_t NumberOfBlocks)
{
 8002882:	4699      	mov	r9, r3
  SD_Error errorstatus = SD_OK;

  TransferError = SD_OK;
 8002884:	2300      	movs	r3, #0
 8002886:	7013      	strb	r3, [r2, #0]
  TransferEnd = 0;
 8002888:	4a40      	ldr	r2, [pc, #256]	; (800298c <SD_WriteMultiBlocksFIXED+0x114>)
 800288a:	6013      	str	r3, [r2, #0]
  StopCondition = 1;
 800288c:	4a40      	ldr	r2, [pc, #256]	; (8002990 <SD_WriteMultiBlocksFIXED+0x118>)
}

// FIXED Version where WriteAddr is in BLOCKS NOT BYTES, permits SDHC media >4GB

SD_Error SD_WriteMultiBlocksFIXED(uint8_t *writebuff, uint32_t WriteAddr, uint32_t BlockSize, uint32_t NumberOfBlocks)
{
 800288e:	468b      	mov	fp, r1
  SD_Error errorstatus = SD_OK;

  TransferError = SD_OK;
  TransferEnd = 0;
  StopCondition = 1;
 8002890:	2101      	movs	r1, #1
 8002892:	6011      	str	r1, [r2, #0]

  SDIO->DCTRL = 0x0;
 8002894:	4a3f      	ldr	r2, [pc, #252]	; (8002994 <SD_WriteMultiBlocksFIXED+0x11c>)
 8002896:	62d3      	str	r3, [r2, #44]	; 0x2c

  if (CardType == SDIO_HIGH_CAPACITY_SD_CARD)
 8002898:	4b3f      	ldr	r3, [pc, #252]	; (8002998 <SD_WriteMultiBlocksFIXED+0x120>)
 800289a:	681b      	ldr	r3, [r3, #0]
 800289c:	2b02      	cmp	r3, #2
    BlockSize = 512;
 800289e:	bf0c      	ite	eq
 80028a0:	f44f 7600 	moveq.w	r6, #512	; 0x200
  else
    WriteAddr *= BlockSize; // Convert to Bytes for NON SDHC
 80028a4:	fb06 fb0b 	mulne.w	fp, r6, fp
}

// FIXED Version where WriteAddr is in BLOCKS NOT BYTES, permits SDHC media >4GB

SD_Error SD_WriteMultiBlocksFIXED(uint8_t *writebuff, uint32_t WriteAddr, uint32_t BlockSize, uint32_t NumberOfBlocks)
{
 80028a8:	4682      	mov	sl, r0
  else
    WriteAddr *= BlockSize; // Convert to Bytes for NON SDHC

  /* Set Block Size for Card */
  SDIO_CmdInitStructure.SDIO_Argument = (uint32_t) BlockSize;
  SDIO_CmdInitStructure.SDIO_CmdIndex = SD_CMD_SET_BLOCKLEN;
 80028aa:	2510      	movs	r5, #16
  SDIO_CmdInitStructure.SDIO_Response = SDIO_Response_Short;
  SDIO_CmdInitStructure.SDIO_Wait = SDIO_Wait_No;
 80028ac:	2300      	movs	r3, #0
  SDIO_CmdInitStructure.SDIO_CPSM = SDIO_CPSM_Enable;
  SDIO_SendCommand(&SDIO_CmdInitStructure);
 80028ae:	4620      	mov	r0, r4
    WriteAddr *= BlockSize; // Convert to Bytes for NON SDHC

  /* Set Block Size for Card */
  SDIO_CmdInitStructure.SDIO_Argument = (uint32_t) BlockSize;
  SDIO_CmdInitStructure.SDIO_CmdIndex = SD_CMD_SET_BLOCKLEN;
  SDIO_CmdInitStructure.SDIO_Response = SDIO_Response_Short;
 80028b0:	f04f 0840 	mov.w	r8, #64	; 0x40
  SDIO_CmdInitStructure.SDIO_Wait = SDIO_Wait_No;
  SDIO_CmdInitStructure.SDIO_CPSM = SDIO_CPSM_Enable;
 80028b4:	f44f 6780 	mov.w	r7, #1024	; 0x400
  else
    WriteAddr *= BlockSize; // Convert to Bytes for NON SDHC

  /* Set Block Size for Card */
  SDIO_CmdInitStructure.SDIO_Argument = (uint32_t) BlockSize;
  SDIO_CmdInitStructure.SDIO_CmdIndex = SD_CMD_SET_BLOCKLEN;
 80028b8:	6065      	str	r5, [r4, #4]
  SDIO_CmdInitStructure.SDIO_Response = SDIO_Response_Short;
  SDIO_CmdInitStructure.SDIO_Wait = SDIO_Wait_No;
 80028ba:	60e3      	str	r3, [r4, #12]
    BlockSize = 512;
  else
    WriteAddr *= BlockSize; // Convert to Bytes for NON SDHC

  /* Set Block Size for Card */
  SDIO_CmdInitStructure.SDIO_Argument = (uint32_t) BlockSize;
 80028bc:	6026      	str	r6, [r4, #0]
  SDIO_CmdInitStructure.SDIO_CmdIndex = SD_CMD_SET_BLOCKLEN;
  SDIO_CmdInitStructure.SDIO_Response = SDIO_Response_Short;
 80028be:	f8c4 8008 	str.w	r8, [r4, #8]
  SDIO_CmdInitStructure.SDIO_Wait = SDIO_Wait_No;
  SDIO_CmdInitStructure.SDIO_CPSM = SDIO_CPSM_Enable;
 80028c2:	6127      	str	r7, [r4, #16]
  SDIO_SendCommand(&SDIO_CmdInitStructure);
 80028c4:	f000 fb54 	bl	8002f70 <SDIO_SendCommand>

  errorstatus = CmdResp1Error(SD_CMD_SET_BLOCKLEN);
 80028c8:	4628      	mov	r0, r5
 80028ca:	f7ff fa73 	bl	8001db4 <CmdResp1Error>

  if (SD_OK != errorstatus)
 80028ce:	4605      	mov	r5, r0
 80028d0:	2800      	cmp	r0, #0
 80028d2:	d153      	bne.n	800297c <SD_WriteMultiBlocksFIXED+0x104>
  {
    return(errorstatus);
  }

  /*!< To improve performance */
  SDIO_CmdInitStructure.SDIO_Argument = (uint32_t) (RCA << 16);
 80028d4:	4b31      	ldr	r3, [pc, #196]	; (800299c <SD_WriteMultiBlocksFIXED+0x124>)
  SDIO_CmdInitStructure.SDIO_CmdIndex = SD_CMD_APP_CMD;
  SDIO_CmdInitStructure.SDIO_Response = SDIO_Response_Short;
  SDIO_CmdInitStructure.SDIO_Wait = SDIO_Wait_No;
 80028d6:	60e0      	str	r0, [r4, #12]
  {
    return(errorstatus);
  }

  /*!< To improve performance */
  SDIO_CmdInitStructure.SDIO_Argument = (uint32_t) (RCA << 16);
 80028d8:	681b      	ldr	r3, [r3, #0]
  SDIO_CmdInitStructure.SDIO_CmdIndex = SD_CMD_APP_CMD;
  SDIO_CmdInitStructure.SDIO_Response = SDIO_Response_Short;
 80028da:	f8c4 8008 	str.w	r8, [r4, #8]
  {
    return(errorstatus);
  }

  /*!< To improve performance */
  SDIO_CmdInitStructure.SDIO_Argument = (uint32_t) (RCA << 16);
 80028de:	041b      	lsls	r3, r3, #16
 80028e0:	6023      	str	r3, [r4, #0]
  SDIO_CmdInitStructure.SDIO_CmdIndex = SD_CMD_APP_CMD;
  SDIO_CmdInitStructure.SDIO_Response = SDIO_Response_Short;
  SDIO_CmdInitStructure.SDIO_Wait = SDIO_Wait_No;
  SDIO_CmdInitStructure.SDIO_CPSM = SDIO_CPSM_Enable;
  SDIO_SendCommand(&SDIO_CmdInitStructure);
 80028e2:	4620      	mov	r0, r4
    return(errorstatus);
  }

  /*!< To improve performance */
  SDIO_CmdInitStructure.SDIO_Argument = (uint32_t) (RCA << 16);
  SDIO_CmdInitStructure.SDIO_CmdIndex = SD_CMD_APP_CMD;
 80028e4:	2337      	movs	r3, #55	; 0x37
 80028e6:	6063      	str	r3, [r4, #4]
  SDIO_CmdInitStructure.SDIO_Response = SDIO_Response_Short;
  SDIO_CmdInitStructure.SDIO_Wait = SDIO_Wait_No;
  SDIO_CmdInitStructure.SDIO_CPSM = SDIO_CPSM_Enable;
  SDIO_SendCommand(&SDIO_CmdInitStructure);
 80028e8:	9301      	str	r3, [sp, #4]
  /*!< To improve performance */
  SDIO_CmdInitStructure.SDIO_Argument = (uint32_t) (RCA << 16);
  SDIO_CmdInitStructure.SDIO_CmdIndex = SD_CMD_APP_CMD;
  SDIO_CmdInitStructure.SDIO_Response = SDIO_Response_Short;
  SDIO_CmdInitStructure.SDIO_Wait = SDIO_Wait_No;
  SDIO_CmdInitStructure.SDIO_CPSM = SDIO_CPSM_Enable;
 80028ea:	6127      	str	r7, [r4, #16]
  SDIO_SendCommand(&SDIO_CmdInitStructure);
 80028ec:	f000 fb40 	bl	8002f70 <SDIO_SendCommand>


  errorstatus = CmdResp1Error(SD_CMD_APP_CMD);
 80028f0:	9b01      	ldr	r3, [sp, #4]
 80028f2:	4618      	mov	r0, r3
 80028f4:	f7ff fa5e 	bl	8001db4 <CmdResp1Error>

  if (errorstatus != SD_OK)
 80028f8:	4605      	mov	r5, r0
 80028fa:	2800      	cmp	r0, #0
 80028fc:	d13e      	bne.n	800297c <SD_WriteMultiBlocksFIXED+0x104>
  {
    return(errorstatus);
  }
  /*!< To improve performance */
  SDIO_CmdInitStructure.SDIO_Argument = (uint32_t)NumberOfBlocks;
  SDIO_CmdInitStructure.SDIO_CmdIndex = SD_CMD_SET_BLOCK_COUNT;
 80028fe:	2317      	movs	r3, #23
  SDIO_CmdInitStructure.SDIO_Response = SDIO_Response_Short;
  SDIO_CmdInitStructure.SDIO_Wait = SDIO_Wait_No;
 8002900:	60e0      	str	r0, [r4, #12]
  SDIO_CmdInitStructure.SDIO_CPSM = SDIO_CPSM_Enable;
  SDIO_SendCommand(&SDIO_CmdInitStructure);
 8002902:	4620      	mov	r0, r4
  {
    return(errorstatus);
  }
  /*!< To improve performance */
  SDIO_CmdInitStructure.SDIO_Argument = (uint32_t)NumberOfBlocks;
  SDIO_CmdInitStructure.SDIO_CmdIndex = SD_CMD_SET_BLOCK_COUNT;
 8002904:	6063      	str	r3, [r4, #4]
  SDIO_CmdInitStructure.SDIO_Response = SDIO_Response_Short;
  SDIO_CmdInitStructure.SDIO_Wait = SDIO_Wait_No;
  SDIO_CmdInitStructure.SDIO_CPSM = SDIO_CPSM_Enable;
  SDIO_SendCommand(&SDIO_CmdInitStructure);
 8002906:	9301      	str	r3, [sp, #4]
  if (errorstatus != SD_OK)
  {
    return(errorstatus);
  }
  /*!< To improve performance */
  SDIO_CmdInitStructure.SDIO_Argument = (uint32_t)NumberOfBlocks;
 8002908:	f8c4 9000 	str.w	r9, [r4]
  SDIO_CmdInitStructure.SDIO_CmdIndex = SD_CMD_SET_BLOCK_COUNT;
  SDIO_CmdInitStructure.SDIO_Response = SDIO_Response_Short;
 800290c:	f8c4 8008 	str.w	r8, [r4, #8]
  SDIO_CmdInitStructure.SDIO_Wait = SDIO_Wait_No;
  SDIO_CmdInitStructure.SDIO_CPSM = SDIO_CPSM_Enable;
 8002910:	6127      	str	r7, [r4, #16]
  SDIO_SendCommand(&SDIO_CmdInitStructure);
 8002912:	f000 fb2d 	bl	8002f70 <SDIO_SendCommand>

  errorstatus = CmdResp1Error(SD_CMD_SET_BLOCK_COUNT);
 8002916:	9b01      	ldr	r3, [sp, #4]
 8002918:	4618      	mov	r0, r3
 800291a:	f7ff fa4b 	bl	8001db4 <CmdResp1Error>

  if (errorstatus != SD_OK)
 800291e:	4605      	mov	r5, r0
 8002920:	bb60      	cbnz	r0, 800297c <SD_WriteMultiBlocksFIXED+0x104>
    return(errorstatus);
  }


  /*!< Send CMD25 WRITE_MULT_BLOCK with argument data address */
  SDIO_CmdInitStructure.SDIO_Argument = (uint32_t)WriteAddr;
 8002922:	f8c4 b000 	str.w	fp, [r4]
  SDIO_CmdInitStructure.SDIO_CmdIndex = SD_CMD_WRITE_MULT_BLOCK;
  SDIO_CmdInitStructure.SDIO_Response = SDIO_Response_Short;
  SDIO_CmdInitStructure.SDIO_Wait = SDIO_Wait_No;
 8002926:	60e0      	str	r0, [r4, #12]
  }


  /*!< Send CMD25 WRITE_MULT_BLOCK with argument data address */
  SDIO_CmdInitStructure.SDIO_Argument = (uint32_t)WriteAddr;
  SDIO_CmdInitStructure.SDIO_CmdIndex = SD_CMD_WRITE_MULT_BLOCK;
 8002928:	f04f 0b19 	mov.w	fp, #25
  SDIO_CmdInitStructure.SDIO_Response = SDIO_Response_Short;
  SDIO_CmdInitStructure.SDIO_Wait = SDIO_Wait_No;
  SDIO_CmdInitStructure.SDIO_CPSM = SDIO_CPSM_Enable;
  SDIO_SendCommand(&SDIO_CmdInitStructure);
 800292c:	4620      	mov	r0, r4
  }


  /*!< Send CMD25 WRITE_MULT_BLOCK with argument data address */
  SDIO_CmdInitStructure.SDIO_Argument = (uint32_t)WriteAddr;
  SDIO_CmdInitStructure.SDIO_CmdIndex = SD_CMD_WRITE_MULT_BLOCK;
 800292e:	f8c4 b004 	str.w	fp, [r4, #4]
  SDIO_CmdInitStructure.SDIO_Response = SDIO_Response_Short;
 8002932:	f8c4 8008 	str.w	r8, [r4, #8]
  SDIO_CmdInitStructure.SDIO_Wait = SDIO_Wait_No;
  SDIO_CmdInitStructure.SDIO_CPSM = SDIO_CPSM_Enable;
 8002936:	6127      	str	r7, [r4, #16]
  SDIO_SendCommand(&SDIO_CmdInitStructure);
 8002938:	f000 fb1a 	bl	8002f70 <SDIO_SendCommand>

  errorstatus = CmdResp1Error(SD_CMD_WRITE_MULT_BLOCK);
 800293c:	4658      	mov	r0, fp
 800293e:	f7ff fa39 	bl	8001db4 <CmdResp1Error>

  if (SD_OK != errorstatus)
 8002942:	4605      	mov	r5, r0
 8002944:	b9d0      	cbnz	r0, 800297c <SD_WriteMultiBlocksFIXED+0x104>
  {
    return(errorstatus);
  }

  SDIO_DataInitStructure.SDIO_DataTimeOut = SD_DATATIMEOUT;
 8002946:	4816      	ldr	r0, [pc, #88]	; (80029a0 <SD_WriteMultiBlocksFIXED+0x128>)
 8002948:	f04f 33ff 	mov.w	r3, #4294967295
 800294c:	6003      	str	r3, [r0, #0]
  SDIO_DataInitStructure.SDIO_DataLength = NumberOfBlocks * BlockSize;
  SDIO_DataInitStructure.SDIO_DataBlockSize = (uint32_t) 9 << 4;
  SDIO_DataInitStructure.SDIO_TransferDir = SDIO_TransferDir_ToCard;
  SDIO_DataInitStructure.SDIO_TransferMode = SDIO_TransferMode_Block;
  SDIO_DataInitStructure.SDIO_DPSM = SDIO_DPSM_Enable;
 800294e:	2701      	movs	r7, #1
    return(errorstatus);
  }

  SDIO_DataInitStructure.SDIO_DataTimeOut = SD_DATATIMEOUT;
  SDIO_DataInitStructure.SDIO_DataLength = NumberOfBlocks * BlockSize;
  SDIO_DataInitStructure.SDIO_DataBlockSize = (uint32_t) 9 << 4;
 8002950:	2390      	movs	r3, #144	; 0x90
  {
    return(errorstatus);
  }

  SDIO_DataInitStructure.SDIO_DataTimeOut = SD_DATATIMEOUT;
  SDIO_DataInitStructure.SDIO_DataLength = NumberOfBlocks * BlockSize;
 8002952:	fb09 f606 	mul.w	r6, r9, r6
  SDIO_DataInitStructure.SDIO_DataBlockSize = (uint32_t) 9 << 4;
 8002956:	6083      	str	r3, [r0, #8]
  {
    return(errorstatus);
  }

  SDIO_DataInitStructure.SDIO_DataTimeOut = SD_DATATIMEOUT;
  SDIO_DataInitStructure.SDIO_DataLength = NumberOfBlocks * BlockSize;
 8002958:	6046      	str	r6, [r0, #4]
  SDIO_DataInitStructure.SDIO_DataBlockSize = (uint32_t) 9 << 4;
  SDIO_DataInitStructure.SDIO_TransferDir = SDIO_TransferDir_ToCard;
 800295a:	60c5      	str	r5, [r0, #12]
  SDIO_DataInitStructure.SDIO_TransferMode = SDIO_TransferMode_Block;
 800295c:	6105      	str	r5, [r0, #16]
  SDIO_DataInitStructure.SDIO_DPSM = SDIO_DPSM_Enable;
 800295e:	6147      	str	r7, [r0, #20]
  SDIO_DataConfig(&SDIO_DataInitStructure);
 8002960:	f000 fb2e 	bl	8002fc0 <SDIO_DataConfig>

  SDIO_ITConfig(SDIO_IT_DCRCFAIL | SDIO_IT_DTIMEOUT | SDIO_IT_DATAEND | SDIO_IT_RXOVERR | SDIO_IT_STBITERR, ENABLE);
 8002964:	4639      	mov	r1, r7
 8002966:	f240 302a 	movw	r0, #810	; 0x32a
 800296a:	f000 fb4b 	bl	8003004 <SDIO_ITConfig>
  SDIO_DMACmd(ENABLE);
 800296e:	4638      	mov	r0, r7
 8002970:	f000 fb42 	bl	8002ff8 <SDIO_DMACmd>
  SD_LowLevel_DMA_TxConfig((uint32_t *)writebuff, (NumberOfBlocks * BlockSize));
 8002974:	4650      	mov	r0, sl
 8002976:	4631      	mov	r1, r6
 8002978:	f7ff f96c 	bl	8001c54 <SD_LowLevel_DMA_TxConfig>

  return(errorstatus);
}
 800297c:	4628      	mov	r0, r5
 800297e:	e8bd 8ffe 	ldmia.w	sp!, {r1, r2, r3, r4, r5, r6, r7, r8, r9, sl, fp, pc}
 8002982:	bf00      	nop
 8002984:	20000018 	.word	0x20000018
 8002988:	200004e8 	.word	0x200004e8
 800298c:	20000048 	.word	0x20000048
 8002990:	2000004c 	.word	0x2000004c
 8002994:	40012c00 	.word	0x40012c00
 8002998:	2000002c 	.word	0x2000002c
 800299c:	20000044 	.word	0x20000044
 80029a0:	20000570 	.word	0x20000570

080029a4 <SD_StopTransfer>:
SD_Error SD_StopTransfer(void)
{
  SD_Error errorstatus = SD_OK;

  /*!< Send CMD12 STOP_TRANSMISSION  */
  SDIO_CmdInitStructure.SDIO_Argument = 0x0;
 80029a4:	4809      	ldr	r0, [pc, #36]	; (80029cc <SD_StopTransfer+0x28>)
  * @brief  Aborts an ongoing data transfer.
  * @param  None
  * @retval SD_Error: SD Card Error code.
  */
SD_Error SD_StopTransfer(void)
{
 80029a6:	b510      	push	{r4, lr}
  SD_Error errorstatus = SD_OK;

  /*!< Send CMD12 STOP_TRANSMISSION  */
  SDIO_CmdInitStructure.SDIO_Argument = 0x0;
  SDIO_CmdInitStructure.SDIO_CmdIndex = SD_CMD_STOP_TRANSMISSION;
 80029a8:	2200      	movs	r2, #0
 80029aa:	240c      	movs	r4, #12
 80029ac:	e880 0014 	stmia.w	r0, {r2, r4}
  SDIO_CmdInitStructure.SDIO_Response = SDIO_Response_Short;
 80029b0:	2140      	movs	r1, #64	; 0x40
  SDIO_CmdInitStructure.SDIO_Wait = SDIO_Wait_No;
 80029b2:	60c2      	str	r2, [r0, #12]
  SDIO_CmdInitStructure.SDIO_CPSM = SDIO_CPSM_Enable;
 80029b4:	f44f 6280 	mov.w	r2, #1024	; 0x400
  SD_Error errorstatus = SD_OK;

  /*!< Send CMD12 STOP_TRANSMISSION  */
  SDIO_CmdInitStructure.SDIO_Argument = 0x0;
  SDIO_CmdInitStructure.SDIO_CmdIndex = SD_CMD_STOP_TRANSMISSION;
  SDIO_CmdInitStructure.SDIO_Response = SDIO_Response_Short;
 80029b8:	6081      	str	r1, [r0, #8]
  SDIO_CmdInitStructure.SDIO_Wait = SDIO_Wait_No;
  SDIO_CmdInitStructure.SDIO_CPSM = SDIO_CPSM_Enable;
 80029ba:	6102      	str	r2, [r0, #16]
  SDIO_SendCommand(&SDIO_CmdInitStructure);
 80029bc:	f000 fad8 	bl	8002f70 <SDIO_SendCommand>

  errorstatus = CmdResp1Error(SD_CMD_STOP_TRANSMISSION);
 80029c0:	4620      	mov	r0, r4

  return(errorstatus);
}
 80029c2:	e8bd 4010 	ldmia.w	sp!, {r4, lr}
  SDIO_CmdInitStructure.SDIO_Response = SDIO_Response_Short;
  SDIO_CmdInitStructure.SDIO_Wait = SDIO_Wait_No;
  SDIO_CmdInitStructure.SDIO_CPSM = SDIO_CPSM_Enable;
  SDIO_SendCommand(&SDIO_CmdInitStructure);

  errorstatus = CmdResp1Error(SD_CMD_STOP_TRANSMISSION);
 80029c6:	f7ff b9f5 	b.w	8001db4 <CmdResp1Error>
 80029ca:	bf00      	nop
 80029cc:	200004e8 	.word	0x200004e8

080029d0 <SD_WaitWriteOperation>:
  *         card are already transferred by the DMA controller.
  * @param  None.
  * @retval SD_Error: SD Card Error code.
  */
SD_Error SD_WaitWriteOperation(void)
{
 80029d0:	b538      	push	{r3, r4, r5, lr}
  SD_Error errorstatus = SD_OK;
  uint32_t timeout;

  timeout = SD_DATATIMEOUT;

  while ((DMAEndOfTransfer == 0x00) && (TransferEnd == 0) && (TransferError == SD_OK) && (timeout > 0))
 80029d2:	4a1a      	ldr	r2, [pc, #104]	; (8002a3c <SD_WaitWriteOperation+0x6c>)
 80029d4:	491a      	ldr	r1, [pc, #104]	; (8002a40 <SD_WaitWriteOperation+0x70>)
 80029d6:	481b      	ldr	r0, [pc, #108]	; (8002a44 <SD_WaitWriteOperation+0x74>)
SD_Error SD_WaitWriteOperation(void)
{
  SD_Error errorstatus = SD_OK;
  uint32_t timeout;

  timeout = SD_DATATIMEOUT;
 80029d8:	f04f 33ff 	mov.w	r3, #4294967295

  while ((DMAEndOfTransfer == 0x00) && (TransferEnd == 0) && (TransferError == SD_OK) && (timeout > 0))
 80029dc:	e000      	b.n	80029e0 <SD_WaitWriteOperation+0x10>
  {
    timeout--;
 80029de:	3b01      	subs	r3, #1
  SD_Error errorstatus = SD_OK;
  uint32_t timeout;

  timeout = SD_DATATIMEOUT;

  while ((DMAEndOfTransfer == 0x00) && (TransferEnd == 0) && (TransferError == SD_OK) && (timeout > 0))
 80029e0:	6814      	ldr	r4, [r2, #0]
 80029e2:	b92c      	cbnz	r4, 80029f0 <SD_WaitWriteOperation+0x20>
 80029e4:	680c      	ldr	r4, [r1, #0]
 80029e6:	b91c      	cbnz	r4, 80029f0 <SD_WaitWriteOperation+0x20>
 80029e8:	7804      	ldrb	r4, [r0, #0]
 80029ea:	b90c      	cbnz	r4, 80029f0 <SD_WaitWriteOperation+0x20>
 80029ec:	2b00      	cmp	r3, #0
 80029ee:	d1f6      	bne.n	80029de <SD_WaitWriteOperation+0xe>
  {
    timeout--;
  }

  DMAEndOfTransfer = 0x00;
 80029f0:	4b12      	ldr	r3, [pc, #72]	; (8002a3c <SD_WaitWriteOperation+0x6c>)
 80029f2:	2200      	movs	r2, #0
 80029f4:	601a      	str	r2, [r3, #0]

  timeout = SD_DATATIMEOUT;
 80029f6:	f04f 35ff 	mov.w	r5, #4294967295

  while(((SDIO->STA & SDIO_FLAG_TXACT)) && (timeout > 0))
 80029fa:	4b13      	ldr	r3, [pc, #76]	; (8002a48 <SD_WaitWriteOperation+0x78>)
 80029fc:	e000      	b.n	8002a00 <SD_WaitWriteOperation+0x30>
  {
    timeout--;
 80029fe:	3d01      	subs	r5, #1

  DMAEndOfTransfer = 0x00;

  timeout = SD_DATATIMEOUT;

  while(((SDIO->STA & SDIO_FLAG_TXACT)) && (timeout > 0))
 8002a00:	6b5a      	ldr	r2, [r3, #52]	; 0x34
 8002a02:	04d2      	lsls	r2, r2, #19
 8002a04:	d501      	bpl.n	8002a0a <SD_WaitWriteOperation+0x3a>
 8002a06:	2d00      	cmp	r5, #0
 8002a08:	d1f9      	bne.n	80029fe <SD_WaitWriteOperation+0x2e>
  {
    timeout--;
  }

  if (StopCondition == 1)
 8002a0a:	4b10      	ldr	r3, [pc, #64]	; (8002a4c <SD_WaitWriteOperation+0x7c>)
 8002a0c:	681b      	ldr	r3, [r3, #0]
 8002a0e:	2b01      	cmp	r3, #1
 8002a10:	d10e      	bne.n	8002a30 <SD_WaitWriteOperation+0x60>
  {
    errorstatus = SD_StopTransfer();
 8002a12:	f7ff ffc7 	bl	80029a4 <SD_StopTransfer>
 8002a16:	4604      	mov	r4, r0
  }

  if ((timeout == 0) && (errorstatus == SD_OK))
 8002a18:	b90d      	cbnz	r5, 8002a1e <SD_WaitWriteOperation+0x4e>
 8002a1a:	b900      	cbnz	r0, 8002a1e <SD_WaitWriteOperation+0x4e>
  {
    errorstatus = SD_DATA_TIMEOUT;
 8002a1c:	2404      	movs	r4, #4
  }

  /*!< Clear all the static flags */
  SDIO_ClearFlag(SDIO_STATIC_FLAGS);
 8002a1e:	f240 50ff 	movw	r0, #1535	; 0x5ff
 8002a22:	f000 fb05 	bl	8003030 <SDIO_ClearFlag>

  if (TransferError != SD_OK)
 8002a26:	4b07      	ldr	r3, [pc, #28]	; (8002a44 <SD_WaitWriteOperation+0x74>)
 8002a28:	781a      	ldrb	r2, [r3, #0]
 8002a2a:	b12a      	cbz	r2, 8002a38 <SD_WaitWriteOperation+0x68>
  {
    return(TransferError);
 8002a2c:	781c      	ldrb	r4, [r3, #0]
 8002a2e:	e003      	b.n	8002a38 <SD_WaitWriteOperation+0x68>
  if (StopCondition == 1)
  {
    errorstatus = SD_StopTransfer();
  }

  if ((timeout == 0) && (errorstatus == SD_OK))
 8002a30:	2d00      	cmp	r5, #0
 8002a32:	d0f3      	beq.n	8002a1c <SD_WaitWriteOperation+0x4c>
  * @param  None.
  * @retval SD_Error: SD Card Error code.
  */
SD_Error SD_WaitWriteOperation(void)
{
  SD_Error errorstatus = SD_OK;
 8002a34:	2400      	movs	r4, #0
 8002a36:	e7f2      	b.n	8002a1e <SD_WaitWriteOperation+0x4e>
  }
  else
  {
    return(errorstatus);
  }
}
 8002a38:	4620      	mov	r0, r4
 8002a3a:	bd38      	pop	{r3, r4, r5, pc}
 8002a3c:	20000040 	.word	0x20000040
 8002a40:	20000048 	.word	0x20000048
 8002a44:	20000018 	.word	0x20000018
 8002a48:	40012c00 	.word	0x40012c00
 8002a4c:	2000004c 	.word	0x2000004c

08002a50 <SD_WaitReadOperation>:
  *         the DMA controller.
  * @param  None.
  * @retval SD_Error: SD Card Error code.
  */
SD_Error SD_WaitReadOperation(void)
{
 8002a50:	b538      	push	{r3, r4, r5, lr}
  SD_Error errorstatus = SD_OK;
  uint32_t timeout;

  timeout = SD_DATATIMEOUT;

  while ((DMAEndOfTransfer == 0x00) && (TransferEnd == 0) && (TransferError == SD_OK) && (timeout > 0))
 8002a52:	4a1a      	ldr	r2, [pc, #104]	; (8002abc <SD_WaitReadOperation+0x6c>)
 8002a54:	491a      	ldr	r1, [pc, #104]	; (8002ac0 <SD_WaitReadOperation+0x70>)
 8002a56:	481b      	ldr	r0, [pc, #108]	; (8002ac4 <SD_WaitReadOperation+0x74>)
SD_Error SD_WaitReadOperation(void)
{
  SD_Error errorstatus = SD_OK;
  uint32_t timeout;

  timeout = SD_DATATIMEOUT;
 8002a58:	f04f 33ff 	mov.w	r3, #4294967295

  while ((DMAEndOfTransfer == 0x00) && (TransferEnd == 0) && (TransferError == SD_OK) && (timeout > 0))
 8002a5c:	e000      	b.n	8002a60 <SD_WaitReadOperation+0x10>
  {
    timeout--;
 8002a5e:	3b01      	subs	r3, #1
  SD_Error errorstatus = SD_OK;
  uint32_t timeout;

  timeout = SD_DATATIMEOUT;

  while ((DMAEndOfTransfer == 0x00) && (TransferEnd == 0) && (TransferError == SD_OK) && (timeout > 0))
 8002a60:	6814      	ldr	r4, [r2, #0]
 8002a62:	b92c      	cbnz	r4, 8002a70 <SD_WaitReadOperation+0x20>
 8002a64:	680c      	ldr	r4, [r1, #0]
 8002a66:	b91c      	cbnz	r4, 8002a70 <SD_WaitReadOperation+0x20>
 8002a68:	7804      	ldrb	r4, [r0, #0]
 8002a6a:	b90c      	cbnz	r4, 8002a70 <SD_WaitReadOperation+0x20>
 8002a6c:	2b00      	cmp	r3, #0
 8002a6e:	d1f6      	bne.n	8002a5e <SD_WaitReadOperation+0xe>
  {
    timeout--;
  }

  DMAEndOfTransfer = 0x00;
 8002a70:	4b12      	ldr	r3, [pc, #72]	; (8002abc <SD_WaitReadOperation+0x6c>)
 8002a72:	2200      	movs	r2, #0
 8002a74:	601a      	str	r2, [r3, #0]

  timeout = SD_DATATIMEOUT;
 8002a76:	f04f 35ff 	mov.w	r5, #4294967295

  while(((SDIO->STA & SDIO_FLAG_RXACT)) && (timeout > 0))
 8002a7a:	4b13      	ldr	r3, [pc, #76]	; (8002ac8 <SD_WaitReadOperation+0x78>)
 8002a7c:	e000      	b.n	8002a80 <SD_WaitReadOperation+0x30>
  {
    timeout--;
 8002a7e:	3d01      	subs	r5, #1

  DMAEndOfTransfer = 0x00;

  timeout = SD_DATATIMEOUT;

  while(((SDIO->STA & SDIO_FLAG_RXACT)) && (timeout > 0))
 8002a80:	6b5a      	ldr	r2, [r3, #52]	; 0x34
 8002a82:	0491      	lsls	r1, r2, #18
 8002a84:	d501      	bpl.n	8002a8a <SD_WaitReadOperation+0x3a>
 8002a86:	2d00      	cmp	r5, #0
 8002a88:	d1f9      	bne.n	8002a7e <SD_WaitReadOperation+0x2e>
  {
    timeout--;
  }

  if (StopCondition == 1)
 8002a8a:	4b10      	ldr	r3, [pc, #64]	; (8002acc <SD_WaitReadOperation+0x7c>)
 8002a8c:	681b      	ldr	r3, [r3, #0]
 8002a8e:	2b01      	cmp	r3, #1
 8002a90:	d10e      	bne.n	8002ab0 <SD_WaitReadOperation+0x60>
  {
    errorstatus = SD_StopTransfer();
 8002a92:	f7ff ff87 	bl	80029a4 <SD_StopTransfer>
 8002a96:	4604      	mov	r4, r0
  }

  if ((timeout == 0) && (errorstatus == SD_OK))
 8002a98:	b90d      	cbnz	r5, 8002a9e <SD_WaitReadOperation+0x4e>
 8002a9a:	b900      	cbnz	r0, 8002a9e <SD_WaitReadOperation+0x4e>
  {
    errorstatus = SD_DATA_TIMEOUT;
 8002a9c:	2404      	movs	r4, #4
  }

  /*!< Clear all the static flags */
  SDIO_ClearFlag(SDIO_STATIC_FLAGS);
 8002a9e:	f240 50ff 	movw	r0, #1535	; 0x5ff
 8002aa2:	f000 fac5 	bl	8003030 <SDIO_ClearFlag>

  if (TransferError != SD_OK)
 8002aa6:	4b07      	ldr	r3, [pc, #28]	; (8002ac4 <SD_WaitReadOperation+0x74>)
 8002aa8:	781a      	ldrb	r2, [r3, #0]
 8002aaa:	b12a      	cbz	r2, 8002ab8 <SD_WaitReadOperation+0x68>
  {
    return(TransferError);
 8002aac:	781c      	ldrb	r4, [r3, #0]
 8002aae:	e003      	b.n	8002ab8 <SD_WaitReadOperation+0x68>
  if (StopCondition == 1)
  {
    errorstatus = SD_StopTransfer();
  }

  if ((timeout == 0) && (errorstatus == SD_OK))
 8002ab0:	2d00      	cmp	r5, #0
 8002ab2:	d0f3      	beq.n	8002a9c <SD_WaitReadOperation+0x4c>
  * @param  None.
  * @retval SD_Error: SD Card Error code.
  */
SD_Error SD_WaitReadOperation(void)
{
  SD_Error errorstatus = SD_OK;
 8002ab4:	2400      	movs	r4, #0
 8002ab6:	e7f2      	b.n	8002a9e <SD_WaitReadOperation+0x4e>
  }
  else
  {
    return(errorstatus);
  }
}
 8002ab8:	4620      	mov	r0, r4
 8002aba:	bd38      	pop	{r3, r4, r5, pc}
 8002abc:	20000040 	.word	0x20000040
 8002ac0:	20000048 	.word	0x20000048
 8002ac4:	20000018 	.word	0x20000018
 8002ac8:	40012c00 	.word	0x40012c00
 8002acc:	2000004c 	.word	0x2000004c

08002ad0 <SD_SendStatus>:
  * @param  pcardstatus: pointer to the buffer that will contain the SD card
  *         status (Card Status register).
  * @retval SD_Error: SD Card Error code.
  */
SD_Error SD_SendStatus(uint32_t *pcardstatus)
{
 8002ad0:	b538      	push	{r3, r4, r5, lr}
  SD_Error errorstatus = SD_OK;

  if (pcardstatus == NULL)
 8002ad2:	4604      	mov	r4, r0
 8002ad4:	b1c0      	cbz	r0, 8002b08 <SD_SendStatus+0x38>
  {
    errorstatus = SD_INVALID_PARAMETER;
    return(errorstatus);
  }

  SDIO_CmdInitStructure.SDIO_Argument = (uint32_t) RCA << 16;
 8002ad6:	4a0e      	ldr	r2, [pc, #56]	; (8002b10 <SD_SendStatus+0x40>)
 8002ad8:	480e      	ldr	r0, [pc, #56]	; (8002b14 <SD_SendStatus+0x44>)
 8002ada:	6812      	ldr	r2, [r2, #0]
 8002adc:	0412      	lsls	r2, r2, #16
 8002ade:	6002      	str	r2, [r0, #0]
  SDIO_CmdInitStructure.SDIO_CmdIndex = SD_CMD_SEND_STATUS;
  SDIO_CmdInitStructure.SDIO_Response = SDIO_Response_Short;
 8002ae0:	2240      	movs	r2, #64	; 0x40
 8002ae2:	6082      	str	r2, [r0, #8]
  SDIO_CmdInitStructure.SDIO_Wait = SDIO_Wait_No;
 8002ae4:	2200      	movs	r2, #0
    errorstatus = SD_INVALID_PARAMETER;
    return(errorstatus);
  }

  SDIO_CmdInitStructure.SDIO_Argument = (uint32_t) RCA << 16;
  SDIO_CmdInitStructure.SDIO_CmdIndex = SD_CMD_SEND_STATUS;
 8002ae6:	250d      	movs	r5, #13
  SDIO_CmdInitStructure.SDIO_Response = SDIO_Response_Short;
  SDIO_CmdInitStructure.SDIO_Wait = SDIO_Wait_No;
 8002ae8:	60c2      	str	r2, [r0, #12]
  SDIO_CmdInitStructure.SDIO_CPSM = SDIO_CPSM_Enable;
 8002aea:	f44f 6280 	mov.w	r2, #1024	; 0x400
    errorstatus = SD_INVALID_PARAMETER;
    return(errorstatus);
  }

  SDIO_CmdInitStructure.SDIO_Argument = (uint32_t) RCA << 16;
  SDIO_CmdInitStructure.SDIO_CmdIndex = SD_CMD_SEND_STATUS;
 8002aee:	6045      	str	r5, [r0, #4]
  SDIO_CmdInitStructure.SDIO_Response = SDIO_Response_Short;
  SDIO_CmdInitStructure.SDIO_Wait = SDIO_Wait_No;
  SDIO_CmdInitStructure.SDIO_CPSM = SDIO_CPSM_Enable;
 8002af0:	6102      	str	r2, [r0, #16]
  SDIO_SendCommand(&SDIO_CmdInitStructure);
 8002af2:	f000 fa3d 	bl	8002f70 <SDIO_SendCommand>

  errorstatus = CmdResp1Error(SD_CMD_SEND_STATUS);
 8002af6:	4628      	mov	r0, r5
 8002af8:	f7ff f95c 	bl	8001db4 <CmdResp1Error>

  if (errorstatus != SD_OK)
 8002afc:	4605      	mov	r5, r0
 8002afe:	b920      	cbnz	r0, 8002b0a <SD_SendStatus+0x3a>
  {
    return(errorstatus);
  }

  *pcardstatus = SDIO_GetResponse(SDIO_RESP1);
 8002b00:	f000 fa52 	bl	8002fa8 <SDIO_GetResponse>
 8002b04:	6020      	str	r0, [r4, #0]

  return(errorstatus);
 8002b06:	e000      	b.n	8002b0a <SD_SendStatus+0x3a>
  SD_Error errorstatus = SD_OK;

  if (pcardstatus == NULL)
  {
    errorstatus = SD_INVALID_PARAMETER;
    return(errorstatus);
 8002b08:	2526      	movs	r5, #38	; 0x26
  }

  *pcardstatus = SDIO_GetResponse(SDIO_RESP1);

  return(errorstatus);
}
 8002b0a:	4628      	mov	r0, r5
 8002b0c:	bd38      	pop	{r3, r4, r5, pc}
 8002b0e:	bf00      	nop
 8002b10:	20000044 	.word	0x20000044
 8002b14:	200004e8 	.word	0x200004e8

08002b18 <SD_GetState>:
  * @brief  Returns the current card's state.
  * @param  None
  * @retval SDCardState: SD Card Error or SD Card Current State.
  */
SDCardState SD_GetState(void)
{
 8002b18:	b507      	push	{r0, r1, r2, lr}
  uint32_t resp1 = 0;
 8002b1a:	2300      	movs	r3, #0
 8002b1c:	9301      	str	r3, [sp, #4]

  if(SD_Detect()== SD_PRESENT)
 8002b1e:	f7ff fab5 	bl	800208c <SD_Detect>
 8002b22:	2801      	cmp	r0, #1
 8002b24:	d001      	beq.n	8002b2a <SD_GetState+0x12>
      return (SDCardState)((resp1 >> 9) & 0x0F);
    }
  }
  else
  {
    return SD_CARD_ERROR;
 8002b26:	20ff      	movs	r0, #255	; 0xff
 8002b28:	e007      	b.n	8002b3a <SD_GetState+0x22>
{
  uint32_t resp1 = 0;

  if(SD_Detect()== SD_PRESENT)
  {
    if (SD_SendStatus(&resp1) != SD_OK)
 8002b2a:	a801      	add	r0, sp, #4
 8002b2c:	f7ff ffd0 	bl	8002ad0 <SD_SendStatus>
 8002b30:	2800      	cmp	r0, #0
 8002b32:	d1f8      	bne.n	8002b26 <SD_GetState+0xe>
    {
      return SD_CARD_ERROR;
    }
    else
    {
      return (SDCardState)((resp1 >> 9) & 0x0F);
 8002b34:	9801      	ldr	r0, [sp, #4]
 8002b36:	f3c0 2043 	ubfx	r0, r0, #9, #4
  }
  else
  {
    return SD_CARD_ERROR;
  }
}
 8002b3a:	bd0e      	pop	{r1, r2, r3, pc}

08002b3c <SD_GetStatus>:
  *   This value can be:
  *        - SD_TRANSFER_OK: No data transfer is acting
  *        - SD_TRANSFER_BUSY: Data transfer is acting
  */
SDTransferState SD_GetStatus(void)
{
 8002b3c:	b508      	push	{r3, lr}
  SDCardState cardstate =  SD_CARD_TRANSFER;

  cardstate = SD_GetState();
 8002b3e:	f7ff ffeb 	bl	8002b18 <SD_GetState>

  if (cardstate == SD_CARD_TRANSFER)
 8002b42:	2804      	cmp	r0, #4
 8002b44:	d004      	beq.n	8002b50 <SD_GetStatus+0x14>
  {
    return(SD_TRANSFER_OK);
  }
  else if(cardstate == SD_CARD_ERROR)
  {
    return (SD_TRANSFER_ERROR);
 8002b46:	28ff      	cmp	r0, #255	; 0xff
 8002b48:	bf14      	ite	ne
 8002b4a:	2001      	movne	r0, #1
 8002b4c:	2002      	moveq	r0, #2
 8002b4e:	bd08      	pop	{r3, pc}

  cardstate = SD_GetState();

  if (cardstate == SD_CARD_TRANSFER)
  {
    return(SD_TRANSFER_OK);
 8002b50:	2000      	movs	r0, #0
  }
  else
  {
    return(SD_TRANSFER_BUSY);
  }
}
 8002b52:	bd08      	pop	{r3, pc}

08002b54 <SD_ProcessIRQSrc>:
  * @brief  Allows to process all the interrupts that are high.
  * @param  None
  * @retval SD_Error: SD Card Error code.
  */
SD_Error SD_ProcessIRQSrc(void)
{
 8002b54:	b510      	push	{r4, lr}
  if (SDIO_GetITStatus(SDIO_IT_DATAEND) != RESET)
 8002b56:	f44f 7080 	mov.w	r0, #256	; 0x100
 8002b5a:	f000 fa6f 	bl	800303c <SDIO_GetITStatus>
 8002b5e:	4c21      	ldr	r4, [pc, #132]	; (8002be4 <SD_ProcessIRQSrc+0x90>)
 8002b60:	b148      	cbz	r0, 8002b76 <SD_ProcessIRQSrc+0x22>
  {
    TransferError = SD_OK;
 8002b62:	2300      	movs	r3, #0
    SDIO_ClearITPendingBit(SDIO_IT_DATAEND);
 8002b64:	f44f 7080 	mov.w	r0, #256	; 0x100
  */
SD_Error SD_ProcessIRQSrc(void)
{
  if (SDIO_GetITStatus(SDIO_IT_DATAEND) != RESET)
  {
    TransferError = SD_OK;
 8002b68:	7023      	strb	r3, [r4, #0]
    SDIO_ClearITPendingBit(SDIO_IT_DATAEND);
 8002b6a:	f000 fa71 	bl	8003050 <SDIO_ClearITPendingBit>
    TransferEnd = 1;
 8002b6e:	4b1e      	ldr	r3, [pc, #120]	; (8002be8 <SD_ProcessIRQSrc+0x94>)
 8002b70:	2201      	movs	r2, #1
 8002b72:	601a      	str	r2, [r3, #0]
 8002b74:	e02e      	b.n	8002bd4 <SD_ProcessIRQSrc+0x80>
  }
  else if (SDIO_GetITStatus(SDIO_IT_DCRCFAIL) != RESET)
 8002b76:	2002      	movs	r0, #2
 8002b78:	f000 fa60 	bl	800303c <SDIO_GetITStatus>
 8002b7c:	b120      	cbz	r0, 8002b88 <SD_ProcessIRQSrc+0x34>
  {
    SDIO_ClearITPendingBit(SDIO_IT_DCRCFAIL);
 8002b7e:	2002      	movs	r0, #2
 8002b80:	f000 fa66 	bl	8003050 <SDIO_ClearITPendingBit>
    TransferError = SD_DATA_CRC_FAIL;
 8002b84:	2302      	movs	r3, #2
 8002b86:	e024      	b.n	8002bd2 <SD_ProcessIRQSrc+0x7e>
  }
  else if (SDIO_GetITStatus(SDIO_IT_DTIMEOUT) != RESET)
 8002b88:	2008      	movs	r0, #8
 8002b8a:	f000 fa57 	bl	800303c <SDIO_GetITStatus>
 8002b8e:	b120      	cbz	r0, 8002b9a <SD_ProcessIRQSrc+0x46>
  {
    SDIO_ClearITPendingBit(SDIO_IT_DTIMEOUT);
 8002b90:	2008      	movs	r0, #8
 8002b92:	f000 fa5d 	bl	8003050 <SDIO_ClearITPendingBit>
    TransferError = SD_DATA_TIMEOUT;
 8002b96:	2304      	movs	r3, #4
 8002b98:	e01b      	b.n	8002bd2 <SD_ProcessIRQSrc+0x7e>
  }
  else if (SDIO_GetITStatus(SDIO_IT_RXOVERR) != RESET)
 8002b9a:	2020      	movs	r0, #32
 8002b9c:	f000 fa4e 	bl	800303c <SDIO_GetITStatus>
 8002ba0:	b120      	cbz	r0, 8002bac <SD_ProcessIRQSrc+0x58>
  {
    SDIO_ClearITPendingBit(SDIO_IT_RXOVERR);
 8002ba2:	2020      	movs	r0, #32
 8002ba4:	f000 fa54 	bl	8003050 <SDIO_ClearITPendingBit>
    TransferError = SD_RX_OVERRUN;
 8002ba8:	2306      	movs	r3, #6
 8002baa:	e012      	b.n	8002bd2 <SD_ProcessIRQSrc+0x7e>
  }
  else if (SDIO_GetITStatus(SDIO_IT_TXUNDERR) != RESET)
 8002bac:	2010      	movs	r0, #16
 8002bae:	f000 fa45 	bl	800303c <SDIO_GetITStatus>
 8002bb2:	b120      	cbz	r0, 8002bbe <SD_ProcessIRQSrc+0x6a>
  {
    SDIO_ClearITPendingBit(SDIO_IT_TXUNDERR);
 8002bb4:	2010      	movs	r0, #16
 8002bb6:	f000 fa4b 	bl	8003050 <SDIO_ClearITPendingBit>
    TransferError = SD_TX_UNDERRUN;
 8002bba:	2305      	movs	r3, #5
 8002bbc:	e009      	b.n	8002bd2 <SD_ProcessIRQSrc+0x7e>
  }
  else if (SDIO_GetITStatus(SDIO_IT_STBITERR) != RESET)
 8002bbe:	f44f 7000 	mov.w	r0, #512	; 0x200
 8002bc2:	f000 fa3b 	bl	800303c <SDIO_GetITStatus>
 8002bc6:	b128      	cbz	r0, 8002bd4 <SD_ProcessIRQSrc+0x80>
  {
    SDIO_ClearITPendingBit(SDIO_IT_STBITERR);
 8002bc8:	f44f 7000 	mov.w	r0, #512	; 0x200
 8002bcc:	f000 fa40 	bl	8003050 <SDIO_ClearITPendingBit>
    TransferError = SD_START_BIT_ERR;
 8002bd0:	2307      	movs	r3, #7
 8002bd2:	7023      	strb	r3, [r4, #0]
  }

  SDIO_ITConfig(SDIO_IT_DCRCFAIL | SDIO_IT_DTIMEOUT | SDIO_IT_DATAEND |
 8002bd4:	f24c 303a 	movw	r0, #49978	; 0xc33a
 8002bd8:	2100      	movs	r1, #0
 8002bda:	f000 fa13 	bl	8003004 <SDIO_ITConfig>
                SDIO_IT_TXFIFOHE | SDIO_IT_RXFIFOHF | SDIO_IT_TXUNDERR |
                SDIO_IT_RXOVERR | SDIO_IT_STBITERR, DISABLE);
  return(TransferError);
 8002bde:	4b01      	ldr	r3, [pc, #4]	; (8002be4 <SD_ProcessIRQSrc+0x90>)
 8002be0:	7818      	ldrb	r0, [r3, #0]
}
 8002be2:	bd10      	pop	{r4, pc}
 8002be4:	20000018 	.word	0x20000018
 8002be8:	20000048 	.word	0x20000048

08002bec <DMA_DeInit>:
{
  /* Check the parameters */
  assert_param(IS_DMA_ALL_PERIPH(DMAy_Streamx));

  /* Disable the selected DMAy Streamx */
  DMAy_Streamx->CR &= ~((uint32_t)DMA_SxCR_EN);
 8002bec:	6803      	ldr	r3, [r0, #0]
 8002bee:	f023 0301 	bic.w	r3, r3, #1
 8002bf2:	6003      	str	r3, [r0, #0]

  /* Reset DMAy Streamx control register */
  DMAy_Streamx->CR  = 0;
 8002bf4:	2300      	movs	r3, #0
 8002bf6:	6003      	str	r3, [r0, #0]

  /* Reset DMAy Streamx Number of Data to Transfer register */
  DMAy_Streamx->NDTR = 0;
 8002bf8:	6043      	str	r3, [r0, #4]

  /* Reset DMAy Streamx peripheral address register */
  DMAy_Streamx->PAR  = 0;
 8002bfa:	6083      	str	r3, [r0, #8]

  /* Reset DMAy Streamx memory 0 address register */
  DMAy_Streamx->M0AR = 0;
 8002bfc:	60c3      	str	r3, [r0, #12]

  /* Reset DMAy Streamx memory 1 address register */
  DMAy_Streamx->M1AR = 0;
 8002bfe:	6103      	str	r3, [r0, #16]

  /* Reset DMAy Streamx FIFO control register */
  DMAy_Streamx->FCR = (uint32_t)0x00000021;
 8002c00:	2321      	movs	r3, #33	; 0x21
 8002c02:	6143      	str	r3, [r0, #20]

  /* Reset interrupt pending bits for the selected stream */
  if (DMAy_Streamx == DMA1_Stream0)
 8002c04:	4b2d      	ldr	r3, [pc, #180]	; (8002cbc <DMA_DeInit+0xd0>)
 8002c06:	4298      	cmp	r0, r3
 8002c08:	d100      	bne.n	8002c0c <DMA_DeInit+0x20>
 8002c0a:	e01e      	b.n	8002c4a <DMA_DeInit+0x5e>
  {
    /* Reset interrupt pending bits for DMA1 Stream0 */
    DMA1->LIFCR = DMA_Stream0_IT_MASK;
  }
  else if (DMAy_Streamx == DMA1_Stream1)
 8002c0c:	4b2c      	ldr	r3, [pc, #176]	; (8002cc0 <DMA_DeInit+0xd4>)
 8002c0e:	4298      	cmp	r0, r3
 8002c10:	d100      	bne.n	8002c14 <DMA_DeInit+0x28>
 8002c12:	e021      	b.n	8002c58 <DMA_DeInit+0x6c>
  {
    /* Reset interrupt pending bits for DMA1 Stream1 */
    DMA1->LIFCR = DMA_Stream1_IT_MASK;
  }
  else if (DMAy_Streamx == DMA1_Stream2)
 8002c14:	4b2b      	ldr	r3, [pc, #172]	; (8002cc4 <DMA_DeInit+0xd8>)
 8002c16:	4298      	cmp	r0, r3
 8002c18:	d100      	bne.n	8002c1c <DMA_DeInit+0x30>
 8002c1a:	e025      	b.n	8002c68 <DMA_DeInit+0x7c>
  {
    /* Reset interrupt pending bits for DMA1 Stream2 */
    DMA1->LIFCR = DMA_Stream2_IT_MASK;
  }
  else if (DMAy_Streamx == DMA1_Stream3)
 8002c1c:	4b2a      	ldr	r3, [pc, #168]	; (8002cc8 <DMA_DeInit+0xdc>)
 8002c1e:	4298      	cmp	r0, r3
 8002c20:	d100      	bne.n	8002c24 <DMA_DeInit+0x38>
 8002c22:	e029      	b.n	8002c78 <DMA_DeInit+0x8c>
  {
    /* Reset interrupt pending bits for DMA1 Stream3 */
    DMA1->LIFCR = DMA_Stream3_IT_MASK;
  }
  else if (DMAy_Streamx == DMA1_Stream4)
 8002c24:	4b29      	ldr	r3, [pc, #164]	; (8002ccc <DMA_DeInit+0xe0>)
 8002c26:	4298      	cmp	r0, r3
 8002c28:	d100      	bne.n	8002c2c <DMA_DeInit+0x40>
 8002c2a:	e02d      	b.n	8002c88 <DMA_DeInit+0x9c>
  {
    /* Reset interrupt pending bits for DMA1 Stream4 */
    DMA1->HIFCR = DMA_Stream4_IT_MASK;
  }
  else if (DMAy_Streamx == DMA1_Stream5)
 8002c2c:	4b28      	ldr	r3, [pc, #160]	; (8002cd0 <DMA_DeInit+0xe4>)
 8002c2e:	4298      	cmp	r0, r3
 8002c30:	d100      	bne.n	8002c34 <DMA_DeInit+0x48>
 8002c32:	e030      	b.n	8002c96 <DMA_DeInit+0xaa>
  {
    /* Reset interrupt pending bits for DMA1 Stream5 */
    DMA1->HIFCR = DMA_Stream5_IT_MASK;
  }
  else if (DMAy_Streamx == DMA1_Stream6)
 8002c34:	4b27      	ldr	r3, [pc, #156]	; (8002cd4 <DMA_DeInit+0xe8>)
 8002c36:	4298      	cmp	r0, r3
 8002c38:	d100      	bne.n	8002c3c <DMA_DeInit+0x50>
 8002c3a:	e033      	b.n	8002ca4 <DMA_DeInit+0xb8>
  {
    /* Reset interrupt pending bits for DMA1 Stream6 */
    DMA1->HIFCR = (uint32_t)DMA_Stream6_IT_MASK;
  }
  else if (DMAy_Streamx == DMA1_Stream7)
 8002c3c:	4b26      	ldr	r3, [pc, #152]	; (8002cd8 <DMA_DeInit+0xec>)
 8002c3e:	4298      	cmp	r0, r3
 8002c40:	d100      	bne.n	8002c44 <DMA_DeInit+0x58>
 8002c42:	e036      	b.n	8002cb2 <DMA_DeInit+0xc6>
  {
    /* Reset interrupt pending bits for DMA1 Stream7 */
    DMA1->HIFCR = DMA_Stream7_IT_MASK;
  }
  else if (DMAy_Streamx == DMA2_Stream0)
 8002c44:	4b25      	ldr	r3, [pc, #148]	; (8002cdc <DMA_DeInit+0xf0>)
 8002c46:	4298      	cmp	r0, r3
 8002c48:	d103      	bne.n	8002c52 <DMA_DeInit+0x66>
  {
    /* Reset interrupt pending bits for DMA2 Stream0 */
    DMA2->LIFCR = DMA_Stream0_IT_MASK;
 8002c4a:	223d      	movs	r2, #61	; 0x3d
 8002c4c:	f843 2c08 	str.w	r2, [r3, #-8]
 8002c50:	4770      	bx	lr
  }
  else if (DMAy_Streamx == DMA2_Stream1)
 8002c52:	4b23      	ldr	r3, [pc, #140]	; (8002ce0 <DMA_DeInit+0xf4>)
 8002c54:	4298      	cmp	r0, r3
 8002c56:	d104      	bne.n	8002c62 <DMA_DeInit+0x76>
  {
    /* Reset interrupt pending bits for DMA2 Stream1 */
    DMA2->LIFCR = DMA_Stream1_IT_MASK;
 8002c58:	f44f 6274 	mov.w	r2, #3904	; 0xf40
 8002c5c:	f843 2c20 	str.w	r2, [r3, #-32]
 8002c60:	4770      	bx	lr
  }
  else if (DMAy_Streamx == DMA2_Stream2)
 8002c62:	4b20      	ldr	r3, [pc, #128]	; (8002ce4 <DMA_DeInit+0xf8>)
 8002c64:	4298      	cmp	r0, r3
 8002c66:	d104      	bne.n	8002c72 <DMA_DeInit+0x86>
  {
    /* Reset interrupt pending bits for DMA2 Stream2 */
    DMA2->LIFCR = DMA_Stream2_IT_MASK;
 8002c68:	f44f 1274 	mov.w	r2, #3997696	; 0x3d0000
 8002c6c:	f843 2c38 	str.w	r2, [r3, #-56]
 8002c70:	4770      	bx	lr
  }
  else if (DMAy_Streamx == DMA2_Stream3)
 8002c72:	4b1d      	ldr	r3, [pc, #116]	; (8002ce8 <DMA_DeInit+0xfc>)
 8002c74:	4298      	cmp	r0, r3
 8002c76:	d104      	bne.n	8002c82 <DMA_DeInit+0x96>
  {
    /* Reset interrupt pending bits for DMA2 Stream3 */
    DMA2->LIFCR = DMA_Stream3_IT_MASK;
 8002c78:	f04f 6274 	mov.w	r2, #255852544	; 0xf400000
 8002c7c:	f843 2c50 	str.w	r2, [r3, #-80]
 8002c80:	4770      	bx	lr
  }
  else if (DMAy_Streamx == DMA2_Stream4)
 8002c82:	4b1a      	ldr	r3, [pc, #104]	; (8002cec <DMA_DeInit+0x100>)
 8002c84:	4298      	cmp	r0, r3
 8002c86:	d103      	bne.n	8002c90 <DMA_DeInit+0xa4>
  {
    /* Reset interrupt pending bits for DMA2 Stream4 */
    DMA2->HIFCR = DMA_Stream4_IT_MASK;
 8002c88:	4a19      	ldr	r2, [pc, #100]	; (8002cf0 <DMA_DeInit+0x104>)
 8002c8a:	f843 2c64 	str.w	r2, [r3, #-100]
 8002c8e:	4770      	bx	lr
  }
  else if (DMAy_Streamx == DMA2_Stream5)
 8002c90:	4b18      	ldr	r3, [pc, #96]	; (8002cf4 <DMA_DeInit+0x108>)
 8002c92:	4298      	cmp	r0, r3
 8002c94:	d103      	bne.n	8002c9e <DMA_DeInit+0xb2>
  {
    /* Reset interrupt pending bits for DMA2 Stream5 */
    DMA2->HIFCR = DMA_Stream5_IT_MASK;
 8002c96:	4a18      	ldr	r2, [pc, #96]	; (8002cf8 <DMA_DeInit+0x10c>)
 8002c98:	f843 2c7c 	str.w	r2, [r3, #-124]
 8002c9c:	4770      	bx	lr
  }
  else if (DMAy_Streamx == DMA2_Stream6)
 8002c9e:	4b17      	ldr	r3, [pc, #92]	; (8002cfc <DMA_DeInit+0x110>)
 8002ca0:	4298      	cmp	r0, r3
 8002ca2:	d103      	bne.n	8002cac <DMA_DeInit+0xc0>
  {
    /* Reset interrupt pending bits for DMA2 Stream6 */
    DMA2->HIFCR = DMA_Stream6_IT_MASK;
 8002ca4:	4a16      	ldr	r2, [pc, #88]	; (8002d00 <DMA_DeInit+0x114>)
 8002ca6:	f843 2c94 	str.w	r2, [r3, #-148]
 8002caa:	4770      	bx	lr
  }
  else
  {
    if (DMAy_Streamx == DMA2_Stream7)
 8002cac:	4b15      	ldr	r3, [pc, #84]	; (8002d04 <DMA_DeInit+0x118>)
 8002cae:	4298      	cmp	r0, r3
 8002cb0:	d103      	bne.n	8002cba <DMA_DeInit+0xce>
    {
      /* Reset interrupt pending bits for DMA2 Stream7 */
      DMA2->HIFCR = DMA_Stream7_IT_MASK;
 8002cb2:	f04f 523d 	mov.w	r2, #792723456	; 0x2f400000
 8002cb6:	f843 2cac 	str.w	r2, [r3, #-172]
 8002cba:	4770      	bx	lr
 8002cbc:	40026010 	.word	0x40026010
 8002cc0:	40026028 	.word	0x40026028
 8002cc4:	40026040 	.word	0x40026040
 8002cc8:	40026058 	.word	0x40026058
 8002ccc:	40026070 	.word	0x40026070
 8002cd0:	40026088 	.word	0x40026088
 8002cd4:	400260a0 	.word	0x400260a0
 8002cd8:	400260b8 	.word	0x400260b8
 8002cdc:	40026410 	.word	0x40026410
 8002ce0:	40026428 	.word	0x40026428
 8002ce4:	40026440 	.word	0x40026440
 8002ce8:	40026458 	.word	0x40026458
 8002cec:	40026470 	.word	0x40026470
 8002cf0:	2000003d 	.word	0x2000003d
 8002cf4:	40026488 	.word	0x40026488
 8002cf8:	20000f40 	.word	0x20000f40
 8002cfc:	400264a0 	.word	0x400264a0
 8002d00:	203d0000 	.word	0x203d0000
 8002d04:	400264b8 	.word	0x400264b8

08002d08 <DMA_Init>:
  assert_param(IS_DMA_MEMORY_BURST(DMA_InitStruct->DMA_MemoryBurst));
  assert_param(IS_DMA_PERIPHERAL_BURST(DMA_InitStruct->DMA_PeripheralBurst));

  /*------------------------- DMAy Streamx CR Configuration ------------------*/
  /* Get the DMAy_Streamx CR value */
  tmpreg = DMAy_Streamx->CR;
 8002d08:	6802      	ldr	r2, [r0, #0]

  /* Clear CHSEL, MBURST, PBURST, PL, MSIZE, PSIZE, MINC, PINC, CIRC and DIR bits */
  tmpreg &= ((uint32_t)~(DMA_SxCR_CHSEL | DMA_SxCR_MBURST | DMA_SxCR_PBURST | \
 8002d0a:	4b13      	ldr	r3, [pc, #76]	; (8002d58 <DMA_Init+0x50>)
  * @param  DMA_InitStruct: pointer to a DMA_InitTypeDef structure that contains
  *         the configuration information for the specified DMA Stream.
  * @retval None
  */
void DMA_Init(DMA_Stream_TypeDef* DMAy_Streamx, DMA_InitTypeDef* DMA_InitStruct)
{
 8002d0c:	b510      	push	{r4, lr}
  /*------------------------- DMAy Streamx CR Configuration ------------------*/
  /* Get the DMAy_Streamx CR value */
  tmpreg = DMAy_Streamx->CR;

  /* Clear CHSEL, MBURST, PBURST, PL, MSIZE, PSIZE, MINC, PINC, CIRC and DIR bits */
  tmpreg &= ((uint32_t)~(DMA_SxCR_CHSEL | DMA_SxCR_MBURST | DMA_SxCR_PBURST | \
 8002d0e:	4013      	ands	r3, r2
  /* Set MSIZE bits according to DMA_MemoryDataSize value */
  /* Set CIRC bit according to DMA_Mode value */
  /* Set PL bits according to DMA_Priority value */
  /* Set MBURST bits according to DMA_MemoryBurst value */
  /* Set PBURST bits according to DMA_PeripheralBurst value */
  tmpreg |= DMA_InitStruct->DMA_Channel | DMA_InitStruct->DMA_DIR |
 8002d10:	68cc      	ldr	r4, [r1, #12]
 8002d12:	680a      	ldr	r2, [r1, #0]
 8002d14:	4314      	orrs	r4, r2
 8002d16:	694a      	ldr	r2, [r1, #20]
 8002d18:	4314      	orrs	r4, r2
            DMA_InitStruct->DMA_PeripheralInc | DMA_InitStruct->DMA_MemoryInc |
 8002d1a:	698a      	ldr	r2, [r1, #24]
 8002d1c:	4314      	orrs	r4, r2
 8002d1e:	69ca      	ldr	r2, [r1, #28]
 8002d20:	4314      	orrs	r4, r2
            DMA_InitStruct->DMA_PeripheralDataSize | DMA_InitStruct->DMA_MemoryDataSize |
 8002d22:	6a0a      	ldr	r2, [r1, #32]
 8002d24:	4314      	orrs	r4, r2
 8002d26:	6a4a      	ldr	r2, [r1, #36]	; 0x24
 8002d28:	4314      	orrs	r4, r2
            DMA_InitStruct->DMA_Mode | DMA_InitStruct->DMA_Priority |
 8002d2a:	6a8a      	ldr	r2, [r1, #40]	; 0x28
 8002d2c:	4314      	orrs	r4, r2
 8002d2e:	6b4a      	ldr	r2, [r1, #52]	; 0x34
 8002d30:	4314      	orrs	r4, r2
            DMA_InitStruct->DMA_MemoryBurst | DMA_InitStruct->DMA_PeripheralBurst;
 8002d32:	6b8a      	ldr	r2, [r1, #56]	; 0x38
 8002d34:	4322      	orrs	r2, r4
  /* Set MSIZE bits according to DMA_MemoryDataSize value */
  /* Set CIRC bit according to DMA_Mode value */
  /* Set PL bits according to DMA_Priority value */
  /* Set MBURST bits according to DMA_MemoryBurst value */
  /* Set PBURST bits according to DMA_PeripheralBurst value */
  tmpreg |= DMA_InitStruct->DMA_Channel | DMA_InitStruct->DMA_DIR |
 8002d36:	4313      	orrs	r3, r2
            DMA_InitStruct->DMA_PeripheralDataSize | DMA_InitStruct->DMA_MemoryDataSize |
            DMA_InitStruct->DMA_Mode | DMA_InitStruct->DMA_Priority |
            DMA_InitStruct->DMA_MemoryBurst | DMA_InitStruct->DMA_PeripheralBurst;

  /* Write to DMAy Streamx CR register */
  DMAy_Streamx->CR = tmpreg;
 8002d38:	6003      	str	r3, [r0, #0]

  /*------------------------- DMAy Streamx FCR Configuration -----------------*/
  /* Get the DMAy_Streamx FCR value */
  tmpreg = DMAy_Streamx->FCR;
 8002d3a:	6944      	ldr	r4, [r0, #20]
  tmpreg &= (uint32_t)~(DMA_SxFCR_DMDIS | DMA_SxFCR_FTH);

  /* Configure DMAy Streamx FIFO:
    Set DMDIS bits according to DMA_FIFOMode value
    Set FTH bits according to DMA_FIFOThreshold value */
  tmpreg |= DMA_InitStruct->DMA_FIFOMode | DMA_InitStruct->DMA_FIFOThreshold;
 8002d3c:	6b0a      	ldr	r2, [r1, #48]	; 0x30
 8002d3e:	6acb      	ldr	r3, [r1, #44]	; 0x2c
  /*------------------------- DMAy Streamx FCR Configuration -----------------*/
  /* Get the DMAy_Streamx FCR value */
  tmpreg = DMAy_Streamx->FCR;

  /* Clear DMDIS and FTH bits */
  tmpreg &= (uint32_t)~(DMA_SxFCR_DMDIS | DMA_SxFCR_FTH);
 8002d40:	f024 0407 	bic.w	r4, r4, #7

  /* Configure DMAy Streamx FIFO:
    Set DMDIS bits according to DMA_FIFOMode value
    Set FTH bits according to DMA_FIFOThreshold value */
  tmpreg |= DMA_InitStruct->DMA_FIFOMode | DMA_InitStruct->DMA_FIFOThreshold;
 8002d44:	4313      	orrs	r3, r2
 8002d46:	4323      	orrs	r3, r4

  /* Write to DMAy Streamx CR */
  DMAy_Streamx->FCR = tmpreg;
 8002d48:	6143      	str	r3, [r0, #20]

  /*------------------------- DMAy Streamx NDTR Configuration ----------------*/
  /* Write to DMAy Streamx NDTR register */
  DMAy_Streamx->NDTR = DMA_InitStruct->DMA_BufferSize;
 8002d4a:	690b      	ldr	r3, [r1, #16]
 8002d4c:	6043      	str	r3, [r0, #4]

  /*------------------------- DMAy Streamx PAR Configuration -----------------*/
  /* Write to DMAy Streamx PAR */
  DMAy_Streamx->PAR = DMA_InitStruct->DMA_PeripheralBaseAddr;
 8002d4e:	684b      	ldr	r3, [r1, #4]
 8002d50:	6083      	str	r3, [r0, #8]

  /*------------------------- DMAy Streamx M0AR Configuration ----------------*/
  /* Write to DMAy Streamx M0AR */
  DMAy_Streamx->M0AR = DMA_InitStruct->DMA_Memory0BaseAddr;
 8002d52:	688b      	ldr	r3, [r1, #8]
 8002d54:	60c3      	str	r3, [r0, #12]
 8002d56:	bd10      	pop	{r4, pc}
 8002d58:	f01c803f 	.word	0xf01c803f

08002d5c <DMA_Cmd>:
  assert_param(IS_FUNCTIONAL_STATE(NewState));

  if (NewState != DISABLE)
  {
    /* Enable the selected DMAy Streamx by setting EN bit */
    DMAy_Streamx->CR |= (uint32_t)DMA_SxCR_EN;
 8002d5c:	6803      	ldr	r3, [r0, #0]
{
  /* Check the parameters */
  assert_param(IS_DMA_ALL_PERIPH(DMAy_Streamx));
  assert_param(IS_FUNCTIONAL_STATE(NewState));

  if (NewState != DISABLE)
 8002d5e:	b111      	cbz	r1, 8002d66 <DMA_Cmd+0xa>
  {
    /* Enable the selected DMAy Streamx by setting EN bit */
    DMAy_Streamx->CR |= (uint32_t)DMA_SxCR_EN;
 8002d60:	f043 0301 	orr.w	r3, r3, #1
 8002d64:	e001      	b.n	8002d6a <DMA_Cmd+0xe>
  }
  else
  {
    /* Disable the selected DMAy Streamx by clearing EN bit */
    DMAy_Streamx->CR &= ~(uint32_t)DMA_SxCR_EN;
 8002d66:	f023 0301 	bic.w	r3, r3, #1
 8002d6a:	6003      	str	r3, [r0, #0]
 8002d6c:	4770      	bx	lr

08002d6e <DMA_FlowControllerConfig>:

  /* Check the needed flow controller  */
  if(DMA_FlowCtrl != DMA_FlowCtrl_Memory)
  {
    /* Configure DMA_SxCR_PFCTRL bit with the input parameter */
    DMAy_Streamx->CR |= (uint32_t)DMA_SxCR_PFCTRL;
 8002d6e:	6803      	ldr	r3, [r0, #0]
  /* Check the parameters */
  assert_param(IS_DMA_ALL_PERIPH(DMAy_Streamx));
  assert_param(IS_DMA_FLOW_CTRL(DMA_FlowCtrl));

  /* Check the needed flow controller  */
  if(DMA_FlowCtrl != DMA_FlowCtrl_Memory)
 8002d70:	b111      	cbz	r1, 8002d78 <DMA_FlowControllerConfig+0xa>
  {
    /* Configure DMA_SxCR_PFCTRL bit with the input parameter */
    DMAy_Streamx->CR |= (uint32_t)DMA_SxCR_PFCTRL;
 8002d72:	f043 0320 	orr.w	r3, r3, #32
 8002d76:	e001      	b.n	8002d7c <DMA_FlowControllerConfig+0xe>
  }
  else
  {
    /* Clear the PFCTRL bit: Memory is the flow controller */
    DMAy_Streamx->CR &= ~(uint32_t)DMA_SxCR_PFCTRL;
 8002d78:	f023 0320 	bic.w	r3, r3, #32
 8002d7c:	6003      	str	r3, [r0, #0]
 8002d7e:	4770      	bx	lr

08002d80 <DMA_ClearFlag>:
  *            @arg DMA_FLAG_FEIFx:  Streamx FIFO error flag
  *         Where x can be 0 to 7 to select the DMA Stream.
  * @retval None
  */
void DMA_ClearFlag(DMA_Stream_TypeDef* DMAy_Streamx, uint32_t DMA_FLAG)
{
 8002d80:	b510      	push	{r4, lr}

  /* Determine the DMA to which belongs the stream */
  if (DMAy_Streamx < DMA2_Stream0)
  {
    /* DMAy_Streamx belongs to DMA1 */
    DMAy = DMA1;
 8002d82:	4b08      	ldr	r3, [pc, #32]	; (8002da4 <DMA_ClearFlag+0x24>)
 8002d84:	4a08      	ldr	r2, [pc, #32]	; (8002da8 <DMA_ClearFlag+0x28>)
 8002d86:	4c09      	ldr	r4, [pc, #36]	; (8002dac <DMA_ClearFlag+0x2c>)
 8002d88:	42a0      	cmp	r0, r4
 8002d8a:	bf8c      	ite	hi
 8002d8c:	4610      	movhi	r0, r2
 8002d8e:	4618      	movls	r0, r3
    /* DMAy_Streamx belongs to DMA2 */
    DMAy = DMA2;
  }

  /* Check if LIFCR or HIFCR register is targeted */
  if ((DMA_FLAG & HIGH_ISR_MASK) != (uint32_t)RESET)
 8002d90:	f011 5f00 	tst.w	r1, #536870912	; 0x20000000
 8002d94:	f021 21f0 	bic.w	r1, r1, #4026593280	; 0xf000f000
  {
    /* Set DMAy HIFCR register clear flag bits */
    DMAy->HIFCR = (uint32_t)(DMA_FLAG & RESERVED_MASK);
 8002d98:	f021 1182 	bic.w	r1, r1, #8519810	; 0x820082
 8002d9c:	bf14      	ite	ne
 8002d9e:	60c1      	strne	r1, [r0, #12]
  }
  else
  {
    /* Set DMAy LIFCR register clear flag bits */
    DMAy->LIFCR = (uint32_t)(DMA_FLAG & RESERVED_MASK);
 8002da0:	6081      	streq	r1, [r0, #8]
 8002da2:	bd10      	pop	{r4, pc}
 8002da4:	40026000 	.word	0x40026000
 8002da8:	40026400 	.word	0x40026400
 8002dac:	4002640f 	.word	0x4002640f

08002db0 <DMA_ITConfig>:
  assert_param(IS_DMA_ALL_PERIPH(DMAy_Streamx));
  assert_param(IS_DMA_CONFIG_IT(DMA_IT));
  assert_param(IS_FUNCTIONAL_STATE(NewState));

  /* Check if the DMA_IT parameter contains a FIFO interrupt */
  if ((DMA_IT & DMA_IT_FE) != 0)
 8002db0:	060b      	lsls	r3, r1, #24
 8002db2:	d511      	bpl.n	8002dd8 <DMA_ITConfig+0x28>
  {
    if (NewState != DISABLE)
    {
      /* Enable the selected DMA FIFO interrupts */
      DMAy_Streamx->FCR |= (uint32_t)DMA_IT_FE;
 8002db4:	6943      	ldr	r3, [r0, #20]
  assert_param(IS_FUNCTIONAL_STATE(NewState));

  /* Check if the DMA_IT parameter contains a FIFO interrupt */
  if ((DMA_IT & DMA_IT_FE) != 0)
  {
    if (NewState != DISABLE)
 8002db6:	b14a      	cbz	r2, 8002dcc <DMA_ITConfig+0x1c>
    {
      /* Enable the selected DMA FIFO interrupts */
      DMAy_Streamx->FCR |= (uint32_t)DMA_IT_FE;
 8002db8:	f043 0380 	orr.w	r3, r3, #128	; 0x80
      DMAy_Streamx->FCR &= ~(uint32_t)DMA_IT_FE;
    }
  }

  /* Check if the DMA_IT parameter contains a Transfer interrupt */
  if (DMA_IT != DMA_IT_FE)
 8002dbc:	2980      	cmp	r1, #128	; 0x80
  if ((DMA_IT & DMA_IT_FE) != 0)
  {
    if (NewState != DISABLE)
    {
      /* Enable the selected DMA FIFO interrupts */
      DMAy_Streamx->FCR |= (uint32_t)DMA_IT_FE;
 8002dbe:	6143      	str	r3, [r0, #20]
      DMAy_Streamx->FCR &= ~(uint32_t)DMA_IT_FE;
    }
  }

  /* Check if the DMA_IT parameter contains a Transfer interrupt */
  if (DMA_IT != DMA_IT_FE)
 8002dc0:	d014      	beq.n	8002dec <DMA_ITConfig+0x3c>
  {
    if (NewState != DISABLE)
    {
      /* Enable the selected DMA transfer interrupts */
      DMAy_Streamx->CR |= (uint32_t)(DMA_IT  & TRANSFER_IT_ENABLE_MASK);
 8002dc2:	6803      	ldr	r3, [r0, #0]
 8002dc4:	f001 011e 	and.w	r1, r1, #30
 8002dc8:	4319      	orrs	r1, r3
 8002dca:	e00e      	b.n	8002dea <DMA_ITConfig+0x3a>
      DMAy_Streamx->FCR |= (uint32_t)DMA_IT_FE;
    }
    else
    {
      /* Disable the selected DMA FIFO interrupts */
      DMAy_Streamx->FCR &= ~(uint32_t)DMA_IT_FE;
 8002dcc:	f023 0380 	bic.w	r3, r3, #128	; 0x80
    }
  }

  /* Check if the DMA_IT parameter contains a Transfer interrupt */
  if (DMA_IT != DMA_IT_FE)
 8002dd0:	2980      	cmp	r1, #128	; 0x80
      DMAy_Streamx->FCR |= (uint32_t)DMA_IT_FE;
    }
    else
    {
      /* Disable the selected DMA FIFO interrupts */
      DMAy_Streamx->FCR &= ~(uint32_t)DMA_IT_FE;
 8002dd2:	6143      	str	r3, [r0, #20]
    }
  }

  /* Check if the DMA_IT parameter contains a Transfer interrupt */
  if (DMA_IT != DMA_IT_FE)
 8002dd4:	d104      	bne.n	8002de0 <DMA_ITConfig+0x30>
 8002dd6:	4770      	bx	lr
 8002dd8:	2980      	cmp	r1, #128	; 0x80
 8002dda:	d007      	beq.n	8002dec <DMA_ITConfig+0x3c>
  {
    if (NewState != DISABLE)
 8002ddc:	2a00      	cmp	r2, #0
 8002dde:	d1f0      	bne.n	8002dc2 <DMA_ITConfig+0x12>
      DMAy_Streamx->CR |= (uint32_t)(DMA_IT  & TRANSFER_IT_ENABLE_MASK);
    }
    else
    {
      /* Disable the selected DMA transfer interrupts */
      DMAy_Streamx->CR &= ~(uint32_t)(DMA_IT & TRANSFER_IT_ENABLE_MASK);
 8002de0:	6803      	ldr	r3, [r0, #0]
 8002de2:	f001 011e 	and.w	r1, r1, #30
 8002de6:	ea23 0101 	bic.w	r1, r3, r1
 8002dea:	6001      	str	r1, [r0, #0]
 8002dec:	4770      	bx	lr

08002dee <GPIO_Init>:
  * @param  GPIO_InitStruct: pointer to a GPIO_InitTypeDef structure that contains
  *         the configuration information for the specified GPIO peripheral.
  * @retval None
  */
void GPIO_Init(GPIO_TypeDef* GPIOx, GPIO_InitTypeDef* GPIO_InitStruct)
{
 8002dee:	e92d 47f0 	stmdb	sp!, {r4, r5, r6, r7, r8, r9, sl, lr}
  /*-- GPIO Mode Configuration --*/
  for (pinpos = 0x00; pinpos < 0x10; pinpos++)
  {
    pos = ((uint32_t)0x01) << pinpos;
    /* Get the port pins position */
    currentpin = (GPIO_InitStruct->GPIO_Pin) & pos;
 8002df2:	680f      	ldr	r7, [r1, #0]
//  assert_param(IS_GPIO_MODE(GPIO_InitStruct->GPIO_Mode));
//  assert_param(IS_GPIO_PUPD(GPIO_InitStruct->GPIO_PuPd));

  /* -------------------------Configure the port pins---------------- */
  /*-- GPIO Mode Configuration --*/
  for (pinpos = 0x00; pinpos < 0x10; pinpos++)
 8002df4:	2300      	movs	r3, #0
  {
    pos = ((uint32_t)0x01) << pinpos;
 8002df6:	f04f 0c01 	mov.w	ip, #1
    /* Get the port pins position */
    currentpin = (GPIO_InitStruct->GPIO_Pin) & pos;

    if (currentpin == pos)
    {
      GPIOx->MODER  &= ~(GPIO_MODER_MODER0 << (pinpos * 2));
 8002dfa:	f04f 0803 	mov.w	r8, #3

  /* -------------------------Configure the port pins---------------- */
  /*-- GPIO Mode Configuration --*/
  for (pinpos = 0x00; pinpos < 0x10; pinpos++)
  {
    pos = ((uint32_t)0x01) << pinpos;
 8002dfe:	fa0c f203 	lsl.w	r2, ip, r3
    /* Get the port pins position */
    currentpin = (GPIO_InitStruct->GPIO_Pin) & pos;
 8002e02:	ea02 0507 	and.w	r5, r2, r7

    if (currentpin == pos)
 8002e06:	4295      	cmp	r5, r2
 8002e08:	d131      	bne.n	8002e6e <GPIO_Init+0x80>
  * @param  GPIOx: where x can be (A..I) to select the GPIO peripheral.
  * @param  GPIO_InitStruct: pointer to a GPIO_InitTypeDef structure that contains
  *         the configuration information for the specified GPIO peripheral.
  * @retval None
  */
void GPIO_Init(GPIO_TypeDef* GPIOx, GPIO_InitTypeDef* GPIO_InitStruct)
 8002e0a:	005a      	lsls	r2, r3, #1
    /* Get the port pins position */
    currentpin = (GPIO_InitStruct->GPIO_Pin) & pos;

    if (currentpin == pos)
    {
      GPIOx->MODER  &= ~(GPIO_MODER_MODER0 << (pinpos * 2));
 8002e0c:	6806      	ldr	r6, [r0, #0]
 8002e0e:	fa08 f402 	lsl.w	r4, r8, r2
 8002e12:	43e4      	mvns	r4, r4
 8002e14:	4026      	ands	r6, r4
 8002e16:	6006      	str	r6, [r0, #0]
      GPIOx->MODER |= (((uint32_t)GPIO_InitStruct->GPIO_Mode) << (pinpos * 2));
 8002e18:	790e      	ldrb	r6, [r1, #4]
 8002e1a:	f8d0 9000 	ldr.w	r9, [r0]
 8002e1e:	fa06 fa02 	lsl.w	sl, r6, r2

      if ((GPIO_InitStruct->GPIO_Mode == GPIO_Mode_OUT) || (GPIO_InitStruct->GPIO_Mode == GPIO_Mode_AF))
 8002e22:	3e01      	subs	r6, #1
    currentpin = (GPIO_InitStruct->GPIO_Pin) & pos;

    if (currentpin == pos)
    {
      GPIOx->MODER  &= ~(GPIO_MODER_MODER0 << (pinpos * 2));
      GPIOx->MODER |= (((uint32_t)GPIO_InitStruct->GPIO_Mode) << (pinpos * 2));
 8002e24:	ea4a 0909 	orr.w	r9, sl, r9

      if ((GPIO_InitStruct->GPIO_Mode == GPIO_Mode_OUT) || (GPIO_InitStruct->GPIO_Mode == GPIO_Mode_AF))
 8002e28:	2e01      	cmp	r6, #1
    currentpin = (GPIO_InitStruct->GPIO_Pin) & pos;

    if (currentpin == pos)
    {
      GPIOx->MODER  &= ~(GPIO_MODER_MODER0 << (pinpos * 2));
      GPIOx->MODER |= (((uint32_t)GPIO_InitStruct->GPIO_Mode) << (pinpos * 2));
 8002e2a:	f8c0 9000 	str.w	r9, [r0]

      if ((GPIO_InitStruct->GPIO_Mode == GPIO_Mode_OUT) || (GPIO_InitStruct->GPIO_Mode == GPIO_Mode_AF))
 8002e2e:	d815      	bhi.n	8002e5c <GPIO_Init+0x6e>
      {
        /* Check Speed mode parameters */
//        assert_param(IS_GPIO_SPEED(GPIO_InitStruct->GPIO_Speed));

        /* Speed mode configuration */
        GPIOx->OSPEEDR &= ~(GPIO_OSPEEDER_OSPEEDR0 << (pinpos * 2));
 8002e30:	6886      	ldr	r6, [r0, #8]
        GPIOx->OSPEEDR |= ((uint32_t)(GPIO_InitStruct->GPIO_Speed) << (pinpos * 2));
 8002e32:	f891 9005 	ldrb.w	r9, [r1, #5]
      {
        /* Check Speed mode parameters */
//        assert_param(IS_GPIO_SPEED(GPIO_InitStruct->GPIO_Speed));

        /* Speed mode configuration */
        GPIOx->OSPEEDR &= ~(GPIO_OSPEEDER_OSPEEDR0 << (pinpos * 2));
 8002e36:	4026      	ands	r6, r4
 8002e38:	6086      	str	r6, [r0, #8]
        GPIOx->OSPEEDR |= ((uint32_t)(GPIO_InitStruct->GPIO_Speed) << (pinpos * 2));
 8002e3a:	6886      	ldr	r6, [r0, #8]
 8002e3c:	fa09 f902 	lsl.w	r9, r9, r2
 8002e40:	ea49 0606 	orr.w	r6, r9, r6
 8002e44:	6086      	str	r6, [r0, #8]

        /* Check Output mode parameters */
//        assert_param(IS_GPIO_OTYPE(GPIO_InitStruct->GPIO_OType));

        /* Output mode configuration*/
        GPIOx->OTYPER  &= ~((GPIO_OTYPER_OT_0) << ((uint16_t)pinpos)) ;
 8002e46:	6846      	ldr	r6, [r0, #4]
 8002e48:	ea26 0505 	bic.w	r5, r6, r5
 8002e4c:	6045      	str	r5, [r0, #4]
        GPIOx->OTYPER |= (uint16_t)(((uint16_t)GPIO_InitStruct->GPIO_OType) << ((uint16_t)pinpos));
 8002e4e:	798d      	ldrb	r5, [r1, #6]
 8002e50:	6846      	ldr	r6, [r0, #4]
 8002e52:	fa05 f503 	lsl.w	r5, r5, r3

  temp = ((uint32_t)(GPIO_AF) << ((uint32_t)((uint32_t)GPIO_PinSource & (uint32_t)0x07) * 4)) ;
  GPIOx->AFR[GPIO_PinSource >> 0x03] &= ~((uint32_t)0xF << ((uint32_t)((uint32_t)GPIO_PinSource & (uint32_t)0x07) * 4)) ;
  temp_2 = GPIOx->AFR[GPIO_PinSource >> 0x03] | temp;
  GPIOx->AFR[GPIO_PinSource >> 0x03] = temp_2;
}
 8002e56:	b2ad      	uxth	r5, r5
        /* Check Output mode parameters */
//        assert_param(IS_GPIO_OTYPE(GPIO_InitStruct->GPIO_OType));

        /* Output mode configuration*/
        GPIOx->OTYPER  &= ~((GPIO_OTYPER_OT_0) << ((uint16_t)pinpos)) ;
        GPIOx->OTYPER |= (uint16_t)(((uint16_t)GPIO_InitStruct->GPIO_OType) << ((uint16_t)pinpos));
 8002e58:	4335      	orrs	r5, r6
 8002e5a:	6045      	str	r5, [r0, #4]
      }

      /* Pull-up Pull down resistor configuration*/
      GPIOx->PUPDR &= ~(GPIO_PUPDR_PUPDR0 << ((uint16_t)pinpos * 2));
 8002e5c:	68c5      	ldr	r5, [r0, #12]
 8002e5e:	402c      	ands	r4, r5
 8002e60:	60c4      	str	r4, [r0, #12]
      GPIOx->PUPDR |= (((uint32_t)GPIO_InitStruct->GPIO_PuPd) << (pinpos * 2));
 8002e62:	79cd      	ldrb	r5, [r1, #7]
 8002e64:	68c4      	ldr	r4, [r0, #12]
 8002e66:	fa05 f202 	lsl.w	r2, r5, r2
 8002e6a:	4322      	orrs	r2, r4
 8002e6c:	60c2      	str	r2, [r0, #12]
//  assert_param(IS_GPIO_MODE(GPIO_InitStruct->GPIO_Mode));
//  assert_param(IS_GPIO_PUPD(GPIO_InitStruct->GPIO_PuPd));

  /* -------------------------Configure the port pins---------------- */
  /*-- GPIO Mode Configuration --*/
  for (pinpos = 0x00; pinpos < 0x10; pinpos++)
 8002e6e:	3301      	adds	r3, #1
 8002e70:	2b10      	cmp	r3, #16
 8002e72:	d1c4      	bne.n	8002dfe <GPIO_Init+0x10>
      /* Pull-up Pull down resistor configuration*/
      GPIOx->PUPDR &= ~(GPIO_PUPDR_PUPDR0 << ((uint16_t)pinpos * 2));
      GPIOx->PUPDR |= (((uint32_t)GPIO_InitStruct->GPIO_PuPd) << (pinpos * 2));
    }
  }
}
 8002e74:	e8bd 87f0 	ldmia.w	sp!, {r4, r5, r6, r7, r8, r9, sl, pc}

08002e78 <GPIO_ReadInputDataBit>:

  /* Check the parameters */
  assert_param(IS_GPIO_ALL_PERIPH(GPIOx));
  assert_param(IS_GET_GPIO_PIN(GPIO_Pin));

  if ((GPIOx->IDR & GPIO_Pin) != (uint32_t)Bit_RESET)
 8002e78:	6903      	ldr	r3, [r0, #16]
 8002e7a:	4219      	tst	r1, r3
  else
  {
    bitstatus = (uint8_t)Bit_RESET;
  }
  return bitstatus;
}
 8002e7c:	bf0c      	ite	eq
 8002e7e:	2000      	moveq	r0, #0
 8002e80:	2001      	movne	r0, #1
 8002e82:	4770      	bx	lr

08002e84 <GPIO_PinAFConfig>:
  /* Check the parameters */
//  assert_param(IS_GPIO_ALL_PERIPH(GPIOx));
//  assert_param(IS_GPIO_PIN_SOURCE(GPIO_PinSource));
//  assert_param(IS_GPIO_AF(GPIO_AF));

  temp = ((uint32_t)(GPIO_AF) << ((uint32_t)((uint32_t)GPIO_PinSource & (uint32_t)0x07) * 4)) ;
 8002e84:	f001 0307 	and.w	r3, r1, #7
  GPIOx->AFR[GPIO_PinSource >> 0x03] &= ~((uint32_t)0xF << ((uint32_t)((uint32_t)GPIO_PinSource & (uint32_t)0x07) * 4)) ;
 8002e88:	08c9      	lsrs	r1, r1, #3
 8002e8a:	3108      	adds	r1, #8
  *            @arg GPIO_AF_DCMI: Connect DCMI pins to AF13
  *            @arg GPIO_AF_EVENTOUT: Connect EVENTOUT pins to AF15
  * @retval None
  */
void GPIO_PinAFConfig(GPIO_TypeDef* GPIOx, uint16_t GPIO_PinSource, uint8_t GPIO_AF)
{
 8002e8c:	b530      	push	{r4, r5, lr}
  /* Check the parameters */
//  assert_param(IS_GPIO_ALL_PERIPH(GPIOx));
//  assert_param(IS_GPIO_PIN_SOURCE(GPIO_PinSource));
//  assert_param(IS_GPIO_AF(GPIO_AF));

  temp = ((uint32_t)(GPIO_AF) << ((uint32_t)((uint32_t)GPIO_PinSource & (uint32_t)0x07) * 4)) ;
 8002e8e:	009b      	lsls	r3, r3, #2
  GPIOx->AFR[GPIO_PinSource >> 0x03] &= ~((uint32_t)0xF << ((uint32_t)((uint32_t)GPIO_PinSource & (uint32_t)0x07) * 4)) ;
 8002e90:	f850 5021 	ldr.w	r5, [r0, r1, lsl #2]
 8002e94:	240f      	movs	r4, #15
 8002e96:	fa04 f403 	lsl.w	r4, r4, r3
 8002e9a:	ea25 0404 	bic.w	r4, r5, r4
 8002e9e:	f840 4021 	str.w	r4, [r0, r1, lsl #2]
  temp_2 = GPIOx->AFR[GPIO_PinSource >> 0x03] | temp;
 8002ea2:	f850 4021 	ldr.w	r4, [r0, r1, lsl #2]
  /* Check the parameters */
//  assert_param(IS_GPIO_ALL_PERIPH(GPIOx));
//  assert_param(IS_GPIO_PIN_SOURCE(GPIO_PinSource));
//  assert_param(IS_GPIO_AF(GPIO_AF));

  temp = ((uint32_t)(GPIO_AF) << ((uint32_t)((uint32_t)GPIO_PinSource & (uint32_t)0x07) * 4)) ;
 8002ea6:	fa02 f203 	lsl.w	r2, r2, r3
  GPIOx->AFR[GPIO_PinSource >> 0x03] &= ~((uint32_t)0xF << ((uint32_t)((uint32_t)GPIO_PinSource & (uint32_t)0x07) * 4)) ;
  temp_2 = GPIOx->AFR[GPIO_PinSource >> 0x03] | temp;
 8002eaa:	4314      	orrs	r4, r2
  GPIOx->AFR[GPIO_PinSource >> 0x03] = temp_2;
 8002eac:	f840 4021 	str.w	r4, [r0, r1, lsl #2]
 8002eb0:	bd30      	pop	{r4, r5, pc}
	...

08002eb4 <RCC_AHB1PeriphClockCmd>:
  * @param  NewState: new state of the specified peripheral clock.
  *          This parameter can be: ENABLE or DISABLE.
  * @retval None
  */
void RCC_AHB1PeriphClockCmd(uint32_t RCC_AHB1Periph, FunctionalState NewState)
{
 8002eb4:	4b04      	ldr	r3, [pc, #16]	; (8002ec8 <RCC_AHB1PeriphClockCmd+0x14>)
//  assert_param(IS_RCC_AHB1_CLOCK_PERIPH(RCC_AHB1Periph));

//  assert_param(IS_FUNCTIONAL_STATE(NewState));
  if (NewState != DISABLE)
  {
    RCC->AHB1ENR |= RCC_AHB1Periph;
 8002eb6:	6b1a      	ldr	r2, [r3, #48]	; 0x30
{
  /* Check the parameters */
//  assert_param(IS_RCC_AHB1_CLOCK_PERIPH(RCC_AHB1Periph));

//  assert_param(IS_FUNCTIONAL_STATE(NewState));
  if (NewState != DISABLE)
 8002eb8:	b109      	cbz	r1, 8002ebe <RCC_AHB1PeriphClockCmd+0xa>
  {
    RCC->AHB1ENR |= RCC_AHB1Periph;
 8002eba:	4310      	orrs	r0, r2
 8002ebc:	e001      	b.n	8002ec2 <RCC_AHB1PeriphClockCmd+0xe>
  }
  else
  {
    RCC->AHB1ENR &= ~RCC_AHB1Periph;
 8002ebe:	ea22 0000 	bic.w	r0, r2, r0
 8002ec2:	6318      	str	r0, [r3, #48]	; 0x30
 8002ec4:	4770      	bx	lr
 8002ec6:	bf00      	nop
 8002ec8:	40023800 	.word	0x40023800

08002ecc <RCC_APB2PeriphClockCmd>:
  * @param  NewState: new state of the specified peripheral clock.
  *          This parameter can be: ENABLE or DISABLE.
  * @retval None
  */
void RCC_APB2PeriphClockCmd(uint32_t RCC_APB2Periph, FunctionalState NewState)
{
 8002ecc:	4b04      	ldr	r3, [pc, #16]	; (8002ee0 <RCC_APB2PeriphClockCmd+0x14>)
  assert_param(IS_RCC_APB2_PERIPH(RCC_APB2Periph));
  assert_param(IS_FUNCTIONAL_STATE(NewState));

  if (NewState != DISABLE)
  {
    RCC->APB2ENR |= RCC_APB2Periph;
 8002ece:	6c5a      	ldr	r2, [r3, #68]	; 0x44
{
  /* Check the parameters */
  assert_param(IS_RCC_APB2_PERIPH(RCC_APB2Periph));
  assert_param(IS_FUNCTIONAL_STATE(NewState));

  if (NewState != DISABLE)
 8002ed0:	b109      	cbz	r1, 8002ed6 <RCC_APB2PeriphClockCmd+0xa>
  {
    RCC->APB2ENR |= RCC_APB2Periph;
 8002ed2:	4310      	orrs	r0, r2
 8002ed4:	e001      	b.n	8002eda <RCC_APB2PeriphClockCmd+0xe>
  }
  else
  {
    RCC->APB2ENR &= ~RCC_APB2Periph;
 8002ed6:	ea22 0000 	bic.w	r0, r2, r0
 8002eda:	6458      	str	r0, [r3, #68]	; 0x44
 8002edc:	4770      	bx	lr
 8002ede:	bf00      	nop
 8002ee0:	40023800 	.word	0x40023800

08002ee4 <RCC_APB2PeriphResetCmd>:
  * @param  NewState: new state of the specified peripheral reset.
  *          This parameter can be: ENABLE or DISABLE.
  * @retval None
  */
void RCC_APB2PeriphResetCmd(uint32_t RCC_APB2Periph, FunctionalState NewState)
{
 8002ee4:	4b04      	ldr	r3, [pc, #16]	; (8002ef8 <RCC_APB2PeriphResetCmd+0x14>)
  /* Check the parameters */
  assert_param(IS_RCC_APB2_RESET_PERIPH(RCC_APB2Periph));
  assert_param(IS_FUNCTIONAL_STATE(NewState));
  if (NewState != DISABLE)
  {
    RCC->APB2RSTR |= RCC_APB2Periph;
 8002ee6:	6a5a      	ldr	r2, [r3, #36]	; 0x24
void RCC_APB2PeriphResetCmd(uint32_t RCC_APB2Periph, FunctionalState NewState)
{
  /* Check the parameters */
  assert_param(IS_RCC_APB2_RESET_PERIPH(RCC_APB2Periph));
  assert_param(IS_FUNCTIONAL_STATE(NewState));
  if (NewState != DISABLE)
 8002ee8:	b109      	cbz	r1, 8002eee <RCC_APB2PeriphResetCmd+0xa>
  {
    RCC->APB2RSTR |= RCC_APB2Periph;
 8002eea:	4310      	orrs	r0, r2
 8002eec:	e001      	b.n	8002ef2 <RCC_APB2PeriphResetCmd+0xe>
  }
  else
  {
    RCC->APB2RSTR &= ~RCC_APB2Periph;
 8002eee:	ea22 0000 	bic.w	r0, r2, r0
 8002ef2:	6258      	str	r0, [r3, #36]	; 0x24
 8002ef4:	4770      	bx	lr
 8002ef6:	bf00      	nop
 8002ef8:	40023800 	.word	0x40023800

08002efc <SDIO_DeInit>:
  * @brief  Deinitializes the SDIO peripheral registers to their default reset values.
  * @param  None
  * @retval None
  */
void SDIO_DeInit(void)
{
 8002efc:	b508      	push	{r3, lr}
  RCC_APB2PeriphResetCmd(RCC_APB2Periph_SDIO, ENABLE);
 8002efe:	2101      	movs	r1, #1
 8002f00:	f44f 6000 	mov.w	r0, #2048	; 0x800
 8002f04:	f7ff ffee 	bl	8002ee4 <RCC_APB2PeriphResetCmd>
  RCC_APB2PeriphResetCmd(RCC_APB2Periph_SDIO, DISABLE);
 8002f08:	f44f 6000 	mov.w	r0, #2048	; 0x800
 8002f0c:	2100      	movs	r1, #0
}
 8002f0e:	e8bd 4008 	ldmia.w	sp!, {r3, lr}
  * @retval None
  */
void SDIO_DeInit(void)
{
  RCC_APB2PeriphResetCmd(RCC_APB2Periph_SDIO, ENABLE);
  RCC_APB2PeriphResetCmd(RCC_APB2Periph_SDIO, DISABLE);
 8002f12:	f7ff bfe7 	b.w	8002ee4 <RCC_APB2PeriphResetCmd>
	...

08002f18 <SDIO_Init>:
  /* Set PWRSAV bit according to SDIO_ClockPowerSave value */
  /* Set BYPASS bit according to SDIO_ClockBypass value */
  /* Set WIDBUS bits according to SDIO_BusWide value */
  /* Set NEGEDGE bits according to SDIO_ClockEdge value */
  /* Set HWFC_EN bits according to SDIO_HardwareFlowControl value */
  tmpreg |= (SDIO_InitStruct->SDIO_ClockDiv  | SDIO_InitStruct->SDIO_ClockPowerSave |
 8002f18:	6881      	ldr	r1, [r0, #8]
  assert_param(IS_SDIO_BUS_WIDE(SDIO_InitStruct->SDIO_BusWide));
  assert_param(IS_SDIO_HARDWARE_FLOW_CONTROL(SDIO_InitStruct->SDIO_HardwareFlowControl));

/*---------------------------- SDIO CLKCR Configuration ------------------------*/
  /* Get the SDIO CLKCR value */
  tmpreg = SDIO->CLKCR;
 8002f1a:	4a0a      	ldr	r2, [pc, #40]	; (8002f44 <SDIO_Init+0x2c>)
  * @param  SDIO_InitStruct : pointer to a SDIO_InitTypeDef structure
  *         that contains the configuration information for the SDIO peripheral.
  * @retval None
  */
void SDIO_Init(SDIO_InitTypeDef* SDIO_InitStruct)
{
 8002f1c:	b510      	push	{r4, lr}
  /* Set PWRSAV bit according to SDIO_ClockPowerSave value */
  /* Set BYPASS bit according to SDIO_ClockBypass value */
  /* Set WIDBUS bits according to SDIO_BusWide value */
  /* Set NEGEDGE bits according to SDIO_ClockEdge value */
  /* Set HWFC_EN bits according to SDIO_HardwareFlowControl value */
  tmpreg |= (SDIO_InitStruct->SDIO_ClockDiv  | SDIO_InitStruct->SDIO_ClockPowerSave |
 8002f1e:	6844      	ldr	r4, [r0, #4]
  assert_param(IS_SDIO_BUS_WIDE(SDIO_InitStruct->SDIO_BusWide));
  assert_param(IS_SDIO_HARDWARE_FLOW_CONTROL(SDIO_InitStruct->SDIO_HardwareFlowControl));

/*---------------------------- SDIO CLKCR Configuration ------------------------*/
  /* Get the SDIO CLKCR value */
  tmpreg = SDIO->CLKCR;
 8002f20:	6853      	ldr	r3, [r2, #4]
  /* Set PWRSAV bit according to SDIO_ClockPowerSave value */
  /* Set BYPASS bit according to SDIO_ClockBypass value */
  /* Set WIDBUS bits according to SDIO_BusWide value */
  /* Set NEGEDGE bits according to SDIO_ClockEdge value */
  /* Set HWFC_EN bits according to SDIO_HardwareFlowControl value */
  tmpreg |= (SDIO_InitStruct->SDIO_ClockDiv  | SDIO_InitStruct->SDIO_ClockPowerSave |
 8002f22:	430c      	orrs	r4, r1
 8002f24:	68c1      	ldr	r1, [r0, #12]
 8002f26:	430c      	orrs	r4, r1
             SDIO_InitStruct->SDIO_ClockBypass | SDIO_InitStruct->SDIO_BusWide |
 8002f28:	6801      	ldr	r1, [r0, #0]
 8002f2a:	430c      	orrs	r4, r1
 8002f2c:	6901      	ldr	r1, [r0, #16]
  /* Set PWRSAV bit according to SDIO_ClockPowerSave value */
  /* Set BYPASS bit according to SDIO_ClockBypass value */
  /* Set WIDBUS bits according to SDIO_BusWide value */
  /* Set NEGEDGE bits according to SDIO_ClockEdge value */
  /* Set HWFC_EN bits according to SDIO_HardwareFlowControl value */
  tmpreg |= (SDIO_InitStruct->SDIO_ClockDiv  | SDIO_InitStruct->SDIO_ClockPowerSave |
 8002f2e:	7d00      	ldrb	r0, [r0, #20]
/*---------------------------- SDIO CLKCR Configuration ------------------------*/
  /* Get the SDIO CLKCR value */
  tmpreg = SDIO->CLKCR;

  /* Clear CLKDIV, PWRSAV, BYPASS, WIDBUS, NEGEDGE, HWFC_EN bits */
  tmpreg &= CLKCR_CLEAR_MASK;
 8002f30:	f423 43fd 	bic.w	r3, r3, #32384	; 0x7e80
  /* Set BYPASS bit according to SDIO_ClockBypass value */
  /* Set WIDBUS bits according to SDIO_BusWide value */
  /* Set NEGEDGE bits according to SDIO_ClockEdge value */
  /* Set HWFC_EN bits according to SDIO_HardwareFlowControl value */
  tmpreg |= (SDIO_InitStruct->SDIO_ClockDiv  | SDIO_InitStruct->SDIO_ClockPowerSave |
             SDIO_InitStruct->SDIO_ClockBypass | SDIO_InitStruct->SDIO_BusWide |
 8002f34:	4321      	orrs	r1, r4
/*---------------------------- SDIO CLKCR Configuration ------------------------*/
  /* Get the SDIO CLKCR value */
  tmpreg = SDIO->CLKCR;

  /* Clear CLKDIV, PWRSAV, BYPASS, WIDBUS, NEGEDGE, HWFC_EN bits */
  tmpreg &= CLKCR_CLEAR_MASK;
 8002f36:	f023 037f 	bic.w	r3, r3, #127	; 0x7f
  /* Set WIDBUS bits according to SDIO_BusWide value */
  /* Set NEGEDGE bits according to SDIO_ClockEdge value */
  /* Set HWFC_EN bits according to SDIO_HardwareFlowControl value */
  tmpreg |= (SDIO_InitStruct->SDIO_ClockDiv  | SDIO_InitStruct->SDIO_ClockPowerSave |
             SDIO_InitStruct->SDIO_ClockBypass | SDIO_InitStruct->SDIO_BusWide |
             SDIO_InitStruct->SDIO_ClockEdge | SDIO_InitStruct->SDIO_HardwareFlowControl);
 8002f3a:	430b      	orrs	r3, r1
  /* Set PWRSAV bit according to SDIO_ClockPowerSave value */
  /* Set BYPASS bit according to SDIO_ClockBypass value */
  /* Set WIDBUS bits according to SDIO_BusWide value */
  /* Set NEGEDGE bits according to SDIO_ClockEdge value */
  /* Set HWFC_EN bits according to SDIO_HardwareFlowControl value */
  tmpreg |= (SDIO_InitStruct->SDIO_ClockDiv  | SDIO_InitStruct->SDIO_ClockPowerSave |
 8002f3c:	4303      	orrs	r3, r0
             SDIO_InitStruct->SDIO_ClockBypass | SDIO_InitStruct->SDIO_BusWide |
             SDIO_InitStruct->SDIO_ClockEdge | SDIO_InitStruct->SDIO_HardwareFlowControl);

  /* Write to SDIO CLKCR */
  SDIO->CLKCR = tmpreg;
 8002f3e:	6053      	str	r3, [r2, #4]
 8002f40:	bd10      	pop	{r4, pc}
 8002f42:	bf00      	nop
 8002f44:	40012c00 	.word	0x40012c00

08002f48 <SDIO_ClockCmd>:
void SDIO_ClockCmd(FunctionalState NewState)
{
  /* Check the parameters */
  assert_param(IS_FUNCTIONAL_STATE(NewState));

  *(__IO uint32_t *) CLKCR_CLKEN_BB = (uint32_t)NewState;
 8002f48:	4b01      	ldr	r3, [pc, #4]	; (8002f50 <SDIO_ClockCmd+0x8>)
 8002f4a:	6018      	str	r0, [r3, #0]
 8002f4c:	4770      	bx	lr
 8002f4e:	bf00      	nop
 8002f50:	422580a0 	.word	0x422580a0

08002f54 <SDIO_SetPowerState>:
void SDIO_SetPowerState(uint32_t SDIO_PowerState)
{
  /* Check the parameters */
  assert_param(IS_SDIO_POWER_STATE(SDIO_PowerState));

  SDIO->POWER = SDIO_PowerState;
 8002f54:	4b01      	ldr	r3, [pc, #4]	; (8002f5c <SDIO_SetPowerState+0x8>)
 8002f56:	6018      	str	r0, [r3, #0]
 8002f58:	4770      	bx	lr
 8002f5a:	bf00      	nop
 8002f5c:	40012c00 	.word	0x40012c00

08002f60 <SDIO_GetPowerState>:
  *            - 0x02: Power UP
  *            - 0x03: Power ON
  */
uint32_t SDIO_GetPowerState(void)
{
  return (SDIO->POWER & (~PWR_PWRCTRL_MASK));
 8002f60:	4b02      	ldr	r3, [pc, #8]	; (8002f6c <SDIO_GetPowerState+0xc>)
 8002f62:	6818      	ldr	r0, [r3, #0]
}
 8002f64:	f000 0003 	and.w	r0, r0, #3
 8002f68:	4770      	bx	lr
 8002f6a:	bf00      	nop
 8002f6c:	40012c00 	.word	0x40012c00

08002f70 <SDIO_SendCommand>:
  assert_param(IS_SDIO_WAIT(SDIO_CmdInitStruct->SDIO_Wait));
  assert_param(IS_SDIO_CPSM(SDIO_CmdInitStruct->SDIO_CPSM));

/*---------------------------- SDIO ARG Configuration ------------------------*/
  /* Set the SDIO Argument value */
  SDIO->ARG = SDIO_CmdInitStruct->SDIO_Argument;
 8002f70:	6802      	ldr	r2, [r0, #0]
 8002f72:	4b09      	ldr	r3, [pc, #36]	; (8002f98 <SDIO_SendCommand+0x28>)
  *         structure that contains the configuration information for the SDIO
  *         command.
  * @retval None
  */
void SDIO_SendCommand(SDIO_CmdInitTypeDef *SDIO_CmdInitStruct)
{
 8002f74:	b510      	push	{r4, lr}
  assert_param(IS_SDIO_WAIT(SDIO_CmdInitStruct->SDIO_Wait));
  assert_param(IS_SDIO_CPSM(SDIO_CmdInitStruct->SDIO_CPSM));

/*---------------------------- SDIO ARG Configuration ------------------------*/
  /* Set the SDIO Argument value */
  SDIO->ARG = SDIO_CmdInitStruct->SDIO_Argument;
 8002f76:	609a      	str	r2, [r3, #8]
  tmpreg &= CMD_CLEAR_MASK;
  /* Set CMDINDEX bits according to SDIO_CmdIndex value */
  /* Set WAITRESP bits according to SDIO_Response value */
  /* Set WAITINT and WAITPEND bits according to SDIO_Wait value */
  /* Set CPSMEN bits according to SDIO_CPSM value */
  tmpreg |= (uint32_t)SDIO_CmdInitStruct->SDIO_CmdIndex | SDIO_CmdInitStruct->SDIO_Response
 8002f78:	6841      	ldr	r1, [r0, #4]
 8002f7a:	6884      	ldr	r4, [r0, #8]
  /* Set the SDIO Argument value */
  SDIO->ARG = SDIO_CmdInitStruct->SDIO_Argument;

/*---------------------------- SDIO CMD Configuration ------------------------*/
  /* Get the SDIO CMD value */
  tmpreg = SDIO->CMD;
 8002f7c:	68da      	ldr	r2, [r3, #12]
  tmpreg &= CMD_CLEAR_MASK;
  /* Set CMDINDEX bits according to SDIO_CmdIndex value */
  /* Set WAITRESP bits according to SDIO_Response value */
  /* Set WAITINT and WAITPEND bits according to SDIO_Wait value */
  /* Set CPSMEN bits according to SDIO_CPSM value */
  tmpreg |= (uint32_t)SDIO_CmdInitStruct->SDIO_CmdIndex | SDIO_CmdInitStruct->SDIO_Response
 8002f7e:	430c      	orrs	r4, r1
           | SDIO_CmdInitStruct->SDIO_Wait | SDIO_CmdInitStruct->SDIO_CPSM;
 8002f80:	68c1      	ldr	r1, [r0, #12]
 8002f82:	6900      	ldr	r0, [r0, #16]

/*---------------------------- SDIO CMD Configuration ------------------------*/
  /* Get the SDIO CMD value */
  tmpreg = SDIO->CMD;
  /* Clear CMDINDEX, WAITRESP, WAITINT, WAITPEND, CPSMEN bits */
  tmpreg &= CMD_CLEAR_MASK;
 8002f84:	f422 62ff 	bic.w	r2, r2, #2040	; 0x7f8
  /* Set CMDINDEX bits according to SDIO_CmdIndex value */
  /* Set WAITRESP bits according to SDIO_Response value */
  /* Set WAITINT and WAITPEND bits according to SDIO_Wait value */
  /* Set CPSMEN bits according to SDIO_CPSM value */
  tmpreg |= (uint32_t)SDIO_CmdInitStruct->SDIO_CmdIndex | SDIO_CmdInitStruct->SDIO_Response
           | SDIO_CmdInitStruct->SDIO_Wait | SDIO_CmdInitStruct->SDIO_CPSM;
 8002f88:	4321      	orrs	r1, r4

/*---------------------------- SDIO CMD Configuration ------------------------*/
  /* Get the SDIO CMD value */
  tmpreg = SDIO->CMD;
  /* Clear CMDINDEX, WAITRESP, WAITINT, WAITPEND, CPSMEN bits */
  tmpreg &= CMD_CLEAR_MASK;
 8002f8a:	f022 0207 	bic.w	r2, r2, #7
  /* Set CMDINDEX bits according to SDIO_CmdIndex value */
  /* Set WAITRESP bits according to SDIO_Response value */
  /* Set WAITINT and WAITPEND bits according to SDIO_Wait value */
  /* Set CPSMEN bits according to SDIO_CPSM value */
  tmpreg |= (uint32_t)SDIO_CmdInitStruct->SDIO_CmdIndex | SDIO_CmdInitStruct->SDIO_Response
           | SDIO_CmdInitStruct->SDIO_Wait | SDIO_CmdInitStruct->SDIO_CPSM;
 8002f8e:	4301      	orrs	r1, r0
  tmpreg &= CMD_CLEAR_MASK;
  /* Set CMDINDEX bits according to SDIO_CmdIndex value */
  /* Set WAITRESP bits according to SDIO_Response value */
  /* Set WAITINT and WAITPEND bits according to SDIO_Wait value */
  /* Set CPSMEN bits according to SDIO_CPSM value */
  tmpreg |= (uint32_t)SDIO_CmdInitStruct->SDIO_CmdIndex | SDIO_CmdInitStruct->SDIO_Response
 8002f90:	430a      	orrs	r2, r1
           | SDIO_CmdInitStruct->SDIO_Wait | SDIO_CmdInitStruct->SDIO_CPSM;

  /* Write to SDIO CMD */
  SDIO->CMD = tmpreg;
 8002f92:	60da      	str	r2, [r3, #12]
 8002f94:	bd10      	pop	{r4, pc}
 8002f96:	bf00      	nop
 8002f98:	40012c00 	.word	0x40012c00

08002f9c <SDIO_GetCommandResponse>:
  * @param  None
  * @retval Returns the command index of the last command response received.
  */
uint8_t SDIO_GetCommandResponse(void)
{
  return (uint8_t)(SDIO->RESPCMD);
 8002f9c:	4b01      	ldr	r3, [pc, #4]	; (8002fa4 <SDIO_GetCommandResponse+0x8>)
 8002f9e:	6918      	ldr	r0, [r3, #16]
}
 8002fa0:	b2c0      	uxtb	r0, r0
 8002fa2:	4770      	bx	lr
 8002fa4:	40012c00 	.word	0x40012c00

08002fa8 <SDIO_GetResponse>:
  *            @arg SDIO_RESP3: Response Register 3
  *            @arg SDIO_RESP4: Response Register 4
  * @retval The Corresponding response register value.
  */
uint32_t SDIO_GetResponse(uint32_t SDIO_RESP)
{
 8002fa8:	b082      	sub	sp, #8
  __IO uint32_t tmp = 0;
 8002faa:	2300      	movs	r3, #0
 8002fac:	9301      	str	r3, [sp, #4]

  /* Check the parameters */
  assert_param(IS_SDIO_RESP(SDIO_RESP));

  tmp = SDIO_RESP_ADDR + SDIO_RESP;
 8002fae:	4b03      	ldr	r3, [pc, #12]	; (8002fbc <SDIO_GetResponse+0x14>)
 8002fb0:	18c3      	adds	r3, r0, r3
 8002fb2:	9301      	str	r3, [sp, #4]

  return (*(__IO uint32_t *) tmp);
 8002fb4:	9b01      	ldr	r3, [sp, #4]
 8002fb6:	6818      	ldr	r0, [r3, #0]
}
 8002fb8:	b002      	add	sp, #8
 8002fba:	4770      	bx	lr
 8002fbc:	40012c14 	.word	0x40012c14

08002fc0 <SDIO_DataConfig>:
  assert_param(IS_SDIO_TRANSFER_MODE(SDIO_DataInitStruct->SDIO_TransferMode));
  assert_param(IS_SDIO_DPSM(SDIO_DataInitStruct->SDIO_DPSM));

/*---------------------------- SDIO DTIMER Configuration ---------------------*/
  /* Set the SDIO Data TimeOut value */
  SDIO->DTIMER = SDIO_DataInitStruct->SDIO_DataTimeOut;
 8002fc0:	6802      	ldr	r2, [r0, #0]
 8002fc2:	4b09      	ldr	r3, [pc, #36]	; (8002fe8 <SDIO_DataConfig+0x28>)
  * @param  SDIO_DataInitStruct : pointer to a SDIO_DataInitTypeDef structure
  *         that contains the configuration information for the SDIO command.
  * @retval None
  */
void SDIO_DataConfig(SDIO_DataInitTypeDef* SDIO_DataInitStruct)
{
 8002fc4:	b510      	push	{r4, lr}
  assert_param(IS_SDIO_TRANSFER_MODE(SDIO_DataInitStruct->SDIO_TransferMode));
  assert_param(IS_SDIO_DPSM(SDIO_DataInitStruct->SDIO_DPSM));

/*---------------------------- SDIO DTIMER Configuration ---------------------*/
  /* Set the SDIO Data TimeOut value */
  SDIO->DTIMER = SDIO_DataInitStruct->SDIO_DataTimeOut;
 8002fc6:	625a      	str	r2, [r3, #36]	; 0x24

/*---------------------------- SDIO DLEN Configuration -----------------------*/
  /* Set the SDIO DataLength value */
  SDIO->DLEN = SDIO_DataInitStruct->SDIO_DataLength;
 8002fc8:	6842      	ldr	r2, [r0, #4]
 8002fca:	629a      	str	r2, [r3, #40]	; 0x28
  tmpreg &= DCTRL_CLEAR_MASK;
  /* Set DEN bit according to SDIO_DPSM value */
  /* Set DTMODE bit according to SDIO_TransferMode value */
  /* Set DTDIR bit according to SDIO_TransferDir value */
  /* Set DBCKSIZE bits according to SDIO_DataBlockSize value */
  tmpreg |= (uint32_t)SDIO_DataInitStruct->SDIO_DataBlockSize | SDIO_DataInitStruct->SDIO_TransferDir
 8002fcc:	68c2      	ldr	r2, [r0, #12]
 8002fce:	6881      	ldr	r1, [r0, #8]
  /* Set the SDIO DataLength value */
  SDIO->DLEN = SDIO_DataInitStruct->SDIO_DataLength;

/*---------------------------- SDIO DCTRL Configuration ----------------------*/
  /* Get the SDIO DCTRL value */
  tmpreg = SDIO->DCTRL;
 8002fd0:	6adc      	ldr	r4, [r3, #44]	; 0x2c
  tmpreg &= DCTRL_CLEAR_MASK;
  /* Set DEN bit according to SDIO_DPSM value */
  /* Set DTMODE bit according to SDIO_TransferMode value */
  /* Set DTDIR bit according to SDIO_TransferDir value */
  /* Set DBCKSIZE bits according to SDIO_DataBlockSize value */
  tmpreg |= (uint32_t)SDIO_DataInitStruct->SDIO_DataBlockSize | SDIO_DataInitStruct->SDIO_TransferDir
 8002fd2:	4311      	orrs	r1, r2
           | SDIO_DataInitStruct->SDIO_TransferMode | SDIO_DataInitStruct->SDIO_DPSM;
 8002fd4:	6902      	ldr	r2, [r0, #16]
 8002fd6:	6940      	ldr	r0, [r0, #20]
 8002fd8:	430a      	orrs	r2, r1

/*---------------------------- SDIO DCTRL Configuration ----------------------*/
  /* Get the SDIO DCTRL value */
  tmpreg = SDIO->DCTRL;
  /* Clear DEN, DTMODE, DTDIR and DBCKSIZE bits */
  tmpreg &= DCTRL_CLEAR_MASK;
 8002fda:	f024 04f7 	bic.w	r4, r4, #247	; 0xf7
  /* Set DEN bit according to SDIO_DPSM value */
  /* Set DTMODE bit according to SDIO_TransferMode value */
  /* Set DTDIR bit according to SDIO_TransferDir value */
  /* Set DBCKSIZE bits according to SDIO_DataBlockSize value */
  tmpreg |= (uint32_t)SDIO_DataInitStruct->SDIO_DataBlockSize | SDIO_DataInitStruct->SDIO_TransferDir
           | SDIO_DataInitStruct->SDIO_TransferMode | SDIO_DataInitStruct->SDIO_DPSM;
 8002fde:	4302      	orrs	r2, r0
  tmpreg &= DCTRL_CLEAR_MASK;
  /* Set DEN bit according to SDIO_DPSM value */
  /* Set DTMODE bit according to SDIO_TransferMode value */
  /* Set DTDIR bit according to SDIO_TransferDir value */
  /* Set DBCKSIZE bits according to SDIO_DataBlockSize value */
  tmpreg |= (uint32_t)SDIO_DataInitStruct->SDIO_DataBlockSize | SDIO_DataInitStruct->SDIO_TransferDir
 8002fe0:	4322      	orrs	r2, r4
           | SDIO_DataInitStruct->SDIO_TransferMode | SDIO_DataInitStruct->SDIO_DPSM;

  /* Write to SDIO DCTRL */
  SDIO->DCTRL = tmpreg;
 8002fe2:	62da      	str	r2, [r3, #44]	; 0x2c
 8002fe4:	bd10      	pop	{r4, pc}
 8002fe6:	bf00      	nop
 8002fe8:	40012c00 	.word	0x40012c00

08002fec <SDIO_ReadData>:
  * @param  None
  * @retval Data received
  */
uint32_t SDIO_ReadData(void)
{
  return SDIO->FIFO;
 8002fec:	4b01      	ldr	r3, [pc, #4]	; (8002ff4 <SDIO_ReadData+0x8>)
 8002fee:	f8d3 0080 	ldr.w	r0, [r3, #128]	; 0x80
}
 8002ff2:	4770      	bx	lr
 8002ff4:	40012c00 	.word	0x40012c00

08002ff8 <SDIO_DMACmd>:
void SDIO_DMACmd(FunctionalState NewState)
{
  /* Check the parameters */
  assert_param(IS_FUNCTIONAL_STATE(NewState));

  *(__IO uint32_t *) DCTRL_DMAEN_BB = (uint32_t)NewState;
 8002ff8:	4b01      	ldr	r3, [pc, #4]	; (8003000 <SDIO_DMACmd+0x8>)
 8002ffa:	6018      	str	r0, [r3, #0]
 8002ffc:	4770      	bx	lr
 8002ffe:	bf00      	nop
 8003000:	4225858c 	.word	0x4225858c

08003004 <SDIO_ITConfig>:
  * @param  NewState: new state of the specified SDIO interrupts.
  *          This parameter can be: ENABLE or DISABLE.
  * @retval None
  */
void SDIO_ITConfig(uint32_t SDIO_IT, FunctionalState NewState)
{
 8003004:	4b04      	ldr	r3, [pc, #16]	; (8003018 <SDIO_ITConfig+0x14>)
  assert_param(IS_FUNCTIONAL_STATE(NewState));

  if (NewState != DISABLE)
  {
    /* Enable the SDIO interrupts */
    SDIO->MASK |= SDIO_IT;
 8003006:	6bda      	ldr	r2, [r3, #60]	; 0x3c
{
  /* Check the parameters */
  assert_param(IS_SDIO_IT(SDIO_IT));
  assert_param(IS_FUNCTIONAL_STATE(NewState));

  if (NewState != DISABLE)
 8003008:	b109      	cbz	r1, 800300e <SDIO_ITConfig+0xa>
  {
    /* Enable the SDIO interrupts */
    SDIO->MASK |= SDIO_IT;
 800300a:	4310      	orrs	r0, r2
 800300c:	e001      	b.n	8003012 <SDIO_ITConfig+0xe>
  }
  else
  {
    /* Disable the SDIO interrupts */
    SDIO->MASK &= ~SDIO_IT;
 800300e:	ea22 0000 	bic.w	r0, r2, r0
 8003012:	63d8      	str	r0, [r3, #60]	; 0x3c
 8003014:	4770      	bx	lr
 8003016:	bf00      	nop
 8003018:	40012c00 	.word	0x40012c00

0800301c <SDIO_GetFlagStatus>:
  FlagStatus bitstatus = RESET;

  /* Check the parameters */
  assert_param(IS_SDIO_FLAG(SDIO_FLAG));

  if ((SDIO->STA & SDIO_FLAG) != (uint32_t)RESET)
 800301c:	4b03      	ldr	r3, [pc, #12]	; (800302c <SDIO_GetFlagStatus+0x10>)
 800301e:	6b5b      	ldr	r3, [r3, #52]	; 0x34
 8003020:	4218      	tst	r0, r3
  else
  {
    bitstatus = RESET;
  }
  return bitstatus;
}
 8003022:	bf0c      	ite	eq
 8003024:	2000      	moveq	r0, #0
 8003026:	2001      	movne	r0, #1
 8003028:	4770      	bx	lr
 800302a:	bf00      	nop
 800302c:	40012c00 	.word	0x40012c00

08003030 <SDIO_ClearFlag>:
void SDIO_ClearFlag(uint32_t SDIO_FLAG)
{
  /* Check the parameters */
  assert_param(IS_SDIO_CLEAR_FLAG(SDIO_FLAG));

  SDIO->ICR = SDIO_FLAG;
 8003030:	4b01      	ldr	r3, [pc, #4]	; (8003038 <SDIO_ClearFlag+0x8>)
 8003032:	6398      	str	r0, [r3, #56]	; 0x38
 8003034:	4770      	bx	lr
 8003036:	bf00      	nop
 8003038:	40012c00 	.word	0x40012c00

0800303c <SDIO_GetITStatus>:
{
  ITStatus bitstatus = RESET;

  /* Check the parameters */
  assert_param(IS_SDIO_GET_IT(SDIO_IT));
  if ((SDIO->STA & SDIO_IT) != (uint32_t)RESET)
 800303c:	4b03      	ldr	r3, [pc, #12]	; (800304c <SDIO_GetITStatus+0x10>)
 800303e:	6b5b      	ldr	r3, [r3, #52]	; 0x34
 8003040:	4218      	tst	r0, r3
  else
  {
    bitstatus = RESET;
  }
  return bitstatus;
}
 8003042:	bf0c      	ite	eq
 8003044:	2000      	moveq	r0, #0
 8003046:	2001      	movne	r0, #1
 8003048:	4770      	bx	lr
 800304a:	bf00      	nop
 800304c:	40012c00 	.word	0x40012c00

08003050 <SDIO_ClearITPendingBit>:
void SDIO_ClearITPendingBit(uint32_t SDIO_IT)
{
  /* Check the parameters */
  assert_param(IS_SDIO_CLEAR_IT(SDIO_IT));

  SDIO->ICR = SDIO_IT;
 8003050:	4b01      	ldr	r3, [pc, #4]	; (8003058 <SDIO_ClearITPendingBit+0x8>)
 8003052:	6398      	str	r0, [r3, #56]	; 0x38
 8003054:	4770      	bx	lr
 8003056:	bf00      	nop
 8003058:	40012c00 	.word	0x40012c00

0800305c <NMI_Handler>:
  * @brief   This function handles NMI exception.
  * @param  None
  * @retval None
  */
void NMI_Handler(void)
{
 800305c:	4770      	bx	lr

0800305e <HardFault_Handler>:
  * @brief  This function handles Hard Fault exception.
  * @param  None
  * @retval None
  */
void HardFault_Handler(void)
{
 800305e:	e7fe      	b.n	800305e <HardFault_Handler>

08003060 <MemManage_Handler>:
  * @brief  This function handles Memory Manage exception.
  * @param  None
  * @retval None
  */
void MemManage_Handler(void)
{
 8003060:	e7fe      	b.n	8003060 <MemManage_Handler>

08003062 <BusFault_Handler>:
  * @brief  This function handles Bus Fault exception.
  * @param  None
  * @retval None
  */
void BusFault_Handler(void)
{
 8003062:	e7fe      	b.n	8003062 <BusFault_Handler>

08003064 <UsageFault_Handler>:
  * @brief  This function handles Usage Fault exception.
  * @param  None
  * @retval None
  */
void UsageFault_Handler(void)
{
 8003064:	e7fe      	b.n	8003064 <UsageFault_Handler>

08003066 <SVC_Handler>:
  * @brief  This function handles SVCall exception.
  * @param  None
  * @retval None
  */
void SVC_Handler(void)
{
 8003066:	4770      	bx	lr

08003068 <DebugMon_Handler>:
  * @brief  This function handles Debug Monitor exception.
  * @param  None
  * @retval None
  */
void DebugMon_Handler(void)
{
 8003068:	4770      	bx	lr

0800306a <PendSV_Handler>:
  * @brief  This function handles PendSVC exception.
  * @param  None
  * @retval None
  */
void PendSV_Handler(void)
{
 800306a:	4770      	bx	lr

0800306c <SysTick_Handler>:
  * @brief  This function handles SysTick Handler.
  * @param  None
  * @retval None
  */
void SysTick_Handler(void)
{
 800306c:	4770      	bx	lr

0800306e <SDIO_IRQHandler>:
  * @retval None
  */
void SDIO_IRQHandler(void)
{
  /* Process All SDIO Interrupt Sources */
  SD_ProcessIRQSrc();
 800306e:	f7ff bd71 	b.w	8002b54 <SD_ProcessIRQSrc>
	...

08003074 <SystemInit>:
    SCB->CPACR |= ((3UL << 10*2)|(3UL << 11*2));  /* set CP10 and CP11 Full Access */
  #endif

  /* Reset the RCC clock configuration to the default reset state ------------*/
  /* Set HSION bit */
  RCC->CR |= (uint32_t)0x00000001;
 8003074:	4b34      	ldr	r3, [pc, #208]	; (8003148 <SystemInit+0xd4>)
 8003076:	681a      	ldr	r2, [r3, #0]
 8003078:	f042 0201 	orr.w	r2, r2, #1
 800307c:	601a      	str	r2, [r3, #0]

  /* Reset CFGR register */
  RCC->CFGR = 0x00000000;
 800307e:	2200      	movs	r2, #0
 8003080:	609a      	str	r2, [r3, #8]

  /* Reset HSEON, CSSON and PLLON bits */
  RCC->CR &= (uint32_t)0xFEF6FFFF;
 8003082:	6819      	ldr	r1, [r3, #0]
 8003084:	f021 7184 	bic.w	r1, r1, #17301504	; 0x1080000
 8003088:	f421 3180 	bic.w	r1, r1, #65536	; 0x10000
 800308c:	6019      	str	r1, [r3, #0]

  /* Reset PLLCFGR register */
  RCC->PLLCFGR = 0x24003010;
 800308e:	492f      	ldr	r1, [pc, #188]	; (800314c <SystemInit+0xd8>)
 8003090:	6059      	str	r1, [r3, #4]

  /* Reset HSEBYP bit */
  RCC->CR &= (uint32_t)0xFFFBFFFF;
 8003092:	6819      	ldr	r1, [r3, #0]
  *         SystemFrequency variable.
  * @param  None
  * @retval None
  */
void SystemInit(void)
{
 8003094:	b082      	sub	sp, #8

  /* Reset PLLCFGR register */
  RCC->PLLCFGR = 0x24003010;

  /* Reset HSEBYP bit */
  RCC->CR &= (uint32_t)0xFFFBFFFF;
 8003096:	f421 2180 	bic.w	r1, r1, #262144	; 0x40000
 800309a:	6019      	str	r1, [r3, #0]

  /* Disable all interrupts */
  RCC->CIR = 0x00000000;
 800309c:	60da      	str	r2, [r3, #12]
static void SetSysClock(void)
{
/******************************************************************************/
/*            PLL (clocked by HSE) used as System clock source                */
/******************************************************************************/
  __IO uint32_t StartUpCounter = 0, HSEStatus = 0;
 800309e:	9200      	str	r2, [sp, #0]
 80030a0:	9201      	str	r2, [sp, #4]

  /* Enable HSE */
  RCC->CR |= ((uint32_t)RCC_CR_HSEON);
 80030a2:	681a      	ldr	r2, [r3, #0]
 80030a4:	f442 3280 	orr.w	r2, r2, #65536	; 0x10000
 80030a8:	601a      	str	r2, [r3, #0]

  /* Wait till HSE is ready and if Time out is reached exit */
  do
  {
    HSEStatus = RCC->CR & RCC_CR_HSERDY;
 80030aa:	681a      	ldr	r2, [r3, #0]
 80030ac:	f402 3200 	and.w	r2, r2, #131072	; 0x20000
 80030b0:	9201      	str	r2, [sp, #4]
    StartUpCounter++;
 80030b2:	9a00      	ldr	r2, [sp, #0]
 80030b4:	3201      	adds	r2, #1
 80030b6:	9200      	str	r2, [sp, #0]
  } while((HSEStatus == 0) && (StartUpCounter != HSE_STARTUP_TIMEOUT));
 80030b8:	9a01      	ldr	r2, [sp, #4]
 80030ba:	b91a      	cbnz	r2, 80030c4 <SystemInit+0x50>
 80030bc:	9a00      	ldr	r2, [sp, #0]
 80030be:	f5b2 6fa0 	cmp.w	r2, #1280	; 0x500
 80030c2:	d1f2      	bne.n	80030aa <SystemInit+0x36>

  if ((RCC->CR & RCC_CR_HSERDY) != RESET)
 80030c4:	4b20      	ldr	r3, [pc, #128]	; (8003148 <SystemInit+0xd4>)
 80030c6:	681b      	ldr	r3, [r3, #0]
 80030c8:	f413 3300 	ands.w	r3, r3, #131072	; 0x20000
  {
    HSEStatus = (uint32_t)0x01;
 80030cc:	bf18      	it	ne
 80030ce:	2301      	movne	r3, #1
  }
  else
  {
    HSEStatus = (uint32_t)0x00;
 80030d0:	9301      	str	r3, [sp, #4]
  }

  if (HSEStatus == (uint32_t)0x01)
 80030d2:	9b01      	ldr	r3, [sp, #4]
 80030d4:	2b01      	cmp	r3, #1
 80030d6:	d004      	beq.n	80030e2 <SystemInit+0x6e>

  /* Configure the Vector Table location add offset address ------------------*/
#ifdef VECT_TAB_SRAM
  SCB->VTOR = SRAM_BASE | VECT_TAB_OFFSET; /* Vector Table Relocation in Internal SRAM */
#else
  SCB->VTOR = FLASH_BASE | VECT_TAB_OFFSET; /* Vector Table Relocation in Internal FLASH */
 80030d8:	4b1d      	ldr	r3, [pc, #116]	; (8003150 <SystemInit+0xdc>)
 80030da:	f04f 6200 	mov.w	r2, #134217728	; 0x8000000
 80030de:	609a      	str	r2, [r3, #8]
 80030e0:	e02f      	b.n	8003142 <SystemInit+0xce>
  }

  if (HSEStatus == (uint32_t)0x01)
  {
    /* Select regulator voltage output Scale 1 mode, System frequency up to 168 MHz */
    RCC->APB1ENR |= RCC_APB1ENR_PWREN;
 80030e2:	4b19      	ldr	r3, [pc, #100]	; (8003148 <SystemInit+0xd4>)
 80030e4:	6c1a      	ldr	r2, [r3, #64]	; 0x40
 80030e6:	f042 5280 	orr.w	r2, r2, #268435456	; 0x10000000
 80030ea:	641a      	str	r2, [r3, #64]	; 0x40
    PWR->CR |= PWR_CR_VOS;
 80030ec:	4a19      	ldr	r2, [pc, #100]	; (8003154 <SystemInit+0xe0>)
 80030ee:	6811      	ldr	r1, [r2, #0]
 80030f0:	f441 4180 	orr.w	r1, r1, #16384	; 0x4000
 80030f4:	6011      	str	r1, [r2, #0]

    /* HCLK = SYSCLK / 1*/
    RCC->CFGR |= RCC_CFGR_HPRE_DIV1;
 80030f6:	689a      	ldr	r2, [r3, #8]
 80030f8:	609a      	str	r2, [r3, #8]

    /* PCLK2 = HCLK / 2*/
    RCC->CFGR |= RCC_CFGR_PPRE2_DIV2;
 80030fa:	689a      	ldr	r2, [r3, #8]
 80030fc:	f442 4200 	orr.w	r2, r2, #32768	; 0x8000
 8003100:	609a      	str	r2, [r3, #8]

    /* PCLK1 = HCLK / 4*/
    RCC->CFGR |= RCC_CFGR_PPRE1_DIV4;
 8003102:	689a      	ldr	r2, [r3, #8]
 8003104:	f442 52a0 	orr.w	r2, r2, #5120	; 0x1400
 8003108:	609a      	str	r2, [r3, #8]

    /* Configure the main PLL */
    RCC->PLLCFGR = PLL_M | (PLL_N << 6) | (((PLL_P >> 1) -1) << 16) |
 800310a:	4a13      	ldr	r2, [pc, #76]	; (8003158 <SystemInit+0xe4>)
 800310c:	605a      	str	r2, [r3, #4]
                   (RCC_PLLCFGR_PLLSRC_HSE) | (PLL_Q << 24);

    /* Enable the main PLL */
    RCC->CR |= RCC_CR_PLLON;
 800310e:	681a      	ldr	r2, [r3, #0]
 8003110:	f042 7280 	orr.w	r2, r2, #16777216	; 0x1000000
 8003114:	601a      	str	r2, [r3, #0]

    /* Wait till the main PLL is ready */
    while((RCC->CR & RCC_CR_PLLRDY) == 0)
 8003116:	6819      	ldr	r1, [r3, #0]
 8003118:	4a0b      	ldr	r2, [pc, #44]	; (8003148 <SystemInit+0xd4>)
 800311a:	0189      	lsls	r1, r1, #6
 800311c:	d5fb      	bpl.n	8003116 <SystemInit+0xa2>
    {
    }

    /* Configure Flash prefetch, Instruction cache, Data cache and wait state */
    FLASH->ACR = FLASH_ACR_ICEN |FLASH_ACR_DCEN |FLASH_ACR_LATENCY_5WS;
 800311e:	4b0f      	ldr	r3, [pc, #60]	; (800315c <SystemInit+0xe8>)
 8003120:	f240 6105 	movw	r1, #1541	; 0x605
 8003124:	6019      	str	r1, [r3, #0]

    /* Select the main PLL as system clock source */
    RCC->CFGR &= (uint32_t)((uint32_t)~(RCC_CFGR_SW));
 8003126:	6893      	ldr	r3, [r2, #8]
 8003128:	f023 0303 	bic.w	r3, r3, #3
 800312c:	6093      	str	r3, [r2, #8]
    RCC->CFGR |= RCC_CFGR_SW_PLL;
 800312e:	6893      	ldr	r3, [r2, #8]
 8003130:	f043 0302 	orr.w	r3, r3, #2
 8003134:	6093      	str	r3, [r2, #8]

    /* Wait till the main PLL is used as system clock source */
    while ((RCC->CFGR & (uint32_t)RCC_CFGR_SWS ) != RCC_CFGR_SWS_PLL);
 8003136:	6893      	ldr	r3, [r2, #8]
 8003138:	f003 030c 	and.w	r3, r3, #12
 800313c:	2b08      	cmp	r3, #8
 800313e:	d1fa      	bne.n	8003136 <SystemInit+0xc2>
 8003140:	e7ca      	b.n	80030d8 <SystemInit+0x64>
#ifdef VECT_TAB_SRAM
  SCB->VTOR = SRAM_BASE | VECT_TAB_OFFSET; /* Vector Table Relocation in Internal SRAM */
#else
  SCB->VTOR = FLASH_BASE | VECT_TAB_OFFSET; /* Vector Table Relocation in Internal FLASH */
#endif
}
 8003142:	b002      	add	sp, #8
 8003144:	4770      	bx	lr
 8003146:	bf00      	nop
 8003148:	40023800 	.word	0x40023800
 800314c:	24003010 	.word	0x24003010
 8003150:	e000ed00 	.word	0xe000ed00
 8003154:	40007000 	.word	0x40007000
 8003158:	07405408 	.word	0x07405408
 800315c:	40023c00 	.word	0x40023c00
 8003160:	2c2b2a22 	.word	0x2c2b2a22
 8003164:	3d3c3b3a 	.word	0x3d3c3b3a
 8003168:	5d5b3f3e 	.word	0x5d5b3f3e
 800316c:	7f7c      	.short	0x7f7c
 800316e:	00          	.byte	0x00
 800316f:	4d          	.byte	0x4d
 8003170:	41535345 	.word	0x41535345
 8003174:	542e4547 	.word	0x542e4547
 8003178:	4c005458 	.word	0x4c005458
 800317c:	54474e45 	.word	0x54474e45
 8003180:	58542e48 	.word	0x58542e48
 8003184:	49440054 	.word	0x49440054
 8003188:	58542e52 	.word	0x58542e52
 800318c:	0a0d0054 	.word	0x0a0d0054
 8003190:	00000000 	.word	0x00000000
